
ed:     file format elf32-tradlittlemips


Disassembly of section .text:

00400000 <main>:
  400000:	27bdffd0 	addiu	sp,sp,-48
  400004:	afb10018 	sw	s1,24(sp)
  400008:	afb00014 	sw	s0,20(sp)
  40000c:	00a08821 	move	s1,a1
  400010:	00808021 	move	s0,a0
  400014:	24050001 	li	a1,1
  400018:	24040003 	li	a0,3
  40001c:	afbf002c 	sw	ra,44(sp)
  400020:	afb2001c 	sw	s2,28(sp)
  400024:	afb50028 	sw	s5,40(sp)
  400028:	afb40024 	sw	s4,36(sp)
  40002c:	0c102311 	jal	408c44 <signal>
  400030:	afb30020 	sw	s3,32(sp)
  400034:	24040001 	li	a0,1
  400038:	24050001 	li	a1,1
  40003c:	0c102311 	jal	408c44 <signal>
  400040:	af828edc 	sw	v0,-28964(gp)
  400044:	24040002 	li	a0,2
  400048:	24050001 	li	a1,1
  40004c:	0c102311 	jal	408c44 <signal>
  400050:	af828e88 	sw	v0,-29048(gp)
  400054:	2404000f 	li	a0,15
  400058:	24050001 	li	a1,1
  40005c:	0c102311 	jal	408c44 <signal>
  400060:	00409021 	move	s2,v0
  400064:	54400006 	bnezl	v0,400080 <main+0x80>
  400068:	26310004 	addiu	s1,s1,4
  40006c:	3c050040 	lui	a1,0x40
  400070:	2404000f 	li	a0,15
  400074:	0c102311 	jal	408c44 <signal>
  400078:	24a504e4 	addiu	a1,a1,1252
  40007c:	26310004 	addiu	s1,s1,4
  400080:	2413002d 	li	s3,45
  400084:	24140071 	li	s4,113
  400088:	24150001 	li	s5,1
  40008c:	2a020002 	slti	v0,s0,2
  400090:	1440001b 	bnez	v0,400100 <main+0x100>
  400094:	8f848014 	lw	a0,-32748(gp)
  400098:	8e230000 	lw	v1,0(s1)
  40009c:	90620000 	lbu	v0,0(v1)
  4000a0:	1453000d 	bne	v0,s3,4000d8 <main+0xd8>
  4000a4:	3c040041 	lui	a0,0x41
  4000a8:	90630001 	lbu	v1,1(v1)
  4000ac:	50600007 	beqzl	v1,4000cc <main+0xcc>
  4000b0:	af808024 	sw	zero,-32732(gp)
  4000b4:	54740006 	bnel	v1,s4,4000d0 <main+0xd0>
  4000b8:	26310004 	addiu	s1,s1,4
  4000bc:	24040003 	li	a0,3
  4000c0:	0c102311 	jal	408c44 <signal>
  4000c4:	00002821 	move	a1,zero
  4000c8:	af958024 	sw	s5,-32732(gp)
  4000cc:	26310004 	addiu	s1,s1,4
  4000d0:	08100023 	j	40008c <main+0x8c>
  4000d4:	2610ffff 	addiu	s0,s0,-1
  4000d8:	2484fab4 	addiu	a0,a0,-1356
  4000dc:	24630001 	addiu	v1,v1,1
  4000e0:	9065ffff 	lbu	a1,-1(v1)
  4000e4:	24840001 	addiu	a0,a0,1
  4000e8:	14a0fffc 	bnez	a1,4000dc <main+0xdc>
  4000ec:	a085ffff 	sb	a1,-1(a0)
  4000f0:	3c020041 	lui	v0,0x41
  4000f4:	2442c80c 	addiu	v0,v0,-14324
  4000f8:	af828e8c 	sw	v0,-29044(gp)
  4000fc:	8f848014 	lw	a0,-32748(gp)
  400100:	0c102781 	jal	409e04 <malloc>
  400104:	00042080 	sll	a0,a0,0x2
  400108:	3c040041 	lui	a0,0x41
  40010c:	2484c6d0 	addiu	a0,a0,-14640
  400110:	0c100e5b 	jal	40396c <mktemp>
  400114:	af828ebc 	sw	v0,-28996(gp)
  400118:	10400018 	beqz	v0,40017c <main+0x17c>
  40011c:	af828eac 	sw	v0,-29012(gp)
  400120:	0c100711 	jal	401c44 <init>
  400124:	32520001 	andi	s2,s2,0x1
  400128:	16400006 	bnez	s2,400144 <main+0x144>
  40012c:	8f828e88 	lw	v0,-29048(gp)
  400130:	3c050040 	lui	a1,0x40
  400134:	24040002 	li	a0,2
  400138:	0c102311 	jal	408c44 <signal>
  40013c:	24a50524 	addiu	a1,a1,1316
  400140:	8f828e88 	lw	v0,-29048(gp)
  400144:	30420001 	andi	v0,v0,0x1
  400148:	54400006 	bnezl	v0,400164 <main+0x164>
  40014c:	3c040041 	lui	a0,0x41
  400150:	3c050040 	lui	a1,0x40
  400154:	24040001 	li	a0,1
  400158:	0c102311 	jal	408c44 <signal>
  40015c:	24a517ac 	addiu	a1,a1,6060
  400160:	3c040041 	lui	a0,0x41
  400164:	0c100af5 	jal	402bd4 <setjmp>
  400168:	24840314 	addiu	a0,a0,788
  40016c:	0c1008dc 	jal	402370 <commands>
  400170:	00000000 	nop
  400174:	0c100139 	jal	4004e4 <quit>
  400178:	00000000 	nop
  40017c:	3c040041 	lui	a0,0x41
  400180:	0c1000da 	jal	400368 <putstr>
  400184:	2484c6dc 	addiu	a0,a0,-14628
  400188:	8fbf002c 	lw	ra,44(sp)
  40018c:	8fb50028 	lw	s5,40(sp)
  400190:	8fb40024 	lw	s4,36(sp)
  400194:	8fb30020 	lw	s3,32(sp)
  400198:	8fb2001c 	lw	s2,28(sp)
  40019c:	8fb10018 	lw	s1,24(sp)
  4001a0:	8fb00014 	lw	s0,20(sp)
  4001a4:	2402ffff 	li	v0,-1
  4001a8:	03e00008 	jr	ra
  4001ac:	27bd0030 	addiu	sp,sp,48

004001b0 <__start>:
  4001b0:	3c1c0041 	lui	gp,0x41
  4001b4:	279c61d0 	addiu	gp,gp,25040
  4001b8:	8fb00000 	lw	s0,0(sp)
  4001bc:	27b10004 	addiu	s1,sp,4
  4001c0:	26320004 	addiu	s2,s1,4
  4001c4:	00101080 	sll	v0,s0,0x2
  4001c8:	02429021 	addu	s2,s2,v0
  4001cc:	af928e5c 	sw	s2,-29092(gp)
  4001d0:	27bdffe8 	addiu	sp,sp,-24
  4001d4:	afa00014 	sw	zero,20(sp)
  4001d8:	8e240000 	lw	a0,0(s1)
  4001dc:	00000000 	nop
  4001e0:	10800007 	beqz	a0,400200 <__start+0x50>
  4001e4:	00809821 	move	s3,a0
  4001e8:	0c100c8b 	jal	40322c <strrchr>
  4001ec:	2405002f 	li	a1,47
  4001f0:	14400002 	bnez	v0,4001fc <__start+0x4c>
  4001f4:	24420001 	addiu	v0,v0,1
  4001f8:	02601021 	move	v0,s3
  4001fc:	af828008 	sw	v0,-32760(gp)
  400200:	02002021 	move	a0,s0
  400204:	02202821 	move	a1,s1
  400208:	0c100000 	jal	400000 <main>
  40020c:	02403021 	move	a2,s2
  400210:	0c102357 	jal	408d5c <exit>
  400214:	00402021 	move	a0,v0
  400218:	0000000d 	break

0040021c <moncontrol>:
  40021c:	03e00008 	jr	ra
  400220:	00000000 	nop

00400224 <_mcount>:
  400224:	27bd0008 	addiu	sp,sp,8
  400228:	03e00008 	jr	ra
  40022c:	0020f821 	move	ra,at

00400230 <getsub>:
  400230:	8f828eb4 	lw	v0,-29004(gp)
  400234:	1040000a 	beqz	v0,400260 <getsub+0x30>
  400238:	3c030041 	lui	v1,0x41
  40023c:	2463f838 	addiu	v1,v1,-1992
  400240:	24420001 	addiu	v0,v0,1
  400244:	9044ffff 	lbu	a0,-1(v0)
  400248:	24630001 	addiu	v1,v1,1
  40024c:	1480fffc 	bnez	a0,400240 <getsub+0x10>
  400250:	a064ffff 	sb	a0,-1(v1)
  400254:	af808eb4 	sw	zero,-29004(gp)
  400258:	03e00008 	jr	ra
  40025c:	00001021 	move	v0,zero
  400260:	03e00008 	jr	ra
  400264:	2402ffff 	li	v0,-1

00400268 <putchr>:
  400268:	8f838eb0 	lw	v1,-29008(gp)
  40026c:	1060002d 	beqz	v1,400324 <putchr+0xbc>
  400270:	8f828010 	lw	v0,-32752(gp)
  400274:	8f838ea4 	lw	v1,-29020(gp)
  400278:	24630001 	addiu	v1,v1,1
  40027c:	28650048 	slti	a1,v1,72
  400280:	50a00003 	beqzl	a1,400290 <putchr+0x28>
  400284:	2403005c 	li	v1,92
  400288:	081000a9 	j	4002a4 <putchr+0x3c>
  40028c:	af838ea4 	sw	v1,-29020(gp)
  400290:	af808ea4 	sw	zero,-29020(gp)
  400294:	a0430000 	sb	v1,0(v0)
  400298:	2403000a 	li	v1,10
  40029c:	a0430001 	sb	v1,1(v0)
  4002a0:	24420002 	addiu	v0,v0,2
  4002a4:	24030009 	li	v1,9
  4002a8:	10830005 	beq	a0,v1,4002c0 <putchr+0x58>
  4002ac:	24030008 	li	v1,8
  4002b0:	5483000b 	bnel	a0,v1,4002e0 <putchr+0x78>
  4002b4:	28830020 	slti	v1,a0,32
  4002b8:	081000b1 	j	4002c4 <putchr+0x5c>
  4002bc:	2403003c 	li	v1,60
  4002c0:	2403003e 	li	v1,62
  4002c4:	2404002d 	li	a0,45
  4002c8:	a0440000 	sb	a0,0(v0)
  4002cc:	24040008 	li	a0,8
  4002d0:	a0440001 	sb	a0,1(v0)
  4002d4:	24460003 	addiu	a2,v0,3
  4002d8:	081000ce 	j	400338 <putchr+0xd0>
  4002dc:	a0430002 	sb	v1,2(v0)
  4002e0:	10600011 	beqz	v1,400328 <putchr+0xc0>
  4002e4:	24460001 	addiu	a2,v0,1
  4002e8:	2403000a 	li	v1,10
  4002ec:	1083000e 	beq	a0,v1,400328 <putchr+0xc0>
  4002f0:	2403005c 	li	v1,92
  4002f4:	a0430000 	sb	v1,0(v0)
  4002f8:	000418c3 	sra	v1,a0,0x3
  4002fc:	30840007 	andi	a0,a0,0x7
  400300:	24630030 	addiu	v1,v1,48
  400304:	24840030 	addiu	a0,a0,48
  400308:	a0430001 	sb	v1,1(v0)
  40030c:	a0440002 	sb	a0,2(v0)
  400310:	24460003 	addiu	a2,v0,3
  400314:	8f828ea4 	lw	v0,-29020(gp)
  400318:	24420002 	addiu	v0,v0,2
  40031c:	081000ce 	j	400338 <putchr+0xd0>
  400320:	af828ea4 	sw	v0,-29020(gp)
  400324:	24460001 	addiu	a2,v0,1
  400328:	a0440000 	sb	a0,0(v0)
  40032c:	2402000a 	li	v0,10
  400330:	10820006 	beq	a0,v0,40034c <putchr+0xe4>
  400334:	3c050041 	lui	a1,0x41
  400338:	3c020041 	lui	v0,0x41
  40033c:	2442fb34 	addiu	v0,v0,-1228
  400340:	00c2102b 	sltu	v0,a2,v0
  400344:	14400006 	bnez	v0,400360 <putchr+0xf8>
  400348:	3c050041 	lui	a1,0x41
  40034c:	24a5faf4 	addiu	a1,a1,-1292
  400350:	24040001 	li	a0,1
  400354:	00c53023 	subu	a2,a2,a1
  400358:	081025fd 	j	4097f4 <write>
  40035c:	af858010 	sw	a1,-32752(gp)
  400360:	03e00008 	jr	ra
  400364:	af868010 	sw	a2,-32752(gp)

00400368 <putstr>:
  400368:	27bdffe8 	addiu	sp,sp,-24
  40036c:	af808ea4 	sw	zero,-29020(gp)
  400370:	afb00010 	sw	s0,16(sp)
  400374:	afbf0014 	sw	ra,20(sp)
  400378:	00808021 	move	s0,a0
  40037c:	92040000 	lbu	a0,0(s0)
  400380:	10800005 	beqz	a0,400398 <putstr+0x30>
  400384:	8fbf0014 	lw	ra,20(sp)
  400388:	0c10009a 	jal	400268 <putchr>
  40038c:	26100001 	addiu	s0,s0,1
  400390:	081000e0 	j	400380 <putstr+0x18>
  400394:	92040000 	lbu	a0,0(s0)
  400398:	8fb00010 	lw	s0,16(sp)
  40039c:	2404000a 	li	a0,10
  4003a0:	0810009a 	j	400268 <putchr>
  4003a4:	27bd0018 	addiu	sp,sp,24

004003a8 <getchr>:
  4003a8:	8f828e74 	lw	v0,-29068(gp)
  4003ac:	27bdffe0 	addiu	sp,sp,-32
  4003b0:	afbf001c 	sw	ra,28(sp)
  4003b4:	10400003 	beqz	v0,4003c4 <getchr+0x1c>
  4003b8:	af828ecc 	sw	v0,-28980(gp)
  4003bc:	08100105 	j	400414 <getchr+0x6c>
  4003c0:	af808e74 	sw	zero,-29068(gp)
  4003c4:	8f828e8c 	lw	v0,-29044(gp)
  4003c8:	10400008 	beqz	v0,4003ec <getchr+0x44>
  4003cc:	24430001 	addiu	v1,v0,1
  4003d0:	af838e8c 	sw	v1,-29044(gp)
  4003d4:	90420000 	lbu	v0,0(v0)
  4003d8:	1440000e 	bnez	v0,400414 <getchr+0x6c>
  4003dc:	af828ecc 	sw	v0,-28980(gp)
  4003e0:	af808e8c 	sw	zero,-29044(gp)
  4003e4:	08100105 	j	400414 <getchr+0x6c>
  4003e8:	2402ffff 	li	v0,-1
  4003ec:	00002021 	move	a0,zero
  4003f0:	27a50010 	addiu	a1,sp,16
  4003f4:	0c102605 	jal	409814 <read>
  4003f8:	24060001 	li	a2,1
  4003fc:	5c400003 	bgtzl	v0,40040c <getchr+0x64>
  400400:	93a20010 	lbu	v0,16(sp)
  400404:	08100104 	j	400410 <getchr+0x68>
  400408:	2402ffff 	li	v0,-1
  40040c:	3042007f 	andi	v0,v0,0x7f
  400410:	af828ecc 	sw	v0,-28980(gp)
  400414:	8fbf001c 	lw	ra,28(sp)
  400418:	03e00008 	jr	ra
  40041c:	27bd0020 	addiu	sp,sp,32

00400420 <error>:
  400420:	27bdffd8 	addiu	sp,sp,-40
  400424:	afb0001c 	sw	s0,28(sp)
  400428:	00808021 	move	s0,a0
  40042c:	2404003f 	li	a0,63
  400430:	afbf0024 	sw	ra,36(sp)
  400434:	afb10020 	sw	s1,32(sp)
  400438:	af808e78 	sw	zero,-29064(gp)
  40043c:	0c10009a 	jal	400268 <putchr>
  400440:	af808eb0 	sw	zero,-29008(gp)
  400444:	0c1000da 	jal	400368 <putstr>
  400448:	02002021 	move	a0,s0
  40044c:	24020002 	li	v0,2
  400450:	afa20010 	sw	v0,16(sp)
  400454:	00002021 	move	a0,zero
  400458:	00003021 	move	a2,zero
  40045c:	00003821 	move	a3,zero
  400460:	0c10275f 	jal	409d7c <lseek>
  400464:	af808eb8 	sw	zero,-29000(gp)
  400468:	8f828e8c 	lw	v0,-29044(gp)
  40046c:	10400003 	beqz	v0,40047c <error+0x5c>
  400470:	af808ec8 	sw	zero,-28984(gp)
  400474:	2402000a 	li	v0,10
  400478:	af828ecc 	sw	v0,-28980(gp)
  40047c:	8f828ecc 	lw	v0,-28980(gp)
  400480:	af808e8c 	sw	zero,-29044(gp)
  400484:	14400009 	bnez	v0,4004ac <error+0x8c>
  400488:	af828e74 	sw	v0,-29068(gp)
  40048c:	8f848e94 	lw	a0,-29036(gp)
  400490:	58800011 	blezl	a0,4004d8 <error+0xb8>
  400494:	3c040041 	lui	a0,0x41
  400498:	0c102757 	jal	409d5c <close>
  40049c:	00000000 	nop
  4004a0:	2402ffff 	li	v0,-1
  4004a4:	08100135 	j	4004d4 <error+0xb4>
  4004a8:	af828e94 	sw	v0,-29036(gp)
  4004ac:	2411000a 	li	s1,10
  4004b0:	2410ffff 	li	s0,-1
  4004b4:	0c1000ea 	jal	4003a8 <getchr>
  4004b8:	00000000 	nop
  4004bc:	1051fff4 	beq	v0,s1,400490 <error+0x70>
  4004c0:	8f848e94 	lw	a0,-29036(gp)
  4004c4:	1450fffb 	bne	v0,s0,4004b4 <error+0x94>
  4004c8:	00000000 	nop
  4004cc:	08100124 	j	400490 <error+0x70>
  4004d0:	00000000 	nop
  4004d4:	3c040041 	lui	a0,0x41
  4004d8:	24840314 	addiu	a0,a0,788
  4004dc:	0c100b18 	jal	402c60 <longjmp>
  4004e0:	24050001 	li	a1,1

004004e4 <quit>:
  4004e4:	8f828024 	lw	v0,-32732(gp)
  4004e8:	27bdffe8 	addiu	sp,sp,-24
  4004ec:	10400009 	beqz	v0,400514 <quit+0x30>
  4004f0:	afbf0014 	sw	ra,20(sp)
  4004f4:	8f828ed8 	lw	v0,-28968(gp)
  4004f8:	10400006 	beqz	v0,400514 <quit+0x30>
  4004fc:	8f828ebc 	lw	v0,-28996(gp)
  400500:	8f838ec0 	lw	v1,-28992(gp)
  400504:	10620003 	beq	v1,v0,400514 <quit+0x30>
  400508:	27848e30 	addiu	a0,gp,-29136
  40050c:	0c100108 	jal	400420 <error>
  400510:	af808ed8 	sw	zero,-28968(gp)
  400514:	0c100ddb 	jal	40376c <unlink>
  400518:	8f848eac 	lw	a0,-29012(gp)
  40051c:	0c102357 	jal	408d5c <exit>
  400520:	00002021 	move	a0,zero

00400524 <onintr>:
  400524:	3c050040 	lui	a1,0x40
  400528:	27bdffe8 	addiu	sp,sp,-24
  40052c:	24040002 	li	a0,2
  400530:	afbf0014 	sw	ra,20(sp)
  400534:	0c102311 	jal	408c44 <signal>
  400538:	24a50524 	addiu	a1,a1,1316
  40053c:	0c10009a 	jal	400268 <putchr>
  400540:	2404000a 	li	a0,10
  400544:	2402000a 	li	v0,10
  400548:	27848e30 	addiu	a0,gp,-29136
  40054c:	0c100108 	jal	400420 <error>
  400550:	af828ecc 	sw	v0,-28980(gp)

00400554 <gettty>:
  400554:	27bdffd0 	addiu	sp,sp,-48
  400558:	3c020041 	lui	v0,0x41
  40055c:	afb50024 	sw	s5,36(sp)
  400560:	8f958e8c 	lw	s5,-29044(gp)
  400564:	afb60028 	sw	s6,40(sp)
  400568:	afb00010 	sw	s0,16(sp)
  40056c:	3c160041 	lui	s6,0x41
  400570:	2450f838 	addiu	s0,v0,-1992
  400574:	afb40020 	sw	s4,32(sp)
  400578:	afb3001c 	sw	s3,28(sp)
  40057c:	afb20018 	sw	s2,24(sp)
  400580:	afb10014 	sw	s1,20(sp)
  400584:	afbf002c 	sw	ra,44(sp)
  400588:	00409821 	move	s3,v0
  40058c:	02009021 	move	s2,s0
  400590:	2414000a 	li	s4,10
  400594:	2411ffff 	li	s1,-1
  400598:	26d6fa36 	addiu	s6,s6,-1482
  40059c:	0c1000ea 	jal	4003a8 <getchr>
  4005a0:	00000000 	nop
  4005a4:	5054000e 	beql	v0,s4,4005e0 <gettty+0x8c>
  4005a8:	a2000000 	sb	zero,0(s0)
  4005ac:	54510005 	bnel	v0,s1,4005c4 <gettty+0x70>
  4005b0:	3042007f 	andi	v0,v0,0x7f
  4005b4:	56a00001 	bnezl	s5,4005bc <gettty+0x68>
  4005b8:	af918e74 	sw	s1,-29068(gp)
  4005bc:	0810017f 	j	4005fc <gettty+0xa8>
  4005c0:	2402ffff 	li	v0,-1
  4005c4:	1040fff5 	beqz	v0,40059c <gettty+0x48>
  4005c8:	00000000 	nop
  4005cc:	26100001 	addiu	s0,s0,1
  4005d0:	1616fff2 	bne	s0,s6,40059c <gettty+0x48>
  4005d4:	a202ffff 	sb	v0,-1(s0)
  4005d8:	0c100108 	jal	400420 <error>
  4005dc:	27848e30 	addiu	a0,gp,-29136
  4005e0:	9264f838 	lbu	a0,-1992(s3)
  4005e4:	2403002e 	li	v1,46
  4005e8:	14830004 	bne	a0,v1,4005fc <gettty+0xa8>
  4005ec:	00001021 	move	v0,zero
  4005f0:	92430001 	lbu	v1,1(s2)
  4005f4:	50600001 	beqzl	v1,4005fc <gettty+0xa8>
  4005f8:	2402ffff 	li	v0,-1
  4005fc:	8fbf002c 	lw	ra,44(sp)
  400600:	8fb60028 	lw	s6,40(sp)
  400604:	8fb50024 	lw	s5,36(sp)
  400608:	8fb40020 	lw	s4,32(sp)
  40060c:	8fb3001c 	lw	s3,28(sp)
  400610:	8fb20018 	lw	s2,24(sp)
  400614:	8fb10014 	lw	s1,20(sp)
  400618:	8fb00010 	lw	s0,16(sp)
  40061c:	03e00008 	jr	ra
  400620:	27bd0030 	addiu	sp,sp,48

00400624 <getfile>:
  400624:	27bdffd8 	addiu	sp,sp,-40
  400628:	8f828e80 	lw	v0,-29056(gp)
  40062c:	afb10014 	sw	s1,20(sp)
  400630:	3c110041 	lui	s1,0x41
  400634:	2631fd7c 	addiu	s1,s1,-644
  400638:	afb00010 	sw	s0,16(sp)
  40063c:	3c100041 	lui	s0,0x41
  400640:	afb40020 	sw	s4,32(sp)
  400644:	afb3001c 	sw	s3,28(sp)
  400648:	afb20018 	sw	s2,24(sp)
  40064c:	afbf0024 	sw	ra,36(sp)
  400650:	2610f838 	addiu	s0,s0,-1992
  400654:	02209821 	move	s3,s1
  400658:	02209021 	move	s2,s1
  40065c:	3c140041 	lui	s4,0x41
  400660:	8f838e6c 	lw	v1,-29076(gp)
  400664:	2463ffff 	addiu	v1,v1,-1
  400668:	04610011 	bgez	v1,4006b0 <getfile+0x8c>
  40066c:	af838e6c 	sw	v1,-29076(gp)
  400670:	8f848e94 	lw	a0,-29036(gp)
  400674:	02202821 	move	a1,s1
  400678:	0c102605 	jal	409814 <read>
  40067c:	24060200 	li	a2,512
  400680:	2442ffff 	addiu	v0,v0,-1
  400684:	04400025 	bltz	v0,40071c <getfile+0xf8>
  400688:	af828e6c 	sw	v0,-29076(gp)
  40068c:	02201821 	move	v1,s1
  400690:	02621021 	addu	v0,s3,v0
  400694:	0062202b 	sltu	a0,v1,v0
  400698:	10800004 	beqz	a0,4006ac <getfile+0x88>
  40069c:	24630001 	addiu	v1,v1,1
  4006a0:	8064ffff 	lb	a0,-1(v1)
  4006a4:	0481fffc 	bgez	a0,400698 <getfile+0x74>
  4006a8:	0062202b 	sltu	a0,v1,v0
  4006ac:	02401021 	move	v0,s2
  4006b0:	24430001 	addiu	v1,v0,1
  4006b4:	90420000 	lbu	v0,0(v0)
  4006b8:	14400003 	bnez	v0,4006c8 <getfile+0xa4>
  4006bc:	30440080 	andi	a0,v0,0x80
  4006c0:	08100198 	j	400660 <getfile+0x3c>
  4006c4:	00601021 	move	v0,v1
  4006c8:	14800004 	bnez	a0,4006dc <getfile+0xb8>
  4006cc:	2684fa38 	addiu	a0,s4,-1480
  4006d0:	0204202b 	sltu	a0,s0,a0
  4006d4:	14800005 	bnez	a0,4006ec <getfile+0xc8>
  4006d8:	8f848eb8 	lw	a0,-29000(gp)
  4006dc:	2402000a 	li	v0,10
  4006e0:	27848e30 	addiu	a0,gp,-29136
  4006e4:	0c100108 	jal	400420 <error>
  4006e8:	af828ecc 	sw	v0,-28980(gp)
  4006ec:	a2020000 	sb	v0,0(s0)
  4006f0:	24840001 	addiu	a0,a0,1
  4006f4:	af848eb8 	sw	a0,-29000(gp)
  4006f8:	2404000a 	li	a0,10
  4006fc:	10440003 	beq	v0,a0,40070c <getfile+0xe8>
  400700:	26050001 	addiu	a1,s0,1
  400704:	081001b0 	j	4006c0 <getfile+0x9c>
  400708:	00a08021 	move	s0,a1
  40070c:	a2000000 	sb	zero,0(s0)
  400710:	af838e80 	sw	v1,-29056(gp)
  400714:	081001c8 	j	400720 <getfile+0xfc>
  400718:	00001021 	move	v0,zero
  40071c:	2402ffff 	li	v0,-1
  400720:	8fbf0024 	lw	ra,36(sp)
  400724:	8fb40020 	lw	s4,32(sp)
  400728:	8fb3001c 	lw	s3,28(sp)
  40072c:	8fb20018 	lw	s2,24(sp)
  400730:	8fb10014 	lw	s1,20(sp)
  400734:	8fb00010 	lw	s0,16(sp)
  400738:	03e00008 	jr	ra
  40073c:	27bd0028 	addiu	sp,sp,40

00400740 <compile>:
  400740:	27bdffb8 	addiu	sp,sp,-72
  400744:	afb20028 	sw	s2,40(sp)
  400748:	afb10024 	sw	s1,36(sp)
  40074c:	afbf0044 	sw	ra,68(sp)
  400750:	afbe0040 	sw	s8,64(sp)
  400754:	afb7003c 	sw	s7,60(sp)
  400758:	afb60038 	sw	s6,56(sp)
  40075c:	afb50034 	sw	s5,52(sp)
  400760:	afb40030 	sw	s4,48(sp)
  400764:	afb3002c 	sw	s3,44(sp)
  400768:	afb00020 	sw	s0,32(sp)
  40076c:	0c1000ea 	jal	4003a8 <getchr>
  400770:	00809021 	move	s2,a0
  400774:	14520006 	bne	v0,s2,400790 <compile+0x50>
  400778:	3c110041 	lui	s1,0x41
  40077c:	9222ff7c 	lbu	v0,-132(s1)
  400780:	144000b8 	bnez	v0,400a64 <compile+0x324>
  400784:	8fbf0044 	lw	ra,68(sp)
  400788:	08100296 	j	400a58 <compile+0x318>
  40078c:	00000000 	nop
  400790:	2403005e 	li	v1,94
  400794:	af808e9c 	sw	zero,-29028(gp)
  400798:	14430006 	bne	v0,v1,4007b4 <compile+0x74>
  40079c:	af808e7c 	sw	zero,-29060(gp)
  4007a0:	0c1000ea 	jal	4003a8 <getchr>
  4007a4:	00000000 	nop
  4007a8:	8f838e9c 	lw	v1,-29028(gp)
  4007ac:	24630001 	addiu	v1,v1,1
  4007b0:	af838e9c 	sw	v1,-29028(gp)
  4007b4:	27b00010 	addiu	s0,sp,16
  4007b8:	3c130041 	lui	s3,0x41
  4007bc:	af828e74 	sw	v0,-29068(gp)
  4007c0:	0000f021 	move	s8,zero
  4007c4:	2636ff7c 	addiu	s6,s1,-132
  4007c8:	0200a021 	move	s4,s0
  4007cc:	2673fffc 	addiu	s3,s3,-4
  4007d0:	0c1000ea 	jal	4003a8 <getchr>
  4007d4:	00000000 	nop
  4007d8:	14520005 	bne	v0,s2,4007f0 <compile+0xb0>
  4007dc:	0040a821 	move	s5,v0
  4007e0:	1614009b 	bne	s0,s4,400a50 <compile+0x310>
  4007e4:	2402000b 	li	v0,11
  4007e8:	08100298 	j	400a60 <compile+0x320>
  4007ec:	a2c20000 	sb	v0,0(s6)
  4007f0:	2402002a 	li	v0,42
  4007f4:	12a20044 	beq	s5,v0,400908 <compile+0x1c8>
  4007f8:	2402002e 	li	v0,46
  4007fc:	12a2003e 	beq	s5,v0,4008f8 <compile+0x1b8>
  400800:	2aa2002f 	slti	v0,s5,47
  400804:	10400008 	beqz	v0,400828 <compile+0xe8>
  400808:	2402005b 	li	v0,91
  40080c:	2417000a 	li	s7,10
  400810:	12b7008f 	beq	s5,s7,400a50 <compile+0x310>
  400814:	24020024 	li	v0,36
  400818:	12a20047 	beq	s5,v0,400938 <compile+0x1f8>
  40081c:	02c0f021 	move	s8,s6
  400820:	0810028f 	j	400a3c <compile+0x2fc>
  400824:	24020002 	li	v0,2
  400828:	12a2004a 	beq	s5,v0,400954 <compile+0x214>
  40082c:	26d70002 	addiu	s7,s6,2
  400830:	2402005c 	li	v0,92
  400834:	16a20080 	bne	s5,v0,400a38 <compile+0x2f8>
  400838:	02c0f021 	move	s8,s6
  40083c:	0c1000ea 	jal	4003a8 <getchr>
  400840:	00000000 	nop
  400844:	24050028 	li	a1,40
  400848:	14450012 	bne	v0,a1,400894 <compile+0x154>
  40084c:	24050029 	li	a1,41
  400850:	8f828e7c 	lw	v0,-29060(gp)
  400854:	28450005 	slti	a1,v0,5
  400858:	10a0007d 	beqz	a1,400a50 <compile+0x310>
  40085c:	304500ff 	andi	a1,v0,0xff
  400860:	24060001 	li	a2,1
  400864:	24420001 	addiu	v0,v0,1
  400868:	a2050000 	sb	a1,0(s0)
  40086c:	a2c60000 	sb	a2,0(s6)
  400870:	02e02021 	move	a0,s7
  400874:	af828e7c 	sw	v0,-29060(gp)
  400878:	a2c50001 	sb	a1,1(s6)
  40087c:	26100001 	addiu	s0,s0,1
  400880:	0093102b 	sltu	v0,a0,s3
  400884:	10400072 	beqz	v0,400a50 <compile+0x310>
  400888:	02c0f021 	move	s8,s6
  40088c:	081001f4 	j	4007d0 <compile+0x90>
  400890:	0080b021 	move	s6,a0
  400894:	5445000a 	bnel	v0,a1,4008c0 <compile+0x180>
  400898:	2445ffcf 	addiu	a1,v0,-49
  40089c:	0290102b 	sltu	v0,s4,s0
  4008a0:	1040006b 	beqz	v0,400a50 <compile+0x310>
  4008a4:	2402000c 	li	v0,12
  4008a8:	a2c20000 	sb	v0,0(s6)
  4008ac:	9202ffff 	lbu	v0,-1(s0)
  4008b0:	02e02021 	move	a0,s7
  4008b4:	2610ffff 	addiu	s0,s0,-1
  4008b8:	08100220 	j	400880 <compile+0x140>
  4008bc:	a2c20001 	sb	v0,1(s6)
  4008c0:	2ca60005 	sltiu	a2,a1,5
  4008c4:	50c00006 	beqzl	a2,4008e0 <compile+0x1a0>
  4008c8:	24050002 	li	a1,2
  4008cc:	2402000e 	li	v0,14
  4008d0:	a2c20000 	sb	v0,0(s6)
  4008d4:	02e02021 	move	a0,s7
  4008d8:	08100220 	j	400880 <compile+0x140>
  4008dc:	a2c50001 	sb	a1,1(s6)
  4008e0:	a2c50000 	sb	a1,0(s6)
  4008e4:	2405000a 	li	a1,10
  4008e8:	10450059 	beq	v0,a1,400a50 <compile+0x310>
  4008ec:	02e02021 	move	a0,s7
  4008f0:	08100220 	j	400880 <compile+0x140>
  4008f4:	a2c20001 	sb	v0,1(s6)
  4008f8:	24020004 	li	v0,4
  4008fc:	26c40001 	addiu	a0,s6,1
  400900:	08100220 	j	400880 <compile+0x140>
  400904:	a2c20000 	sb	v0,0(s6)
  400908:	13c0004c 	beqz	s8,400a3c <compile+0x2fc>
  40090c:	24020002 	li	v0,2
  400910:	93c20000 	lbu	v0,0(s8)
  400914:	24040001 	li	a0,1
  400918:	50440048 	beql	v0,a0,400a3c <compile+0x2fc>
  40091c:	24020002 	li	v0,2
  400920:	2404000c 	li	a0,12
  400924:	10440044 	beq	v0,a0,400a38 <compile+0x2f8>
  400928:	34420001 	ori	v0,v0,0x1
  40092c:	a3c20000 	sb	v0,0(s8)
  400930:	08100292 	j	400a48 <compile+0x308>
  400934:	02c02021 	move	a0,s6
  400938:	0c1000ea 	jal	4003a8 <getchr>
  40093c:	00000000 	nop
  400940:	1452003d 	bne	v0,s2,400a38 <compile+0x2f8>
  400944:	af828e74 	sw	v0,-29068(gp)
  400948:	26c40001 	addiu	a0,s6,1
  40094c:	08100220 	j	400880 <compile+0x140>
  400950:	a2d70000 	sb	s7,0(s6)
  400954:	24020006 	li	v0,6
  400958:	a2c20000 	sb	v0,0(s6)
  40095c:	0c1000ea 	jal	4003a8 <getchr>
  400960:	a2c00001 	sb	zero,1(s6)
  400964:	2404005e 	li	a0,94
  400968:	14440005 	bne	v0,a0,400980 <compile+0x240>
  40096c:	02e0f021 	move	s8,s7
  400970:	0c1000ea 	jal	4003a8 <getchr>
  400974:	00000000 	nop
  400978:	24040008 	li	a0,8
  40097c:	a2c40000 	sb	a0,0(s6)
  400980:	24170001 	li	s7,1
  400984:	2415005d 	li	s5,93
  400988:	2403000a 	li	v1,10
  40098c:	10430030 	beq	v0,v1,400a50 <compile+0x310>
  400990:	2403002d 	li	v1,45
  400994:	1443001c 	bne	v0,v1,400a08 <compile+0x2c8>
  400998:	27c40001 	addiu	a0,s8,1
  40099c:	93c4ffff 	lbu	a0,-1(s8)
  4009a0:	10800019 	beqz	a0,400a08 <compile+0x2c8>
  4009a4:	27c40001 	addiu	a0,s8,1
  4009a8:	0c1000ea 	jal	4003a8 <getchr>
  4009ac:	00000000 	nop
  4009b0:	10550003 	beq	v0,s5,4009c0 <compile+0x280>
  4009b4:	03c02821 	move	a1,s8
  4009b8:	0810027b 	j	4009ec <compile+0x2ac>
  4009bc:	02fe4023 	subu	t0,s7,s8
  4009c0:	2402002d 	li	v0,45
  4009c4:	27c40001 	addiu	a0,s8,1
  4009c8:	a3c20000 	sb	v0,0(s8)
  4009cc:	0810028c 	j	400a30 <compile+0x2f0>
  4009d0:	26f70001 	addiu	s7,s7,1
  4009d4:	24840001 	addiu	a0,a0,1
  4009d8:	a0a40000 	sb	a0,0(a1)
  4009dc:	24a50001 	addiu	a1,a1,1
  4009e0:	00b3202b 	sltu	a0,a1,s3
  4009e4:	5080001b 	beqzl	a0,400a54 <compile+0x314>
  4009e8:	a220ff7c 	sb	zero,-132(s1)
  4009ec:	90a4ffff 	lbu	a0,-1(a1)
  4009f0:	0082382a 	slt	a3,a0,v0
  4009f4:	14e0fff7 	bnez	a3,4009d4 <compile+0x294>
  4009f8:	00a83021 	addu	a2,a1,t0
  4009fc:	00c0b821 	move	s7,a2
  400a00:	00a0f021 	move	s8,a1
  400a04:	27c40001 	addiu	a0,s8,1
  400a08:	a3c20000 	sb	v0,0(s8)
  400a0c:	0093102b 	sltu	v0,a0,s3
  400a10:	1040000f 	beqz	v0,400a50 <compile+0x310>
  400a14:	26f70001 	addiu	s7,s7,1
  400a18:	0c1000ea 	jal	4003a8 <getchr>
  400a1c:	afa40018 	sw	a0,24(sp)
  400a20:	10550003 	beq	v0,s5,400a30 <compile+0x2f0>
  400a24:	8fa40018 	lw	a0,24(sp)
  400a28:	08100262 	j	400988 <compile+0x248>
  400a2c:	0080f021 	move	s8,a0
  400a30:	08100220 	j	400880 <compile+0x140>
  400a34:	a2d70001 	sb	s7,1(s6)
  400a38:	24020002 	li	v0,2
  400a3c:	a2c20000 	sb	v0,0(s6)
  400a40:	26c40002 	addiu	a0,s6,2
  400a44:	a2d50001 	sb	s5,1(s6)
  400a48:	08100220 	j	400880 <compile+0x140>
  400a4c:	03c0b021 	move	s6,s8
  400a50:	a220ff7c 	sb	zero,-132(s1)
  400a54:	af808e7c 	sw	zero,-29060(gp)
  400a58:	0c100108 	jal	400420 <error>
  400a5c:	27848e30 	addiu	a0,gp,-29136
  400a60:	8fbf0044 	lw	ra,68(sp)
  400a64:	8fbe0040 	lw	s8,64(sp)
  400a68:	8fb7003c 	lw	s7,60(sp)
  400a6c:	8fb60038 	lw	s6,56(sp)
  400a70:	8fb50034 	lw	s5,52(sp)
  400a74:	8fb40030 	lw	s4,48(sp)
  400a78:	8fb3002c 	lw	s3,44(sp)
  400a7c:	8fb20028 	lw	s2,40(sp)
  400a80:	8fb10024 	lw	s1,36(sp)
  400a84:	8fb00020 	lw	s0,32(sp)
  400a88:	03e00008 	jr	ra
  400a8c:	27bd0048 	addiu	sp,sp,72

00400a90 <cclass>:
  400a90:	30a500ff 	andi	a1,a1,0xff
  400a94:	10a0000c 	beqz	a1,400ac8 <cclass+0x38>
  400a98:	00001021 	move	v0,zero
  400a9c:	90830000 	lbu	v1,0(a0)
  400aa0:	24820001 	addiu	v0,a0,1
  400aa4:	00832021 	addu	a0,a0,v1
  400aa8:	50440007 	beql	v0,a0,400ac8 <cclass+0x38>
  400aac:	2cc20001 	sltiu	v0,a2,1
  400ab0:	24420001 	addiu	v0,v0,1
  400ab4:	9043ffff 	lbu	v1,-1(v0)
  400ab8:	1465fffb 	bne	v1,a1,400aa8 <cclass+0x18>
  400abc:	00000000 	nop
  400ac0:	03e00008 	jr	ra
  400ac4:	00c01021 	move	v0,a2
  400ac8:	03e00008 	jr	ra
  400acc:	00000000 	nop

00400ad0 <backref>:
  400ad0:	3c020041 	lui	v0,0x41
  400ad4:	00042080 	sll	a0,a0,0x2
  400ad8:	24420300 	addiu	v0,v0,768
  400adc:	00821021 	addu	v0,a0,v0
  400ae0:	3c030041 	lui	v1,0x41
  400ae4:	8c420000 	lw	v0,0(v0)
  400ae8:	2463faa0 	addiu	v1,v1,-1376
  400aec:	00642021 	addu	a0,v1,a0
  400af0:	24420001 	addiu	v0,v0,1
  400af4:	24a50001 	addiu	a1,a1,1
  400af8:	9046ffff 	lbu	a2,-1(v0)
  400afc:	90a3ffff 	lbu	v1,-1(a1)
  400b00:	14c30007 	bne	a2,v1,400b20 <backref+0x50>
  400b04:	00000000 	nop
  400b08:	8c830000 	lw	v1,0(a0)
  400b0c:	0043182b 	sltu	v1,v0,v1
  400b10:	5460fff8 	bnezl	v1,400af4 <backref+0x24>
  400b14:	24420001 	addiu	v0,v0,1
  400b18:	03e00008 	jr	ra
  400b1c:	24020001 	li	v0,1
  400b20:	03e00008 	jr	ra
  400b24:	00001021 	move	v0,zero

00400b28 <advance>:
  400b28:	27bdffc8 	addiu	sp,sp,-56
  400b2c:	afb30020 	sw	s3,32(sp)
  400b30:	3c130041 	lui	s3,0x41
  400b34:	afb40024 	sw	s4,36(sp)
  400b38:	2673faa0 	addiu	s3,s3,-1376
  400b3c:	3c140041 	lui	s4,0x41
  400b40:	afb50028 	sw	s5,40(sp)
  400b44:	afb00014 	sw	s0,20(sp)
  400b48:	afbf0034 	sw	ra,52(sp)
  400b4c:	afb70030 	sw	s7,48(sp)
  400b50:	afb6002c 	sw	s6,44(sp)
  400b54:	afb2001c 	sw	s2,28(sp)
  400b58:	afb10018 	sw	s1,24(sp)
  400b5c:	00808021 	move	s0,a0
  400b60:	00a03821 	move	a3,a1
  400b64:	2694c670 	addiu	s4,s4,-14736
  400b68:	0260a821 	move	s5,s3
  400b6c:	90e60000 	lbu	a2,0(a3)
  400b70:	24c2ffff 	addiu	v0,a2,-1
  400b74:	304200ff 	andi	v0,v0,0xff
  400b78:	2c43000f 	sltiu	v1,v0,15
  400b7c:	10600092 	beqz	v1,400dc8 <advance+0x2a0>
  400b80:	24f10001 	addiu	s1,a3,1
  400b84:	00021080 	sll	v0,v0,0x2
  400b88:	02821021 	addu	v0,s4,v0
  400b8c:	8c420000 	lw	v0,0(v0)
  400b90:	00400008 	jr	v0
  400b94:	00000000 	nop
  400b98:	90e30001 	lbu	v1,1(a3)
  400b9c:	92020000 	lbu	v0,0(s0)
  400ba0:	1462008c 	bne	v1,v0,400dd4 <advance+0x2ac>
  400ba4:	00001021 	move	v0,zero
  400ba8:	24f10002 	addiu	s1,a3,2
  400bac:	26100001 	addiu	s0,s0,1
  400bb0:	081002db 	j	400b6c <advance+0x44>
  400bb4:	02203821 	move	a3,s1
  400bb8:	92020000 	lbu	v0,0(s0)
  400bbc:	1440fffc 	bnez	v0,400bb0 <advance+0x88>
  400bc0:	26100001 	addiu	s0,s0,1
  400bc4:	08100375 	j	400dd4 <advance+0x2ac>
  400bc8:	00001021 	move	v0,zero
  400bcc:	92020000 	lbu	v0,0(s0)
  400bd0:	1040ffe6 	beqz	v0,400b6c <advance+0x44>
  400bd4:	02203821 	move	a3,s1
  400bd8:	08100375 	j	400dd4 <advance+0x2ac>
  400bdc:	00001021 	move	v0,zero
  400be0:	0810034a 	j	400d28 <advance+0x200>
  400be4:	af908e84 	sw	s0,-29052(gp)
  400be8:	02202021 	move	a0,s1
  400bec:	92050000 	lbu	a1,0(s0)
  400bf0:	08100301 	j	400c04 <advance+0xdc>
  400bf4:	24060001 	li	a2,1
  400bf8:	92050000 	lbu	a1,0(s0)
  400bfc:	02202021 	move	a0,s1
  400c00:	00003021 	move	a2,zero
  400c04:	0c1002a4 	jal	400a90 <cclass>
  400c08:	00000000 	nop
  400c0c:	10400070 	beqz	v0,400dd0 <advance+0x2a8>
  400c10:	26100001 	addiu	s0,s0,1
  400c14:	90e20001 	lbu	v0,1(a3)
  400c18:	081002ec 	j	400bb0 <advance+0x88>
  400c1c:	02228821 	addu	s1,s1,v0
  400c20:	90e30001 	lbu	v1,1(a3)
  400c24:	3c020041 	lui	v0,0x41
  400c28:	24420300 	addiu	v0,v0,768
  400c2c:	00031880 	sll	v1,v1,0x2
  400c30:	24f10002 	addiu	s1,a3,2
  400c34:	08100313 	j	400c4c <advance+0x124>
  400c38:	00621021 	addu	v0,v1,v0
  400c3c:	90e20001 	lbu	v0,1(a3)
  400c40:	24f10002 	addiu	s1,a3,2
  400c44:	00021080 	sll	v0,v0,0x2
  400c48:	00531021 	addu	v0,v0,s3
  400c4c:	081002ec 	j	400bb0 <advance+0x88>
  400c50:	ac500000 	sw	s0,0(v0)
  400c54:	90e40001 	lbu	a0,1(a3)
  400c58:	00044880 	sll	t1,a0,0x2
  400c5c:	01331021 	addu	v0,t1,s3
  400c60:	8c480000 	lw	t0,0(v0)
  400c64:	11000058 	beqz	t0,400dc8 <advance+0x2a0>
  400c68:	00000000 	nop
  400c6c:	0c1002b4 	jal	400ad0 <backref>
  400c70:	02002821 	move	a1,s0
  400c74:	10400056 	beqz	v0,400dd0 <advance+0x2a8>
  400c78:	3c020041 	lui	v0,0x41
  400c7c:	24420300 	addiu	v0,v0,768
  400c80:	01224821 	addu	t1,t1,v0
  400c84:	8d220000 	lw	v0,0(t1)
  400c88:	24f10002 	addiu	s1,a3,2
  400c8c:	01024023 	subu	t0,t0,v0
  400c90:	081002ec 	j	400bb0 <advance+0x88>
  400c94:	02088021 	addu	s0,s0,t0
  400c98:	90e80001 	lbu	t0,1(a3)
  400c9c:	24f10002 	addiu	s1,a3,2
  400ca0:	00083880 	sll	a3,t0,0x2
  400ca4:	00f31021 	addu	v0,a3,s3
  400ca8:	8c490000 	lw	t1,0(v0)
  400cac:	11200046 	beqz	t1,400dc8 <advance+0x2a0>
  400cb0:	3c0a0041 	lui	t2,0x41
  400cb4:	254a0300 	addiu	t2,t2,768
  400cb8:	02009021 	move	s2,s0
  400cbc:	01475021 	addu	t2,t2,a3
  400cc0:	01002021 	move	a0,t0
  400cc4:	0c1002b4 	jal	400ad0 <backref>
  400cc8:	02402821 	move	a1,s2
  400ccc:	10400005 	beqz	v0,400ce4 <advance+0x1bc>
  400cd0:	3c170041 	lui	s7,0x41
  400cd4:	8d420000 	lw	v0,0(t2)
  400cd8:	01221023 	subu	v0,t1,v0
  400cdc:	08100330 	j	400cc0 <advance+0x198>
  400ce0:	02429021 	addu	s2,s2,v0
  400ce4:	26f70300 	addiu	s7,s7,768
  400ce8:	02a7b021 	addu	s6,s5,a3
  400cec:	08100354 	j	400d50 <advance+0x228>
  400cf0:	02e7b821 	addu	s7,s7,a3
  400cf4:	02009021 	move	s2,s0
  400cf8:	26520001 	addiu	s2,s2,1
  400cfc:	9242ffff 	lbu	v0,-1(s2)
  400d00:	5440fffe 	bnezl	v0,400cfc <advance+0x1d4>
  400d04:	26520001 	addiu	s2,s2,1
  400d08:	8f828e90 	lw	v0,-29040(gp)
  400d0c:	2652ffff 	addiu	s2,s2,-1
  400d10:	1242002f 	beq	s2,v0,400dd0 <advance+0x2a8>
  400d14:	02402021 	move	a0,s2
  400d18:	0c1002ca 	jal	400b28 <advance>
  400d1c:	02202821 	move	a1,s1
  400d20:	50400025 	beqzl	v0,400db8 <advance+0x290>
  400d24:	0212102b 	sltu	v0,s0,s2
  400d28:	08100375 	j	400dd4 <advance+0x2ac>
  400d2c:	24020001 	li	v0,1
  400d30:	0c1002ca 	jal	400b28 <advance>
  400d34:	02202821 	move	a1,s1
  400d38:	14400026 	bnez	v0,400dd4 <advance+0x2ac>
  400d3c:	24020001 	li	v0,1
  400d40:	8ec30000 	lw	v1,0(s6)
  400d44:	8ee20000 	lw	v0,0(s7)
  400d48:	00621023 	subu	v0,v1,v0
  400d4c:	02429023 	subu	s2,s2,v0
  400d50:	0250102b 	sltu	v0,s2,s0
  400d54:	1040fff6 	beqz	v0,400d30 <advance+0x208>
  400d58:	02402021 	move	a0,s2
  400d5c:	081002ec 	j	400bb0 <advance+0x88>
  400d60:	02408021 	move	s0,s2
  400d64:	90e20001 	lbu	v0,1(a3)
  400d68:	02009021 	move	s2,s0
  400d6c:	26520001 	addiu	s2,s2,1
  400d70:	9243ffff 	lbu	v1,-1(s2)
  400d74:	5062fffe 	beql	v1,v0,400d70 <advance+0x248>
  400d78:	26520001 	addiu	s2,s2,1
  400d7c:	08100342 	j	400d08 <advance+0x1e0>
  400d80:	24f10002 	addiu	s1,a3,2
  400d84:	38c60007 	xori	a2,a2,0x7
  400d88:	02009021 	move	s2,s0
  400d8c:	2cc80001 	sltiu	t0,a2,1
  400d90:	26520001 	addiu	s2,s2,1
  400d94:	9245ffff 	lbu	a1,-1(s2)
  400d98:	02202021 	move	a0,s1
  400d9c:	0c1002a4 	jal	400a90 <cclass>
  400da0:	01003021 	move	a2,t0
  400da4:	5440fffb 	bnezl	v0,400d94 <advance+0x26c>
  400da8:	26520001 	addiu	s2,s2,1
  400dac:	90e20001 	lbu	v0,1(a3)
  400db0:	08100342 	j	400d08 <advance+0x1e0>
  400db4:	02228821 	addu	s1,s1,v0
  400db8:	5440ffd4 	bnezl	v0,400d0c <advance+0x1e4>
  400dbc:	8f828e90 	lw	v0,-29040(gp)
  400dc0:	08100375 	j	400dd4 <advance+0x2ac>
  400dc4:	00001021 	move	v0,zero
  400dc8:	0c100108 	jal	400420 <error>
  400dcc:	27848e30 	addiu	a0,gp,-29136
  400dd0:	00001021 	move	v0,zero
  400dd4:	8fbf0034 	lw	ra,52(sp)
  400dd8:	8fb70030 	lw	s7,48(sp)
  400ddc:	8fb6002c 	lw	s6,44(sp)
  400de0:	8fb50028 	lw	s5,40(sp)
  400de4:	8fb40024 	lw	s4,36(sp)
  400de8:	8fb30020 	lw	s3,32(sp)
  400dec:	8fb2001c 	lw	s2,28(sp)
  400df0:	8fb10018 	lw	s1,24(sp)
  400df4:	8fb00014 	lw	s0,20(sp)
  400df8:	03e00008 	jr	ra
  400dfc:	27bd0038 	addiu	sp,sp,56

00400e00 <setdot>:
  400e00:	8f828e64 	lw	v0,-29084(gp)
  400e04:	27bdffe8 	addiu	sp,sp,-24
  400e08:	14400004 	bnez	v0,400e1c <setdot+0x1c>
  400e0c:	afbf0014 	sw	ra,20(sp)
  400e10:	8f828ec4 	lw	v0,-28988(gp)
  400e14:	af828e64 	sw	v0,-29084(gp)
  400e18:	af828ed4 	sw	v0,-28972(gp)
  400e1c:	8f828e64 	lw	v0,-29084(gp)
  400e20:	8f838ed4 	lw	v1,-28972(gp)
  400e24:	0043102b 	sltu	v0,v0,v1
  400e28:	10400003 	beqz	v0,400e38 <setdot+0x38>
  400e2c:	8fbf0014 	lw	ra,20(sp)
  400e30:	0c100108 	jal	400420 <error>
  400e34:	27848e30 	addiu	a0,gp,-29136
  400e38:	03e00008 	jr	ra
  400e3c:	27bd0018 	addiu	sp,sp,24

00400e40 <setall>:
  400e40:	8f828e64 	lw	v0,-29084(gp)
  400e44:	14400007 	bnez	v0,400e64 <setall+0x24>
  400e48:	8f838ebc 	lw	v1,-28996(gp)
  400e4c:	24620004 	addiu	v0,v1,4
  400e50:	af828ed4 	sw	v0,-28972(gp)
  400e54:	8f828ec0 	lw	v0,-28992(gp)
  400e58:	14430002 	bne	v0,v1,400e64 <setall+0x24>
  400e5c:	af828e64 	sw	v0,-29084(gp)
  400e60:	af828ed4 	sw	v0,-28972(gp)
  400e64:	08100380 	j	400e00 <setdot>
  400e68:	00000000 	nop

00400e6c <setnoaddr>:
  400e6c:	8f828e64 	lw	v0,-29084(gp)
  400e70:	27bdffe8 	addiu	sp,sp,-24
  400e74:	10400003 	beqz	v0,400e84 <setnoaddr+0x18>
  400e78:	afbf0014 	sw	ra,20(sp)
  400e7c:	0c100108 	jal	400420 <error>
  400e80:	27848e30 	addiu	a0,gp,-29136
  400e84:	8fbf0014 	lw	ra,20(sp)
  400e88:	03e00008 	jr	ra
  400e8c:	27bd0018 	addiu	sp,sp,24

00400e90 <nonzero>:
  400e90:	8f828ebc 	lw	v0,-28996(gp)
  400e94:	8f838ed4 	lw	v1,-28972(gp)
  400e98:	27bdffe8 	addiu	sp,sp,-24
  400e9c:	0043102b 	sltu	v0,v0,v1
  400ea0:	10400006 	beqz	v0,400ebc <nonzero+0x2c>
  400ea4:	afbf0014 	sw	ra,20(sp)
  400ea8:	8f828ec0 	lw	v0,-28992(gp)
  400eac:	8f838e64 	lw	v1,-29084(gp)
  400eb0:	0043102b 	sltu	v0,v0,v1
  400eb4:	10400003 	beqz	v0,400ec4 <nonzero+0x34>
  400eb8:	8fbf0014 	lw	ra,20(sp)
  400ebc:	0c100108 	jal	400420 <error>
  400ec0:	27848e30 	addiu	a0,gp,-29136
  400ec4:	03e00008 	jr	ra
  400ec8:	27bd0018 	addiu	sp,sp,24

00400ecc <newline>:
  400ecc:	27bdffe8 	addiu	sp,sp,-24
  400ed0:	afbf0014 	sw	ra,20(sp)
  400ed4:	0c1000ea 	jal	4003a8 <getchr>
  400ed8:	00000000 	nop
  400edc:	2403000a 	li	v1,10
  400ee0:	10430014 	beq	v0,v1,400f34 <newline+0x68>
  400ee4:	24030070 	li	v1,112
  400ee8:	10430005 	beq	v0,v1,400f00 <newline+0x34>
  400eec:	2403006c 	li	v1,108
  400ef0:	10430004 	beq	v0,v1,400f04 <newline+0x38>
  400ef4:	8f838ec8 	lw	v1,-28984(gp)
  400ef8:	0c100108 	jal	400420 <error>
  400efc:	27848e30 	addiu	a0,gp,-29136
  400f00:	8f838ec8 	lw	v1,-28984(gp)
  400f04:	24630001 	addiu	v1,v1,1
  400f08:	af838ec8 	sw	v1,-28984(gp)
  400f0c:	2403006c 	li	v1,108
  400f10:	14430003 	bne	v0,v1,400f20 <newline+0x54>
  400f14:	8f828eb0 	lw	v0,-29008(gp)
  400f18:	24420001 	addiu	v0,v0,1
  400f1c:	af828eb0 	sw	v0,-29008(gp)
  400f20:	0c1000ea 	jal	4003a8 <getchr>
  400f24:	00000000 	nop
  400f28:	2403000a 	li	v1,10
  400f2c:	1443fff2 	bne	v0,v1,400ef8 <newline+0x2c>
  400f30:	00000000 	nop
  400f34:	8fbf0014 	lw	ra,20(sp)
  400f38:	03e00008 	jr	ra
  400f3c:	27bd0018 	addiu	sp,sp,24

00400f40 <filename>:
  400f40:	27bdffd0 	addiu	sp,sp,-48
  400f44:	af808eb8 	sw	zero,-29000(gp)
  400f48:	afb10014 	sw	s1,20(sp)
  400f4c:	afbf002c 	sw	ra,44(sp)
  400f50:	afb60028 	sw	s6,40(sp)
  400f54:	afb50024 	sw	s5,36(sp)
  400f58:	afb40020 	sw	s4,32(sp)
  400f5c:	afb3001c 	sw	s3,28(sp)
  400f60:	afb20018 	sw	s2,24(sp)
  400f64:	afb00010 	sw	s0,16(sp)
  400f68:	0c1000ea 	jal	4003a8 <getchr>
  400f6c:	00808821 	move	s1,a0
  400f70:	2403000a 	li	v1,10
  400f74:	10430003 	beq	v0,v1,400f84 <filename+0x44>
  400f78:	2403ffff 	li	v1,-1
  400f7c:	1443000b 	bne	v0,v1,400fac <filename+0x6c>
  400f80:	24030020 	li	v1,32
  400f84:	3c030041 	lui	v1,0x41
  400f88:	9062fab4 	lbu	v0,-1356(v1)
  400f8c:	14400004 	bnez	v0,400fa0 <filename+0x60>
  400f90:	3c020041 	lui	v0,0x41
  400f94:	24020066 	li	v0,102
  400f98:	16220016 	bne	s1,v0,400ff4 <filename+0xb4>
  400f9c:	3c020041 	lui	v0,0x41
  400fa0:	2442fb3c 	addiu	v0,v0,-1220
  400fa4:	081003ff 	j	400ffc <filename+0xbc>
  400fa8:	2463fab4 	addiu	v1,v1,-1356
  400fac:	14430011 	bne	v0,v1,400ff4 <filename+0xb4>
  400fb0:	00000000 	nop
  400fb4:	24100020 	li	s0,32
  400fb8:	0c1000ea 	jal	4003a8 <getchr>
  400fbc:	00000000 	nop
  400fc0:	1050fffd 	beq	v0,s0,400fb8 <filename+0x78>
  400fc4:	2403000a 	li	v1,10
  400fc8:	1043000a 	beq	v0,v1,400ff4 <filename+0xb4>
  400fcc:	00000000 	nop
  400fd0:	3c100041 	lui	s0,0x41
  400fd4:	2610fb3c 	addiu	s0,s0,-1220
  400fd8:	02009821 	move	s3,s0
  400fdc:	24140020 	li	s4,32
  400fe0:	2415ffff 	li	s5,-1
  400fe4:	2416000a 	li	s6,10
  400fe8:	26120001 	addiu	s2,s0,1
  400fec:	1454000a 	bne	v0,s4,401018 <filename+0xd8>
  400ff0:	a2020000 	sb	v0,0(s0)
  400ff4:	0c100108 	jal	400420 <error>
  400ff8:	27848e30 	addiu	a0,gp,-29136
  400ffc:	24630001 	addiu	v1,v1,1
  401000:	9064ffff 	lbu	a0,-1(v1)
  401004:	24420001 	addiu	v0,v0,1
  401008:	1480fffc 	bnez	a0,400ffc <filename+0xbc>
  40100c:	a044ffff 	sb	a0,-1(v0)
  401010:	0810041d 	j	401074 <filename+0x134>
  401014:	8fbf002c 	lw	ra,44(sp)
  401018:	1055fff6 	beq	v0,s5,400ff4 <filename+0xb4>
  40101c:	00000000 	nop
  401020:	0c1000ea 	jal	4003a8 <getchr>
  401024:	00000000 	nop
  401028:	50560003 	beql	v0,s6,401038 <filename+0xf8>
  40102c:	3c020041 	lui	v0,0x41
  401030:	081003fa 	j	400fe8 <filename+0xa8>
  401034:	02408021 	move	s0,s2
  401038:	9043fab4 	lbu	v1,-1356(v0)
  40103c:	10600005 	beqz	v1,401054 <filename+0x114>
  401040:	a2000001 	sb	zero,1(s0)
  401044:	2631ff9b 	addiu	s1,s1,-101
  401048:	2e310002 	sltiu	s1,s1,2
  40104c:	12200009 	beqz	s1,401074 <filename+0x134>
  401050:	8fbf002c 	lw	ra,44(sp)
  401054:	02601821 	move	v1,s3
  401058:	2442fab4 	addiu	v0,v0,-1356
  40105c:	24630001 	addiu	v1,v1,1
  401060:	9064ffff 	lbu	a0,-1(v1)
  401064:	24420001 	addiu	v0,v0,1
  401068:	1480fffc 	bnez	a0,40105c <filename+0x11c>
  40106c:	a044ffff 	sb	a0,-1(v0)
  401070:	8fbf002c 	lw	ra,44(sp)
  401074:	8fb60028 	lw	s6,40(sp)
  401078:	8fb50024 	lw	s5,36(sp)
  40107c:	8fb40020 	lw	s4,32(sp)
  401080:	8fb3001c 	lw	s3,28(sp)
  401084:	8fb20018 	lw	s2,24(sp)
  401088:	8fb10014 	lw	s1,20(sp)
  40108c:	8fb00010 	lw	s0,16(sp)
  401090:	03e00008 	jr	ra
  401094:	27bd0030 	addiu	sp,sp,48

00401098 <putd>:
  401098:	8f848eb8 	lw	a0,-29000(gp)
  40109c:	2402000a 	li	v0,10
  4010a0:	27bdffe8 	addiu	sp,sp,-24
  4010a4:	0082001a 	div	zero,a0,v0
  4010a8:	004001f4 	teq	v0,zero,0x7
  4010ac:	afb00010 	sw	s0,16(sp)
  4010b0:	afbf0014 	sw	ra,20(sp)
  4010b4:	00001012 	mflo	v0
  4010b8:	af828eb8 	sw	v0,-29000(gp)
  4010bc:	10400003 	beqz	v0,4010cc <putd+0x34>
  4010c0:	00008010 	mfhi	s0
  4010c4:	0c100426 	jal	401098 <putd>
  4010c8:	00000000 	nop
  4010cc:	8fbf0014 	lw	ra,20(sp)
  4010d0:	26040030 	addiu	a0,s0,48
  4010d4:	8fb00010 	lw	s0,16(sp)
  4010d8:	0810009a 	j	400268 <putchr>
  4010dc:	27bd0018 	addiu	sp,sp,24

004010e0 <exfile>:
  4010e0:	8f848e94 	lw	a0,-29036(gp)
  4010e4:	27bdffe8 	addiu	sp,sp,-24
  4010e8:	afbf0014 	sw	ra,20(sp)
  4010ec:	0c102757 	jal	409d5c <close>
  4010f0:	00000000 	nop
  4010f4:	2402ffff 	li	v0,-1
  4010f8:	af828e94 	sw	v0,-29036(gp)
  4010fc:	8f828024 	lw	v0,-32732(gp)
  401100:	10400007 	beqz	v0,401120 <exfile+0x40>
  401104:	8fbf0014 	lw	ra,20(sp)
  401108:	0c100426 	jal	401098 <putd>
  40110c:	00000000 	nop
  401110:	8fbf0014 	lw	ra,20(sp)
  401114:	2404000a 	li	a0,10
  401118:	0810009a 	j	400268 <putchr>
  40111c:	27bd0018 	addiu	sp,sp,24
  401120:	03e00008 	jr	ra
  401124:	27bd0018 	addiu	sp,sp,24

00401128 <callunix>:
  401128:	27bdffd8 	addiu	sp,sp,-40
  40112c:	afbf0024 	sw	ra,36(sp)
  401130:	afb00018 	sw	s0,24(sp)
  401134:	afb20020 	sw	s2,32(sp)
  401138:	0c10039b 	jal	400e6c <setnoaddr>
  40113c:	afb1001c 	sw	s1,28(sp)
  401140:	0c100b2d 	jal	402cb4 <fork>
  401144:	00000000 	nop
  401148:	14400011 	bnez	v0,401190 <callunix+0x68>
  40114c:	00408021 	move	s0,v0
  401150:	8f858e88 	lw	a1,-29048(gp)
  401154:	0c102311 	jal	408c44 <signal>
  401158:	24040001 	li	a0,1
  40115c:	8f858edc 	lw	a1,-28964(gp)
  401160:	0c102311 	jal	408c44 <signal>
  401164:	24040003 	li	a0,3
  401168:	3c040041 	lui	a0,0x41
  40116c:	3c050041 	lui	a1,0x41
  401170:	3c060041 	lui	a2,0x41
  401174:	2484c6ac 	addiu	a0,a0,-14676
  401178:	24a5c6b4 	addiu	a1,a1,-14668
  40117c:	24c6c6b8 	addiu	a2,a2,-14664
  401180:	0c100b76 	jal	402dd8 <execl>
  401184:	00003821 	move	a3,zero
  401188:	0c102357 	jal	408d5c <exit>
  40118c:	24040040 	li	a0,64
  401190:	24040002 	li	a0,2
  401194:	0c102311 	jal	408c44 <signal>
  401198:	24050001 	li	a1,1
  40119c:	00408821 	move	s1,v0
  4011a0:	2412ffff 	li	s2,-1
  4011a4:	0c100b1f 	jal	402c7c <wait>
  4011a8:	27a40010 	addiu	a0,sp,16
  4011ac:	10500003 	beq	v0,s0,4011bc <callunix+0x94>
  4011b0:	02202821 	move	a1,s1
  4011b4:	1452fffb 	bne	v0,s2,4011a4 <callunix+0x7c>
  4011b8:	00000000 	nop
  4011bc:	0c102311 	jal	408c44 <signal>
  4011c0:	24040002 	li	a0,2
  4011c4:	3c040041 	lui	a0,0x41
  4011c8:	0c1000da 	jal	400368 <putstr>
  4011cc:	2484c6bc 	addiu	a0,a0,-14660
  4011d0:	8fbf0024 	lw	ra,36(sp)
  4011d4:	8fb20020 	lw	s2,32(sp)
  4011d8:	8fb1001c 	lw	s1,28(sp)
  4011dc:	8fb00018 	lw	s0,24(sp)
  4011e0:	03e00008 	jr	ra
  4011e4:	27bd0028 	addiu	sp,sp,40

004011e8 <rdelete>:
  4011e8:	24a50004 	addiu	a1,a1,4
  4011ec:	8f868ec0 	lw	a2,-28992(gp)
  4011f0:	00a41023 	subu	v0,a1,a0
  4011f4:	00021083 	sra	v0,v0,0x2
  4011f8:	00021080 	sll	v0,v0,0x2
  4011fc:	00c21023 	subu	v0,a2,v0
  401200:	af828ec0 	sw	v0,-28992(gp)
  401204:	00801821 	move	v1,a0
  401208:	24a50004 	addiu	a1,a1,4
  40120c:	8ca7fffc 	lw	a3,-4(a1)
  401210:	24630004 	addiu	v1,v1,4
  401214:	ac67fffc 	sw	a3,-4(v1)
  401218:	00c5382b 	sltu	a3,a2,a1
  40121c:	50e0fffb 	beqzl	a3,40120c <rdelete+0x24>
  401220:	24a50004 	addiu	a1,a1,4
  401224:	0082182b 	sltu	v1,a0,v0
  401228:	0043200a 	movz	a0,v0,v1
  40122c:	24020001 	li	v0,1
  401230:	af848ec4 	sw	a0,-28988(gp)
  401234:	03e00008 	jr	ra
  401238:	af828ed8 	sw	v0,-28968(gp)

0040123c <delete>:
  40123c:	27bdffe8 	addiu	sp,sp,-24
  401240:	afbf0014 	sw	ra,20(sp)
  401244:	0c100380 	jal	400e00 <setdot>
  401248:	00000000 	nop
  40124c:	0c1003b3 	jal	400ecc <newline>
  401250:	00000000 	nop
  401254:	0c1003a4 	jal	400e90 <nonzero>
  401258:	00000000 	nop
  40125c:	8fbf0014 	lw	ra,20(sp)
  401260:	8f848ed4 	lw	a0,-28972(gp)
  401264:	8f858e64 	lw	a1,-29084(gp)
  401268:	0810047a 	j	4011e8 <rdelete>
  40126c:	27bd0018 	addiu	sp,sp,24

00401270 <gdelete>:
  401270:	8f858ec0 	lw	a1,-28992(gp)
  401274:	8f828ebc 	lw	v0,-28996(gp)
  401278:	24420004 	addiu	v0,v0,4
  40127c:	8c430000 	lw	v1,0(v0)
  401280:	30630001 	andi	v1,v1,0x1
  401284:	14600005 	bnez	v1,40129c <gdelete+0x2c>
  401288:	0045182b 	sltu	v1,v0,a1
  40128c:	5460fffb 	bnezl	v1,40127c <gdelete+0xc>
  401290:	24420004 	addiu	v0,v0,4
  401294:	081004bc 	j	4012f0 <gdelete+0x80>
  401298:	00000000 	nop
  40129c:	8f848ec4 	lw	a0,-28988(gp)
  4012a0:	24430008 	addiu	v1,v0,8
  4012a4:	2466fffc 	addiu	a2,v1,-4
  4012a8:	00a6302b 	sltu	a2,a1,a2
  4012ac:	54c00009 	bnezl	a2,4012d4 <gdelete+0x64>
  4012b0:	2442fffc 	addiu	v0,v0,-4
  4012b4:	8c66fffc 	lw	a2,-4(v1)
  4012b8:	30c70001 	andi	a3,a2,0x1
  4012bc:	54e00003 	bnezl	a3,4012cc <gdelete+0x5c>
  4012c0:	00402021 	move	a0,v0
  4012c4:	ac460000 	sw	a2,0(v0)
  4012c8:	24420004 	addiu	v0,v0,4
  4012cc:	081004a9 	j	4012a4 <gdelete+0x34>
  4012d0:	24630004 	addiu	v1,v1,4
  4012d4:	af848ec4 	sw	a0,-28988(gp)
  4012d8:	0044202b 	sltu	a0,v0,a0
  4012dc:	10800002 	beqz	a0,4012e8 <gdelete+0x78>
  4012e0:	af828ec0 	sw	v0,-28992(gp)
  4012e4:	af828ec4 	sw	v0,-28988(gp)
  4012e8:	24020001 	li	v0,1
  4012ec:	af828ed8 	sw	v0,-28968(gp)
  4012f0:	03e00008 	jr	ra
  4012f4:	00000000 	nop

004012f8 <blkio>:
  4012f8:	27bdffd8 	addiu	sp,sp,-40
  4012fc:	afb00020 	sw	s0,32(sp)
  401300:	00c08021 	move	s0,a2
  401304:	00043240 	sll	a2,a0,0x9
  401308:	8f848020 	lw	a0,-32736(gp)
  40130c:	00063fc3 	sra	a3,a2,0x1f
  401310:	afa00010 	sw	zero,16(sp)
  401314:	afbf0024 	sw	ra,36(sp)
  401318:	0c10275f 	jal	409d7c <lseek>
  40131c:	afa50018 	sw	a1,24(sp)
  401320:	8f848020 	lw	a0,-32736(gp)
  401324:	8fa50018 	lw	a1,24(sp)
  401328:	0200f809 	jalr	s0
  40132c:	24060200 	li	a2,512
  401330:	24030200 	li	v1,512
  401334:	10430003 	beq	v0,v1,401344 <blkio+0x4c>
  401338:	8fbf0024 	lw	ra,36(sp)
  40133c:	0c100108 	jal	400420 <error>
  401340:	27848028 	addiu	a0,gp,-32728
  401344:	8fb00020 	lw	s0,32(sp)
  401348:	03e00008 	jr	ra
  40134c:	27bd0028 	addiu	sp,sp,40

00401350 <getblock>:
  401350:	27bdffe0 	addiu	sp,sp,-32
  401354:	240200ff 	li	v0,255
  401358:	afb10014 	sw	s1,20(sp)
  40135c:	afb00010 	sw	s0,16(sp)
  401360:	00048840 	sll	s1,a0,0x1
  401364:	7c903a00 	ext	s0,a0,0x8,0x8
  401368:	afbf001c 	sw	ra,28(sp)
  40136c:	afb20018 	sw	s2,24(sp)
  401370:	16020005 	bne	s0,v0,401388 <getblock+0x38>
  401374:	323101fc 	andi	s1,s1,0x1fc
  401378:	2402000a 	li	v0,10
  40137c:	27848028 	addiu	a0,gp,-32728
  401380:	0c100108 	jal	400420 <error>
  401384:	af828ecc 	sw	v0,-28980(gp)
  401388:	8f84801c 	lw	a0,-32740(gp)
  40138c:	24020200 	li	v0,512
  401390:	00511023 	subu	v0,v0,s1
  401394:	16040007 	bne	s0,a0,4013b4 <getblock+0x64>
  401398:	af828e70 	sw	v0,-29072(gp)
  40139c:	8f828ea8 	lw	v0,-29016(gp)
  4013a0:	00452825 	or	a1,v0,a1
  4013a4:	3c020041 	lui	v0,0x41
  4013a8:	af858ea8 	sw	a1,-29016(gp)
  4013ac:	0810050c 	j	401430 <getblock+0xe0>
  4013b0:	24420100 	addiu	v0,v0,256
  4013b4:	8f838018 	lw	v1,-32744(gp)
  4013b8:	16030003 	bne	s0,v1,4013c8 <getblock+0x78>
  4013bc:	3c020041 	lui	v0,0x41
  4013c0:	0810050c 	j	401430 <getblock+0xe0>
  4013c4:	2442fb7c 	addiu	v0,v0,-1156
  4013c8:	14a00010 	bnez	a1,40140c <getblock+0xbc>
  4013cc:	8f828ea8 	lw	v0,-29016(gp)
  4013d0:	10400005 	beqz	v0,4013e8 <getblock+0x98>
  4013d4:	3c120041 	lui	s2,0x41
  4013d8:	3c060041 	lui	a2,0x41
  4013dc:	26450100 	addiu	a1,s2,256
  4013e0:	0c1004be 	jal	4012f8 <blkio>
  4013e4:	24c697f4 	addiu	a2,a2,-26636
  4013e8:	3c060041 	lui	a2,0x41
  4013ec:	02002021 	move	a0,s0
  4013f0:	26450100 	addiu	a1,s2,256
  4013f4:	24c69814 	addiu	a2,a2,-26604
  4013f8:	af808ea8 	sw	zero,-29016(gp)
  4013fc:	0c1004be 	jal	4012f8 <blkio>
  401400:	af90801c 	sw	s0,-32740(gp)
  401404:	0810050c 	j	401430 <getblock+0xe0>
  401408:	26420100 	addiu	v0,s2,256
  40140c:	04600006 	bltz	v1,401428 <getblock+0xd8>
  401410:	3c120041 	lui	s2,0x41
  401414:	3c060041 	lui	a2,0x41
  401418:	00602021 	move	a0,v1
  40141c:	2645fb7c 	addiu	a1,s2,-1156
  401420:	0c1004be 	jal	4012f8 <blkio>
  401424:	24c697f4 	addiu	a2,a2,-26636
  401428:	af908018 	sw	s0,-32744(gp)
  40142c:	2642fb7c 	addiu	v0,s2,-1156
  401430:	8fbf001c 	lw	ra,28(sp)
  401434:	00511021 	addu	v0,v0,s1
  401438:	8fb20018 	lw	s2,24(sp)
  40143c:	8fb10014 	lw	s1,20(sp)
  401440:	8fb00010 	lw	s0,16(sp)
  401444:	03e00008 	jr	ra
  401448:	27bd0020 	addiu	sp,sp,32

0040144c <putline>:
  40144c:	27bdffd8 	addiu	sp,sp,-40
  401450:	afb00014 	sw	s0,20(sp)
  401454:	8f908ed0 	lw	s0,-28976(gp)
  401458:	afb10018 	sw	s1,24(sp)
  40145c:	24020001 	li	v0,1
  401460:	02002021 	move	a0,s0
  401464:	24050001 	li	a1,1
  401468:	2411ff00 	li	s1,-256
  40146c:	afb30020 	sw	s3,32(sp)
  401470:	afb2001c 	sw	s2,28(sp)
  401474:	afbf0024 	sw	ra,36(sp)
  401478:	af828ed8 	sw	v0,-28968(gp)
  40147c:	0c1004d4 	jal	401350 <getblock>
  401480:	02118824 	and	s1,s0,s1
  401484:	3c100041 	lui	s0,0x41
  401488:	8f838e70 	lw	v1,-29072(gp)
  40148c:	2610f838 	addiu	s0,s0,-1992
  401490:	02009021 	move	s2,s0
  401494:	2413000a 	li	s3,10
  401498:	26100001 	addiu	s0,s0,1
  40149c:	9204ffff 	lbu	a0,-1(s0)
  4014a0:	1080000f 	beqz	a0,4014e0 <putline+0x94>
  4014a4:	a0440000 	sb	a0,0(v0)
  4014a8:	14930004 	bne	a0,s3,4014bc <putline+0x70>
  4014ac:	2463ffff 	addiu	v1,v1,-1
  4014b0:	a0400000 	sb	zero,0(v0)
  4014b4:	08100538 	j	4014e0 <putline+0x94>
  4014b8:	af908eb4 	sw	s0,-29004(gp)
  4014bc:	50600003 	beqzl	v1,4014cc <putline+0x80>
  4014c0:	26310100 	addiu	s1,s1,256
  4014c4:	08100526 	j	401498 <putline+0x4c>
  4014c8:	24420001 	addiu	v0,v0,1
  4014cc:	02202021 	move	a0,s1
  4014d0:	0c1004d4 	jal	401350 <getblock>
  4014d4:	24050001 	li	a1,1
  4014d8:	08100526 	j	401498 <putline+0x4c>
  4014dc:	8f838e70 	lw	v1,-29072(gp)
  4014e0:	02121823 	subu	v1,s0,s2
  4014e4:	8f828ed0 	lw	v0,-28976(gp)
  4014e8:	24630003 	addiu	v1,v1,3
  4014ec:	8fbf0024 	lw	ra,36(sp)
  4014f0:	00031843 	sra	v1,v1,0x1
  4014f4:	30637ffe 	andi	v1,v1,0x7ffe
  4014f8:	00431821 	addu	v1,v0,v1
  4014fc:	8fb30020 	lw	s3,32(sp)
  401500:	8fb2001c 	lw	s2,28(sp)
  401504:	8fb10018 	lw	s1,24(sp)
  401508:	8fb00014 	lw	s0,20(sp)
  40150c:	af838ed0 	sw	v1,-28976(gp)
  401510:	03e00008 	jr	ra
  401514:	27bd0028 	addiu	sp,sp,40

00401518 <append>:
  401518:	27bdffe0 	addiu	sp,sp,-32
  40151c:	af858ec4 	sw	a1,-28988(gp)
  401520:	afb20018 	sw	s2,24(sp)
  401524:	afb10014 	sw	s1,20(sp)
  401528:	afbf001c 	sw	ra,28(sp)
  40152c:	afb00010 	sw	s0,16(sp)
  401530:	00809021 	move	s2,a0
  401534:	00008821 	move	s1,zero
  401538:	0240f809 	jalr	s2
  40153c:	00000000 	nop
  401540:	14400030 	bnez	v0,401604 <append+0xec>
  401544:	8f908ebc 	lw	s0,-28996(gp)
  401548:	8f828ec0 	lw	v0,-28992(gp)
  40154c:	8f858014 	lw	a1,-32748(gp)
  401550:	00501023 	subu	v0,v0,s0
  401554:	00021083 	sra	v0,v0,0x2
  401558:	24420001 	addiu	v0,v0,1
  40155c:	0045102b 	sltu	v0,v0,a1
  401560:	14400016 	bnez	v0,4015bc <append+0xa4>
  401564:	24a50200 	addiu	a1,a1,512
  401568:	af858014 	sw	a1,-32748(gp)
  40156c:	02002021 	move	a0,s0
  401570:	0c1027ff 	jal	409ffc <realloc>
  401574:	00052880 	sll	a1,a1,0x2
  401578:	14400007 	bnez	v0,401598 <append+0x80>
  40157c:	af828ebc 	sw	v0,-28996(gp)
  401580:	3c040041 	lui	a0,0x41
  401584:	2402000a 	li	v0,10
  401588:	2484c6c0 	addiu	a0,a0,-14656
  40158c:	af828ecc 	sw	v0,-28980(gp)
  401590:	0c100108 	jal	400420 <error>
  401594:	af908ebc 	sw	s0,-28996(gp)
  401598:	8f838ec4 	lw	v1,-28988(gp)
  40159c:	00501023 	subu	v0,v0,s0
  4015a0:	00021083 	sra	v0,v0,0x2
  4015a4:	00021080 	sll	v0,v0,0x2
  4015a8:	00621821 	addu	v1,v1,v0
  4015ac:	af838ec4 	sw	v1,-28988(gp)
  4015b0:	8f838ec0 	lw	v1,-28992(gp)
  4015b4:	00621021 	addu	v0,v1,v0
  4015b8:	af828ec0 	sw	v0,-28992(gp)
  4015bc:	0c100513 	jal	40144c <putline>
  4015c0:	26310001 	addiu	s1,s1,1
  4015c4:	8f858ec0 	lw	a1,-28992(gp)
  4015c8:	8f868ec4 	lw	a2,-28988(gp)
  4015cc:	24a30004 	addiu	v1,a1,4
  4015d0:	24c70004 	addiu	a3,a2,4
  4015d4:	af838ec0 	sw	v1,-28992(gp)
  4015d8:	24a50008 	addiu	a1,a1,8
  4015dc:	af878ec4 	sw	a3,-28988(gp)
  4015e0:	00e3202b 	sltu	a0,a3,v1
  4015e4:	10800005 	beqz	a0,4015fc <append+0xe4>
  4015e8:	2463fffc 	addiu	v1,v1,-4
  4015ec:	8c640000 	lw	a0,0(v1)
  4015f0:	24a5fffc 	addiu	a1,a1,-4
  4015f4:	08100578 	j	4015e0 <append+0xc8>
  4015f8:	aca40000 	sw	a0,0(a1)
  4015fc:	0810054e 	j	401538 <append+0x20>
  401600:	acc20004 	sw	v0,4(a2)
  401604:	8fbf001c 	lw	ra,28(sp)
  401608:	02201021 	move	v0,s1
  40160c:	8fb20018 	lw	s2,24(sp)
  401610:	8fb10014 	lw	s1,20(sp)
  401614:	8fb00010 	lw	s0,16(sp)
  401618:	03e00008 	jr	ra
  40161c:	27bd0020 	addiu	sp,sp,32

00401620 <getline>:
  401620:	27bdffe0 	addiu	sp,sp,-32
  401624:	00002821 	move	a1,zero
  401628:	afb10014 	sw	s1,20(sp)
  40162c:	afb00010 	sw	s0,16(sp)
  401630:	2411ff00 	li	s1,-256
  401634:	00808021 	move	s0,a0
  401638:	afb20018 	sw	s2,24(sp)
  40163c:	afbf001c 	sw	ra,28(sp)
  401640:	0c1004d4 	jal	401350 <getblock>
  401644:	02118824 	and	s1,s0,s1
  401648:	3c100041 	lui	s0,0x41
  40164c:	8f838e70 	lw	v1,-29072(gp)
  401650:	2610f838 	addiu	s0,s0,-1992
  401654:	02009021 	move	s2,s0
  401658:	90440000 	lbu	a0,0(v0)
  40165c:	26100001 	addiu	s0,s0,1
  401660:	1080000b 	beqz	a0,401690 <getline+0x70>
  401664:	a204ffff 	sb	a0,-1(s0)
  401668:	2463ffff 	addiu	v1,v1,-1
  40166c:	50600003 	beqzl	v1,40167c <getline+0x5c>
  401670:	26310100 	addiu	s1,s1,256
  401674:	08100596 	j	401658 <getline+0x38>
  401678:	24420001 	addiu	v0,v0,1
  40167c:	02202021 	move	a0,s1
  401680:	0c1004d4 	jal	401350 <getblock>
  401684:	00002821 	move	a1,zero
  401688:	08100596 	j	401658 <getline+0x38>
  40168c:	8f838e70 	lw	v1,-29072(gp)
  401690:	8fbf001c 	lw	ra,28(sp)
  401694:	02401021 	move	v0,s2
  401698:	8fb10014 	lw	s1,20(sp)
  40169c:	8fb20018 	lw	s2,24(sp)
  4016a0:	8fb00010 	lw	s0,16(sp)
  4016a4:	03e00008 	jr	ra
  4016a8:	27bd0020 	addiu	sp,sp,32

004016ac <putfile>:
  4016ac:	27bdffd0 	addiu	sp,sp,-48
  4016b0:	afb10014 	sw	s1,20(sp)
  4016b4:	afb00010 	sw	s0,16(sp)
  4016b8:	8f918ed4 	lw	s1,-28972(gp)
  4016bc:	3c100041 	lui	s0,0x41
  4016c0:	2610fd7c 	addiu	s0,s0,-644
  4016c4:	afb60028 	sw	s6,40(sp)
  4016c8:	afb50024 	sw	s5,36(sp)
  4016cc:	afb3001c 	sw	s3,28(sp)
  4016d0:	afb20018 	sw	s2,24(sp)
  4016d4:	afbf002c 	sw	ra,44(sp)
  4016d8:	afb40020 	sw	s4,32(sp)
  4016dc:	24120200 	li	s2,512
  4016e0:	02009821 	move	s3,s0
  4016e4:	0200a821 	move	s5,s0
  4016e8:	2416000a 	li	s6,10
  4016ec:	26310004 	addiu	s1,s1,4
  4016f0:	0c100588 	jal	401620 <getline>
  4016f4:	8e24fffc 	lw	a0,-4(s1)
  4016f8:	0040a021 	move	s4,v0
  4016fc:	2652ffff 	addiu	s2,s2,-1
  401700:	0641000e 	bgez	s2,40173c <putfile+0x90>
  401704:	02001821 	move	v1,s0
  401708:	8f848e94 	lw	a0,-29036(gp)
  40170c:	02138023 	subu	s0,s0,s3
  401710:	02a02821 	move	a1,s5
  401714:	0c1025fd 	jal	4097f4 <write>
  401718:	02003021 	move	a2,s0
  40171c:	10500006 	beq	v0,s0,401738 <putfile+0x8c>
  401720:	241201ff 	li	s2,511
  401724:	3c040041 	lui	a0,0x41
  401728:	0c1000da 	jal	400368 <putstr>
  40172c:	2484e000 	addiu	a0,a0,-8192
  401730:	0c100108 	jal	400420 <error>
  401734:	27848e30 	addiu	a0,gp,-29136
  401738:	02a01821 	move	v1,s5
  40173c:	8f828eb8 	lw	v0,-29000(gp)
  401740:	26940001 	addiu	s4,s4,1
  401744:	24700001 	addiu	s0,v1,1
  401748:	24420001 	addiu	v0,v0,1
  40174c:	af828eb8 	sw	v0,-29000(gp)
  401750:	9282ffff 	lbu	v0,-1(s4)
  401754:	1440ffe9 	bnez	v0,4016fc <putfile+0x50>
  401758:	a0620000 	sb	v0,0(v1)
  40175c:	8f828e64 	lw	v0,-29084(gp)
  401760:	0051102b 	sltu	v0,v0,s1
  401764:	1040ffe1 	beqz	v0,4016ec <putfile+0x40>
  401768:	a0760000 	sb	s6,0(v1)
  40176c:	8f848e94 	lw	a0,-29036(gp)
  401770:	02138023 	subu	s0,s0,s3
  401774:	02602821 	move	a1,s3
  401778:	0c1025fd 	jal	4097f4 <write>
  40177c:	02003021 	move	a2,s0
  401780:	1450ffe8 	bne	v0,s0,401724 <putfile+0x78>
  401784:	8fbf002c 	lw	ra,44(sp)
  401788:	8fb60028 	lw	s6,40(sp)
  40178c:	8fb50024 	lw	s5,36(sp)
  401790:	8fb40020 	lw	s4,32(sp)
  401794:	8fb3001c 	lw	s3,28(sp)
  401798:	8fb20018 	lw	s2,24(sp)
  40179c:	8fb10014 	lw	s1,20(sp)
  4017a0:	8fb00010 	lw	s0,16(sp)
  4017a4:	03e00008 	jr	ra
  4017a8:	27bd0030 	addiu	sp,sp,48

004017ac <onhup>:
  4017ac:	27bdffe8 	addiu	sp,sp,-24
  4017b0:	24040002 	li	a0,2
  4017b4:	afbf0014 	sw	ra,20(sp)
  4017b8:	0c102311 	jal	408c44 <signal>
  4017bc:	24050001 	li	a1,1
  4017c0:	24040001 	li	a0,1
  4017c4:	0c102311 	jal	408c44 <signal>
  4017c8:	24050001 	li	a1,1
  4017cc:	8f828ec0 	lw	v0,-28992(gp)
  4017d0:	8f838ebc 	lw	v1,-28996(gp)
  4017d4:	0062202b 	sltu	a0,v1,v0
  4017d8:	1080000b 	beqz	a0,401808 <onhup+0x5c>
  4017dc:	3c040041 	lui	a0,0x41
  4017e0:	24630004 	addiu	v1,v1,4
  4017e4:	2484c6c8 	addiu	a0,a0,-14648
  4017e8:	240501b6 	li	a1,438
  4017ec:	af838ed4 	sw	v1,-28972(gp)
  4017f0:	0c100ae9 	jal	402ba4 <creat>
  4017f4:	af828e64 	sw	v0,-29084(gp)
  4017f8:	18400003 	blez	v0,401808 <onhup+0x5c>
  4017fc:	af828e94 	sw	v0,-29036(gp)
  401800:	0c1005ab 	jal	4016ac <putfile>
  401804:	00000000 	nop
  401808:	0c100139 	jal	4004e4 <quit>
  40180c:	af808ed8 	sw	zero,-28968(gp)

00401810 <execute>:
  401810:	3c080041 	lui	t0,0x41
  401814:	3c070041 	lui	a3,0x41
  401818:	00001021 	move	v0,zero
  40181c:	25080300 	addiu	t0,t0,768
  401820:	24e7faa0 	addiu	a3,a3,-1376
  401824:	24030014 	li	v1,20
  401828:	01023021 	addu	a2,t0,v0
  40182c:	acc00000 	sw	zero,0(a2)
  401830:	00e23021 	addu	a2,a3,v0
  401834:	24420004 	addiu	v0,v0,4
  401838:	1443fffb 	bne	v0,v1,401828 <execute+0x18>
  40183c:	acc00000 	sw	zero,0(a2)
  401840:	27bdffe0 	addiu	sp,sp,-32
  401844:	afbf001c 	sw	ra,28(sp)
  401848:	afb20018 	sw	s2,24(sp)
  40184c:	afb10014 	sw	s1,20(sp)
  401850:	10800011 	beqz	a0,401898 <execute+0x88>
  401854:	afb00010 	sw	s0,16(sp)
  401858:	8f828e9c 	lw	v0,-29028(gp)
  40185c:	50400003 	beqzl	v0,40186c <execute+0x5c>
  401860:	3c030041 	lui	v1,0x41
  401864:	08100658 	j	401960 <execute+0x150>
  401868:	00001021 	move	v0,zero
  40186c:	3c020041 	lui	v0,0x41
  401870:	2463fd7c 	addiu	v1,v1,-644
  401874:	2442f838 	addiu	v0,v0,-1992
  401878:	24630001 	addiu	v1,v1,1
  40187c:	9064ffff 	lbu	a0,-1(v1)
  401880:	24420001 	addiu	v0,v0,1
  401884:	1480fffc 	bnez	a0,401878 <execute+0x68>
  401888:	a044ffff 	sb	a0,-1(v0)
  40188c:	8f908e84 	lw	s0,-29052(gp)
  401890:	0810062d 	j	4018b4 <execute+0xa4>
  401894:	af908e90 	sw	s0,-29040(gp)
  401898:	8f828ebc 	lw	v0,-28996(gp)
  40189c:	10a20030 	beq	a1,v0,401960 <execute+0x150>
  4018a0:	00001021 	move	v0,zero
  4018a4:	0c100588 	jal	401620 <getline>
  4018a8:	8ca40000 	lw	a0,0(a1)
  4018ac:	00408021 	move	s0,v0
  4018b0:	af808e90 	sw	zero,-29040(gp)
  4018b4:	8f838e9c 	lw	v1,-29028(gp)
  4018b8:	1060000a 	beqz	v1,4018e4 <execute+0xd4>
  4018bc:	3c050041 	lui	a1,0x41
  4018c0:	8fbf001c 	lw	ra,28(sp)
  4018c4:	8fb20018 	lw	s2,24(sp)
  4018c8:	8fb10014 	lw	s1,20(sp)
  4018cc:	af908e98 	sw	s0,-29032(gp)
  4018d0:	02002021 	move	a0,s0
  4018d4:	8fb00010 	lw	s0,16(sp)
  4018d8:	24a5ff7c 	addiu	a1,a1,-132
  4018dc:	081002ca 	j	400b28 <advance>
  4018e0:	27bd0020 	addiu	sp,sp,32
  4018e4:	90a4ff7c 	lbu	a0,-132(a1)
  4018e8:	24030002 	li	v1,2
  4018ec:	14830015 	bne	a0,v1,401944 <execute+0x134>
  4018f0:	24b1ff7c 	addiu	s1,a1,-132
  4018f4:	02201021 	move	v0,s1
  4018f8:	92310001 	lbu	s1,1(s1)
  4018fc:	00409021 	move	s2,v0
  401900:	92020000 	lbu	v0,0(s0)
  401904:	54510007 	bnel	v0,s1,401924 <execute+0x114>
  401908:	26100001 	addiu	s0,s0,1
  40190c:	02002021 	move	a0,s0
  401910:	0c1002ca 	jal	400b28 <advance>
  401914:	02402821 	move	a1,s2
  401918:	54400010 	bnezl	v0,40195c <execute+0x14c>
  40191c:	af908e98 	sw	s0,-29032(gp)
  401920:	26100001 	addiu	s0,s0,1
  401924:	9202ffff 	lbu	v0,-1(s0)
  401928:	5440fff6 	bnezl	v0,401904 <execute+0xf4>
  40192c:	92020000 	lbu	v0,0(s0)
  401930:	08100658 	j	401960 <execute+0x150>
  401934:	00001021 	move	v0,zero
  401938:	9202ffff 	lbu	v0,-1(s0)
  40193c:	10400008 	beqz	v0,401960 <execute+0x150>
  401940:	00001021 	move	v0,zero
  401944:	02002021 	move	a0,s0
  401948:	0c1002ca 	jal	400b28 <advance>
  40194c:	02202821 	move	a1,s1
  401950:	5040fff9 	beqzl	v0,401938 <execute+0x128>
  401954:	26100001 	addiu	s0,s0,1
  401958:	af908e98 	sw	s0,-29032(gp)
  40195c:	24020001 	li	v0,1
  401960:	8fbf001c 	lw	ra,28(sp)
  401964:	8fb20018 	lw	s2,24(sp)
  401968:	8fb10014 	lw	s1,20(sp)
  40196c:	8fb00010 	lw	s0,16(sp)
  401970:	03e00008 	jr	ra
  401974:	27bd0020 	addiu	sp,sp,32

00401978 <address>:
  401978:	27bdffc8 	addiu	sp,sp,-56
  40197c:	afb7002c 	sw	s7,44(sp)
  401980:	3c170041 	lui	s7,0x41
  401984:	afb60028 	sw	s6,40(sp)
  401988:	afb50024 	sw	s5,36(sp)
  40198c:	afb40020 	sw	s4,32(sp)
  401990:	afb20018 	sw	s2,24(sp)
  401994:	afb00010 	sw	s0,16(sp)
  401998:	afbf0034 	sw	ra,52(sp)
  40199c:	afbe0030 	sw	s8,48(sp)
  4019a0:	afb3001c 	sw	s3,28(sp)
  4019a4:	afb10014 	sw	s1,20(sp)
  4019a8:	00009021 	move	s2,zero
  4019ac:	00008021 	move	s0,zero
  4019b0:	24150001 	li	s5,1
  4019b4:	2416002b 	li	s6,43
  4019b8:	2414002f 	li	s4,47
  4019bc:	26f7fa38 	addiu	s7,s7,-1480
  4019c0:	0c1000ea 	jal	4003a8 <getchr>
  4019c4:	00000000 	nop
  4019c8:	00408821 	move	s1,v0
  4019cc:	2442ffd0 	addiu	v0,v0,-48
  4019d0:	2c42000a 	sltiu	v0,v0,10
  4019d4:	50400016 	beqzl	v0,401a30 <address+0xb8>
  4019d8:	0012982b 	sltu	s3,zero,s2
  4019dc:	00009821 	move	s3,zero
  4019e0:	241e000a 	li	s8,10
  4019e4:	727e1002 	mul	v0,s3,s8
  4019e8:	2631ffd0 	addiu	s1,s1,-48
  4019ec:	0c1000ea 	jal	4003a8 <getchr>
  4019f0:	00519821 	addu	s3,v0,s1
  4019f4:	00408821 	move	s1,v0
  4019f8:	2442ffd0 	addiu	v0,v0,-48
  4019fc:	2c42000a 	sltiu	v0,v0,10
  401a00:	1440fff9 	bnez	v0,4019e8 <address+0x70>
  401a04:	727e1002 	mul	v0,s3,s8
  401a08:	8f828ebc 	lw	v0,-28996(gp)
  401a0c:	2a520000 	slti	s2,s2,0
  401a10:	af918e74 	sw	s1,-29068(gp)
  401a14:	0050800a 	movz	s0,v0,s0
  401a18:	00131023 	negu	v0,s3
  401a1c:	0052980b 	movn	s3,v0,s2
  401a20:	00139880 	sll	s3,s3,0x2
  401a24:	02138021 	addu	s0,s0,s3
  401a28:	08100670 	j	4019c0 <address+0x48>
  401a2c:	00009021 	move	s2,zero
  401a30:	12360024 	beq	s1,s6,401ac4 <address+0x14c>
  401a34:	02b0980b 	movn	s3,s5,s0
  401a38:	2a22002c 	slti	v0,s1,44
  401a3c:	10400010 	beqz	v0,401a80 <address+0x108>
  401a40:	24020020 	li	v0,32
  401a44:	1222ffde 	beq	s1,v0,4019c0 <address+0x48>
  401a48:	2a220021 	slti	v0,s1,33
  401a4c:	10400006 	beqz	v0,401a68 <address+0xf0>
  401a50:	24020024 	li	v0,36
  401a54:	24020009 	li	v0,9
  401a58:	1222ffd9 	beq	s1,v0,4019c0 <address+0x48>
  401a5c:	00000000 	nop
  401a60:	081006e4 	j	401b90 <address+0x218>
  401a64:	af918e74 	sw	s1,-29068(gp)
  401a68:	12220033 	beq	s1,v0,401b38 <address+0x1c0>
  401a6c:	24020027 	li	v0,39
  401a70:	12220033 	beq	s1,v0,401b40 <address+0x1c8>
  401a74:	00000000 	nop
  401a78:	081006e4 	j	401b90 <address+0x218>
  401a7c:	af918e74 	sw	s1,-29068(gp)
  401a80:	12340016 	beq	s1,s4,401adc <address+0x164>
  401a84:	2a220030 	slti	v0,s1,48
  401a88:	10400007 	beqz	v0,401aa8 <address+0x130>
  401a8c:	2402002d 	li	v0,45
  401a90:	1222000e 	beq	s1,v0,401acc <address+0x154>
  401a94:	2402002e 	li	v0,46
  401a98:	5622003d 	bnel	s1,v0,401b90 <address+0x218>
  401a9c:	af918e74 	sw	s1,-29068(gp)
  401aa0:	081006f0 	j	401bc0 <address+0x248>
  401aa4:	8f908ec4 	lw	s0,-28988(gp)
  401aa8:	2402003f 	li	v0,63
  401aac:	1222000b 	beq	s1,v0,401adc <address+0x164>
  401ab0:	2402005e 	li	v0,94
  401ab4:	52220006 	beql	s1,v0,401ad0 <address+0x158>
  401ab8:	2652ffff 	addiu	s2,s2,-1
  401abc:	081006e4 	j	401b90 <address+0x218>
  401ac0:	af918e74 	sw	s1,-29068(gp)
  401ac4:	081006b4 	j	401ad0 <address+0x158>
  401ac8:	26520001 	addiu	s2,s2,1
  401acc:	2652ffff 	addiu	s2,s2,-1
  401ad0:	8f828ec4 	lw	v0,-28988(gp)
  401ad4:	08100670 	j	4019c0 <address+0x48>
  401ad8:	0050800a 	movz	s0,v0,s0
  401adc:	0c1001d0 	jal	400740 <compile>
  401ae0:	02202021 	move	a0,s1
  401ae4:	8f908ec4 	lw	s0,-28988(gp)
  401ae8:	56340006 	bnel	s1,s4,401b04 <address+0x18c>
  401aec:	8f838ebc 	lw	v1,-28996(gp)
  401af0:	8f838ec0 	lw	v1,-28992(gp)
  401af4:	26100004 	addiu	s0,s0,4
  401af8:	8f828ebc 	lw	v0,-28996(gp)
  401afc:	081006c4 	j	401b10 <address+0x198>
  401b00:	0070182b 	sltu	v1,v1,s0
  401b04:	8f828ec0 	lw	v0,-28992(gp)
  401b08:	2610fffc 	addiu	s0,s0,-4
  401b0c:	0203182b 	sltu	v1,s0,v1
  401b10:	0043800b 	movn	s0,v0,v1
  401b14:	00002021 	move	a0,zero
  401b18:	0c100604 	jal	401810 <execute>
  401b1c:	02002821 	move	a1,s0
  401b20:	14400027 	bnez	v0,401bc0 <address+0x248>
  401b24:	8f828ec4 	lw	v0,-28988(gp)
  401b28:	1602ffef 	bne	s0,v0,401ae8 <address+0x170>
  401b2c:	00000000 	nop
  401b30:	0c100108 	jal	400420 <error>
  401b34:	27848e30 	addiu	a0,gp,-29136
  401b38:	081006f0 	j	401bc0 <address+0x248>
  401b3c:	8f908ec0 	lw	s0,-28992(gp)
  401b40:	0c1000ea 	jal	4003a8 <getchr>
  401b44:	00000000 	nop
  401b48:	2442ff9f 	addiu	v0,v0,-97
  401b4c:	2c43001a 	sltiu	v1,v0,26
  401b50:	1060fff7 	beqz	v1,401b30 <address+0x1b8>
  401b54:	8f848ec0 	lw	a0,-28992(gp)
  401b58:	8f908ebc 	lw	s0,-28996(gp)
  401b5c:	00021080 	sll	v0,v0,0x2
  401b60:	00571021 	addu	v0,v0,s7
  401b64:	2405fffe 	li	a1,-2
  401b68:	0090182b 	sltu	v1,a0,s0
  401b6c:	14600014 	bnez	v1,401bc0 <address+0x248>
  401b70:	00000000 	nop
  401b74:	8e030000 	lw	v1,0(s0)
  401b78:	8c460000 	lw	a2,0(v0)
  401b7c:	00a31824 	and	v1,a1,v1
  401b80:	10c3000f 	beq	a2,v1,401bc0 <address+0x248>
  401b84:	00000000 	nop
  401b88:	081006da 	j	401b68 <address+0x1f0>
  401b8c:	26100004 	addiu	s0,s0,4
  401b90:	1200000f 	beqz	s0,401bd0 <address+0x258>
  401b94:	8f828ebc 	lw	v0,-28996(gp)
  401b98:	00129080 	sll	s2,s2,0x2
  401b9c:	02128021 	addu	s0,s0,s2
  401ba0:	0202102b 	sltu	v0,s0,v0
  401ba4:	1440ffe2 	bnez	v0,401b30 <address+0x1b8>
  401ba8:	8f828ec0 	lw	v0,-28992(gp)
  401bac:	0050102b 	sltu	v0,v0,s0
  401bb0:	1440ffdf 	bnez	v0,401b30 <address+0x1b8>
  401bb4:	02001021 	move	v0,s0
  401bb8:	081006f6 	j	401bd8 <address+0x260>
  401bbc:	8fbf0034 	lw	ra,52(sp)
  401bc0:	1260ff7f 	beqz	s3,4019c0 <address+0x48>
  401bc4:	00000000 	nop
  401bc8:	081006cc 	j	401b30 <address+0x1b8>
  401bcc:	00000000 	nop
  401bd0:	00001021 	move	v0,zero
  401bd4:	8fbf0034 	lw	ra,52(sp)
  401bd8:	8fbe0030 	lw	s8,48(sp)
  401bdc:	8fb7002c 	lw	s7,44(sp)
  401be0:	8fb60028 	lw	s6,40(sp)
  401be4:	8fb50024 	lw	s5,36(sp)
  401be8:	8fb40020 	lw	s4,32(sp)
  401bec:	8fb3001c 	lw	s3,28(sp)
  401bf0:	8fb20018 	lw	s2,24(sp)
  401bf4:	8fb10014 	lw	s1,20(sp)
  401bf8:	8fb00010 	lw	s0,16(sp)
  401bfc:	03e00008 	jr	ra
  401c00:	27bd0038 	addiu	sp,sp,56

00401c04 <getcopy>:
  401c04:	8f828ed4 	lw	v0,-28972(gp)
  401c08:	8f838e64 	lw	v1,-29084(gp)
  401c0c:	27bdffe8 	addiu	sp,sp,-24
  401c10:	0062182b 	sltu	v1,v1,v0
  401c14:	14600007 	bnez	v1,401c34 <getcopy+0x30>
  401c18:	afbf0014 	sw	ra,20(sp)
  401c1c:	8c440000 	lw	a0,0(v0)
  401c20:	24430004 	addiu	v1,v0,4
  401c24:	0c100588 	jal	401620 <getline>
  401c28:	af838ed4 	sw	v1,-28972(gp)
  401c2c:	0810070e 	j	401c38 <getcopy+0x34>
  401c30:	00001021 	move	v0,zero
  401c34:	2402ffff 	li	v0,-1
  401c38:	8fbf0014 	lw	ra,20(sp)
  401c3c:	03e00008 	jr	ra
  401c40:	27bd0018 	addiu	sp,sp,24

00401c44 <init>:
  401c44:	8f848020 	lw	a0,-32736(gp)
  401c48:	27bdffe8 	addiu	sp,sp,-24
  401c4c:	afbf0014 	sw	ra,20(sp)
  401c50:	0c102757 	jal	409d5c <close>
  401c54:	00000000 	nop
  401c58:	24020002 	li	v0,2
  401c5c:	af828ed0 	sw	v0,-28976(gp)
  401c60:	3c040041 	lui	a0,0x41
  401c64:	3c020041 	lui	v0,0x41
  401c68:	2442fa38 	addiu	v0,v0,-1480
  401c6c:	2484faa0 	addiu	a0,a0,-1376
  401c70:	24420004 	addiu	v0,v0,4
  401c74:	0044182b 	sltu	v1,v0,a0
  401c78:	1460fffd 	bnez	v1,401c70 <init+0x2c>
  401c7c:	ac40fffc 	sw	zero,-4(v0)
  401c80:	8f848eac 	lw	a0,-29012(gp)
  401c84:	2402ffff 	li	v0,-1
  401c88:	24050180 	li	a1,384
  401c8c:	af808e60 	sw	zero,-29088(gp)
  401c90:	af808ea0 	sw	zero,-29024(gp)
  401c94:	af82801c 	sw	v0,-32740(gp)
  401c98:	af828018 	sw	v0,-32744(gp)
  401c9c:	0c100ae9 	jal	402ba4 <creat>
  401ca0:	af808ea8 	sw	zero,-29016(gp)
  401ca4:	0c102757 	jal	409d5c <close>
  401ca8:	00402021 	move	a0,v0
  401cac:	8f848eac 	lw	a0,-29012(gp)
  401cb0:	0c10262a 	jal	4098a8 <open>
  401cb4:	24050002 	li	a1,2
  401cb8:	af828020 	sw	v0,-32736(gp)
  401cbc:	8fbf0014 	lw	ra,20(sp)
  401cc0:	8f828ebc 	lw	v0,-28996(gp)
  401cc4:	27bd0018 	addiu	sp,sp,24
  401cc8:	af828ec0 	sw	v0,-28992(gp)
  401ccc:	03e00008 	jr	ra
  401cd0:	af828ec4 	sw	v0,-28988(gp)

00401cd4 <join>:
  401cd4:	27bdffd8 	addiu	sp,sp,-40
  401cd8:	afb10018 	sw	s1,24(sp)
  401cdc:	afb00014 	sw	s0,20(sp)
  401ce0:	8f918ed4 	lw	s1,-28972(gp)
  401ce4:	3c100041 	lui	s0,0x41
  401ce8:	afb30020 	sw	s3,32(sp)
  401cec:	2610fd7c 	addiu	s0,s0,-644
  401cf0:	3c130041 	lui	s3,0x41
  401cf4:	afb2001c 	sw	s2,28(sp)
  401cf8:	afbf0024 	sw	ra,36(sp)
  401cfc:	02009021 	move	s2,s0
  401d00:	2673ff7a 	addiu	s3,s3,-134
  401d04:	8f828e64 	lw	v0,-29084(gp)
  401d08:	0051102b 	sltu	v0,v0,s1
  401d0c:	14400010 	bnez	v0,401d50 <join+0x7c>
  401d10:	3c020041 	lui	v0,0x41
  401d14:	0c100588 	jal	401620 <getline>
  401d18:	8e240000 	lw	a0,0(s1)
  401d1c:	24420001 	addiu	v0,v0,1
  401d20:	9044ffff 	lbu	a0,-1(v0)
  401d24:	10800008 	beqz	a0,401d48 <join+0x74>
  401d28:	a2040000 	sb	a0,0(s0)
  401d2c:	26100001 	addiu	s0,s0,1
  401d30:	2603ffff 	addiu	v1,s0,-1
  401d34:	0073182b 	sltu	v1,v1,s3
  401d38:	1460fff9 	bnez	v1,401d20 <join+0x4c>
  401d3c:	24420001 	addiu	v0,v0,1
  401d40:	0c100108 	jal	400420 <error>
  401d44:	27848e30 	addiu	a0,gp,-29136
  401d48:	08100741 	j	401d04 <join+0x30>
  401d4c:	26310004 	addiu	s1,s1,4
  401d50:	2442f838 	addiu	v0,v0,-1992
  401d54:	02401821 	move	v1,s2
  401d58:	24630001 	addiu	v1,v1,1
  401d5c:	9064ffff 	lbu	a0,-1(v1)
  401d60:	24420001 	addiu	v0,v0,1
  401d64:	1480fffc 	bnez	a0,401d58 <join+0x84>
  401d68:	a044ffff 	sb	a0,-1(v0)
  401d6c:	0c100513 	jal	40144c <putline>
  401d70:	8f908ed4 	lw	s0,-28972(gp)
  401d74:	8f848ed4 	lw	a0,-28972(gp)
  401d78:	8f858e64 	lw	a1,-29084(gp)
  401d7c:	ae020000 	sw	v0,0(s0)
  401d80:	0085102b 	sltu	v0,a0,a1
  401d84:	10400004 	beqz	v0,401d98 <join+0xc4>
  401d88:	8fbf0024 	lw	ra,36(sp)
  401d8c:	0c10047a 	jal	4011e8 <rdelete>
  401d90:	24840004 	addiu	a0,a0,4
  401d94:	8fbf0024 	lw	ra,36(sp)
  401d98:	8f828ed4 	lw	v0,-28972(gp)
  401d9c:	8fb30020 	lw	s3,32(sp)
  401da0:	8fb2001c 	lw	s2,28(sp)
  401da4:	8fb10018 	lw	s1,24(sp)
  401da8:	8fb00014 	lw	s0,20(sp)
  401dac:	af828ec4 	sw	v0,-28988(gp)
  401db0:	03e00008 	jr	ra
  401db4:	27bd0028 	addiu	sp,sp,40

00401db8 <compsub>:
  401db8:	27bdffd8 	addiu	sp,sp,-40
  401dbc:	afb10014 	sw	s1,20(sp)
  401dc0:	afbf0024 	sw	ra,36(sp)
  401dc4:	afb40020 	sw	s4,32(sp)
  401dc8:	afb3001c 	sw	s3,28(sp)
  401dcc:	afb20018 	sw	s2,24(sp)
  401dd0:	0c1000ea 	jal	4003a8 <getchr>
  401dd4:	afb00010 	sw	s0,16(sp)
  401dd8:	00408821 	move	s1,v0
  401ddc:	2402000a 	li	v0,10
  401de0:	12220003 	beq	s1,v0,401df0 <compsub+0x38>
  401de4:	24020020 	li	v0,32
  401de8:	16220003 	bne	s1,v0,401df8 <compsub+0x40>
  401dec:	02202021 	move	a0,s1
  401df0:	0c100108 	jal	400420 <error>
  401df4:	27848e30 	addiu	a0,gp,-29136
  401df8:	3c100041 	lui	s0,0x41
  401dfc:	0c1001d0 	jal	400740 <compile>
  401e00:	3c120041 	lui	s2,0x41
  401e04:	26100000 	addiu	s0,s0,0
  401e08:	2413005c 	li	s3,92
  401e0c:	2414000a 	li	s4,10
  401e10:	26520100 	addiu	s2,s2,256
  401e14:	0c1000ea 	jal	4003a8 <getchr>
  401e18:	00000000 	nop
  401e1c:	14530004 	bne	v0,s3,401e30 <compsub+0x78>
  401e20:	00000000 	nop
  401e24:	0c1000ea 	jal	4003a8 <getchr>
  401e28:	00000000 	nop
  401e2c:	34420080 	ori	v0,v0,0x80
  401e30:	14540004 	bne	v0,s4,401e44 <compsub+0x8c>
  401e34:	00000000 	nop
  401e38:	8f828e8c 	lw	v0,-29044(gp)
  401e3c:	1040ffec 	beqz	v0,401df0 <compsub+0x38>
  401e40:	2402008a 	li	v0,138
  401e44:	10510006 	beq	v0,s1,401e60 <compsub+0xa8>
  401e48:	00000000 	nop
  401e4c:	26100001 	addiu	s0,s0,1
  401e50:	1612fff0 	bne	s0,s2,401e14 <compsub+0x5c>
  401e54:	a202ffff 	sb	v0,-1(s0)
  401e58:	0810077c 	j	401df0 <compsub+0x38>
  401e5c:	00000000 	nop
  401e60:	0c1000ea 	jal	4003a8 <getchr>
  401e64:	a2000000 	sb	zero,0(s0)
  401e68:	24030067 	li	v1,103
  401e6c:	14430005 	bne	v0,v1,401e84 <compsub+0xcc>
  401e70:	af828e74 	sw	v0,-29068(gp)
  401e74:	0c1003b3 	jal	400ecc <newline>
  401e78:	af808e74 	sw	zero,-29068(gp)
  401e7c:	081007a4 	j	401e90 <compsub+0xd8>
  401e80:	24020001 	li	v0,1
  401e84:	0c1003b3 	jal	400ecc <newline>
  401e88:	00000000 	nop
  401e8c:	00001021 	move	v0,zero
  401e90:	8fbf0024 	lw	ra,36(sp)
  401e94:	8fb40020 	lw	s4,32(sp)
  401e98:	8fb3001c 	lw	s3,28(sp)
  401e9c:	8fb20018 	lw	s2,24(sp)
  401ea0:	8fb10014 	lw	s1,20(sp)
  401ea4:	8fb00010 	lw	s0,16(sp)
  401ea8:	03e00008 	jr	ra
  401eac:	27bd0028 	addiu	sp,sp,40

00401eb0 <place>:
  401eb0:	00801021 	move	v0,a0
  401eb4:	3c040041 	lui	a0,0x41
  401eb8:	2484ff7c 	addiu	a0,a0,-132
  401ebc:	00a6182b 	sltu	v1,a1,a2
  401ec0:	1060000b 	beqz	v1,401ef0 <place+0x40>
  401ec4:	24a50001 	addiu	a1,a1,1
  401ec8:	90a3ffff 	lbu	v1,-1(a1)
  401ecc:	24420001 	addiu	v0,v0,1
  401ed0:	a043ffff 	sb	v1,-1(v0)
  401ed4:	0044182b 	sltu	v1,v0,a0
  401ed8:	1460fff9 	bnez	v1,401ec0 <place+0x10>
  401edc:	00a6182b 	sltu	v1,a1,a2
  401ee0:	27bdffe8 	addiu	sp,sp,-24
  401ee4:	afbf0014 	sw	ra,20(sp)
  401ee8:	0c100108 	jal	400420 <error>
  401eec:	27848e30 	addiu	a0,gp,-29136
  401ef0:	03e00008 	jr	ra
  401ef4:	00000000 	nop

00401ef8 <dosub>:
  401ef8:	3c040041 	lui	a0,0x41
  401efc:	3c020041 	lui	v0,0x41
  401f00:	8f858e98 	lw	a1,-29032(gp)
  401f04:	27bdffd0 	addiu	sp,sp,-48
  401f08:	2484fd7c 	addiu	a0,a0,-644
  401f0c:	2442f838 	addiu	v0,v0,-1992
  401f10:	afb10018 	sw	s1,24(sp)
  401f14:	afb00014 	sw	s0,20(sp)
  401f18:	afbf002c 	sw	ra,44(sp)
  401f1c:	afb50028 	sw	s5,40(sp)
  401f20:	afb40024 	sw	s4,36(sp)
  401f24:	afb30020 	sw	s3,32(sp)
  401f28:	afb2001c 	sw	s2,28(sp)
  401f2c:	00808821 	move	s1,a0
  401f30:	00408021 	move	s0,v0
  401f34:	0045182b 	sltu	v1,v0,a1
  401f38:	10600005 	beqz	v1,401f50 <dosub+0x58>
  401f3c:	24420001 	addiu	v0,v0,1
  401f40:	9043ffff 	lbu	v1,-1(v0)
  401f44:	24840001 	addiu	a0,a0,1
  401f48:	081007cd 	j	401f34 <dosub+0x3c>
  401f4c:	a083ffff 	sb	v1,-1(a0)
  401f50:	3c150041 	lui	s5,0x41
  401f54:	3c120041 	lui	s2,0x41
  401f58:	3c130041 	lui	s3,0x41
  401f5c:	26b50000 	addiu	s5,s5,0
  401f60:	2652ff7c 	addiu	s2,s2,-132
  401f64:	26730300 	addiu	s3,s3,768
  401f68:	3c140041 	lui	s4,0x41
  401f6c:	26b50001 	addiu	s5,s5,1
  401f70:	92a2ffff 	lbu	v0,-1(s5)
  401f74:	10400024 	beqz	v0,402008 <dosub+0x110>
  401f78:	00401821 	move	v1,v0
  401f7c:	24050026 	li	a1,38
  401f80:	54450004 	bnel	v0,a1,401f94 <dosub+0x9c>
  401f84:	30450080 	andi	a1,v0,0x80
  401f88:	8f858e98 	lw	a1,-29032(gp)
  401f8c:	081007f7 	j	401fdc <dosub+0xe4>
  401f90:	8f868e84 	lw	a2,-29052(gp)
  401f94:	10a00015 	beqz	a1,401fec <dosub+0xf4>
  401f98:	3063007f 	andi	v1,v1,0x7f
  401f9c:	3043007f 	andi	v1,v0,0x7f
  401fa0:	28620031 	slti	v0,v1,49
  401fa4:	54400011 	bnezl	v0,401fec <dosub+0xf4>
  401fa8:	3063007f 	andi	v1,v1,0x7f
  401fac:	8f828e7c 	lw	v0,-29060(gp)
  401fb0:	24420030 	addiu	v0,v0,48
  401fb4:	0043102a 	slt	v0,v0,v1
  401fb8:	5440000c 	bnezl	v0,401fec <dosub+0xf4>
  401fbc:	3063007f 	andi	v1,v1,0x7f
  401fc0:	2463ffcf 	addiu	v1,v1,-49
  401fc4:	00031880 	sll	v1,v1,0x2
  401fc8:	2685faa0 	addiu	a1,s4,-1376
  401fcc:	00731021 	addu	v0,v1,s3
  401fd0:	00651821 	addu	v1,v1,a1
  401fd4:	8c660000 	lw	a2,0(v1)
  401fd8:	8c450000 	lw	a1,0(v0)
  401fdc:	0c1007ac 	jal	401eb0 <place>
  401fe0:	00000000 	nop
  401fe4:	081007db 	j	401f6c <dosub+0x74>
  401fe8:	00402021 	move	a0,v0
  401fec:	24820001 	addiu	v0,a0,1
  401ff0:	a0830000 	sb	v1,0(a0)
  401ff4:	0052182b 	sltu	v1,v0,s2
  401ff8:	5460ffdc 	bnezl	v1,401f6c <dosub+0x74>
  401ffc:	00402021 	move	a0,v0
  402000:	0c100108 	jal	400420 <error>
  402004:	27848e30 	addiu	a0,gp,-29136
  402008:	00911823 	subu	v1,a0,s1
  40200c:	02031821 	addu	v1,s0,v1
  402010:	3c050041 	lui	a1,0x41
  402014:	8f828e84 	lw	v0,-29052(gp)
  402018:	24a5ff7c 	addiu	a1,a1,-132
  40201c:	af838e84 	sw	v1,-29052(gp)
  402020:	24420001 	addiu	v0,v0,1
  402024:	9043ffff 	lbu	v1,-1(v0)
  402028:	24840001 	addiu	a0,a0,1
  40202c:	10600006 	beqz	v1,402048 <dosub+0x150>
  402030:	a083ffff 	sb	v1,-1(a0)
  402034:	0085182b 	sltu	v1,a0,a1
  402038:	1460fffa 	bnez	v1,402024 <dosub+0x12c>
  40203c:	24420001 	addiu	v0,v0,1
  402040:	08100800 	j	402000 <dosub+0x108>
  402044:	00000000 	nop
  402048:	26310001 	addiu	s1,s1,1
  40204c:	9222ffff 	lbu	v0,-1(s1)
  402050:	26100001 	addiu	s0,s0,1
  402054:	1440fffc 	bnez	v0,402048 <dosub+0x150>
  402058:	a202ffff 	sb	v0,-1(s0)
  40205c:	8fbf002c 	lw	ra,44(sp)
  402060:	8fb50028 	lw	s5,40(sp)
  402064:	8fb40024 	lw	s4,36(sp)
  402068:	8fb30020 	lw	s3,32(sp)
  40206c:	8fb2001c 	lw	s2,28(sp)
  402070:	8fb10018 	lw	s1,24(sp)
  402074:	8fb00014 	lw	s0,20(sp)
  402078:	03e00008 	jr	ra
  40207c:	27bd0030 	addiu	sp,sp,48

00402080 <substitute>:
  402080:	27bdffd0 	addiu	sp,sp,-48
  402084:	afb50024 	sw	s5,36(sp)
  402088:	afb40020 	sw	s4,32(sp)
  40208c:	afb3001c 	sw	s3,28(sp)
  402090:	afb20018 	sw	s2,24(sp)
  402094:	afb10014 	sw	s1,20(sp)
  402098:	afb00010 	sw	s0,16(sp)
  40209c:	afbf002c 	sw	ra,44(sp)
  4020a0:	afb60028 	sw	s6,40(sp)
  4020a4:	0c10076e 	jal	401db8 <compsub>
  4020a8:	00808821 	move	s1,a0
  4020ac:	8f908ed4 	lw	s0,-28972(gp)
  4020b0:	3c140041 	lui	s4,0x41
  4020b4:	3c150040 	lui	s5,0x40
  4020b8:	00409021 	move	s2,v0
  4020bc:	3c130041 	lui	s3,0x41
  4020c0:	2694faa0 	addiu	s4,s4,-1376
  4020c4:	26b50230 	addiu	s5,s5,560
  4020c8:	8f828e64 	lw	v0,-29084(gp)
  4020cc:	0050102b 	sltu	v0,v0,s0
  4020d0:	1440003c 	bnez	v0,4021c4 <substitute+0x144>
  4020d4:	00002021 	move	a0,zero
  4020d8:	0c100604 	jal	401810 <execute>
  4020dc:	02002821 	move	a1,s0
  4020e0:	5040fff9 	beqzl	v0,4020c8 <substitute+0x48>
  4020e4:	26100004 	addiu	s0,s0,4
  4020e8:	0c1007be 	jal	401ef8 <dosub>
  4020ec:	36310001 	ori	s1,s1,0x1
  4020f0:	16400014 	bnez	s2,402144 <substitute+0xc4>
  4020f4:	8f828e84 	lw	v0,-29052(gp)
  4020f8:	0c100513 	jal	40144c <putline>
  4020fc:	00000000 	nop
  402100:	af828e60 	sw	v0,-29088(gp)
  402104:	8e030000 	lw	v1,0(s0)
  402108:	2402fffe 	li	v0,-2
  40210c:	00621024 	and	v0,v1,v0
  402110:	ae020000 	sw	v0,0(s0)
  402114:	8f828ea0 	lw	v0,-29024(gp)
  402118:	1440000f 	bnez	v0,402158 <substitute+0xd8>
  40211c:	8f858e60 	lw	a1,-29088(gp)
  402120:	08100860 	j	402180 <substitute+0x100>
  402124:	8e020000 	lw	v0,0(s0)
  402128:	0c100604 	jal	401810 <execute>
  40212c:	00002821 	move	a1,zero
  402130:	1040fff1 	beqz	v0,4020f8 <substitute+0x78>
  402134:	00000000 	nop
  402138:	0c1007be 	jal	401ef8 <dosub>
  40213c:	00000000 	nop
  402140:	8f828e84 	lw	v0,-29052(gp)
  402144:	90420000 	lbu	v0,0(v0)
  402148:	1440fff7 	bnez	v0,402128 <substitute+0xa8>
  40214c:	24040001 	li	a0,1
  402150:	0810083e 	j	4020f8 <substitute+0x78>
  402154:	00000000 	nop
  402158:	2663fa38 	addiu	v1,s3,-1480
  40215c:	8c640000 	lw	a0,0(v1)
  402160:	8e020000 	lw	v0,0(s0)
  402164:	50820001 	beql	a0,v0,40216c <substitute+0xec>
  402168:	ac650000 	sw	a1,0(v1)
  40216c:	24630004 	addiu	v1,v1,4
  402170:	0074102b 	sltu	v0,v1,s4
  402174:	5440fffa 	bnezl	v0,402160 <substitute+0xe0>
  402178:	8c640000 	lw	a0,0(v1)
  40217c:	8e020000 	lw	v0,0(s0)
  402180:	02a02021 	move	a0,s5
  402184:	8f968ebc 	lw	s6,-28996(gp)
  402188:	af828e68 	sw	v0,-29080(gp)
  40218c:	ae050000 	sw	a1,0(s0)
  402190:	0c100546 	jal	401518 <append>
  402194:	02002821 	move	a1,s0
  402198:	8f838ebc 	lw	v1,-28996(gp)
  40219c:	00761823 	subu	v1,v1,s6
  4021a0:	00031883 	sra	v1,v1,0x2
  4021a4:	00431021 	addu	v0,v0,v1
  4021a8:	00021880 	sll	v1,v0,0x2
  4021ac:	8f828e64 	lw	v0,-29084(gp)
  4021b0:	02038021 	addu	s0,s0,v1
  4021b4:	00431821 	addu	v1,v0,v1
  4021b8:	af838e64 	sw	v1,-29084(gp)
  4021bc:	08100832 	j	4020c8 <substitute+0x48>
  4021c0:	26100004 	addiu	s0,s0,4
  4021c4:	16200003 	bnez	s1,4021d4 <substitute+0x154>
  4021c8:	8fbf002c 	lw	ra,44(sp)
  4021cc:	0c100108 	jal	400420 <error>
  4021d0:	27848e30 	addiu	a0,gp,-29136
  4021d4:	8fb60028 	lw	s6,40(sp)
  4021d8:	8fb50024 	lw	s5,36(sp)
  4021dc:	8fb40020 	lw	s4,32(sp)
  4021e0:	8fb3001c 	lw	s3,28(sp)
  4021e4:	8fb20018 	lw	s2,24(sp)
  4021e8:	8fb10014 	lw	s1,20(sp)
  4021ec:	8fb00010 	lw	s0,16(sp)
  4021f0:	03e00008 	jr	ra
  4021f4:	27bd0030 	addiu	sp,sp,48

004021f8 <reverse>:
  4021f8:	24a5fffc 	addiu	a1,a1,-4
  4021fc:	0085182b 	sltu	v1,a0,a1
  402200:	10600006 	beqz	v1,40221c <reverse+0x24>
  402204:	8ca20000 	lw	v0,0(a1)
  402208:	8c830000 	lw	v1,0(a0)
  40220c:	24840004 	addiu	a0,a0,4
  402210:	aca30000 	sw	v1,0(a1)
  402214:	0810087e 	j	4021f8 <reverse>
  402218:	ac82fffc 	sw	v0,-4(a0)
  40221c:	03e00008 	jr	ra
  402220:	00000000 	nop

00402224 <move>:
  402224:	27bdffe0 	addiu	sp,sp,-32
  402228:	afbf001c 	sw	ra,28(sp)
  40222c:	afb10014 	sw	s1,20(sp)
  402230:	afb00010 	sw	s0,16(sp)
  402234:	00808821 	move	s1,a0
  402238:	0c100380 	jal	400e00 <setdot>
  40223c:	afb20018 	sw	s2,24(sp)
  402240:	0c1003a4 	jal	400e90 <nonzero>
  402244:	00000000 	nop
  402248:	0c10065e 	jal	401978 <address>
  40224c:	00000000 	nop
  402250:	14400003 	bnez	v0,402260 <move+0x3c>
  402254:	00408021 	move	s0,v0
  402258:	0c100108 	jal	400420 <error>
  40225c:	27848e30 	addiu	a0,gp,-29136
  402260:	0c1003b3 	jal	400ecc <newline>
  402264:	00000000 	nop
  402268:	5220000f 	beqzl	s1,4022a8 <move+0x84>
  40226c:	8f868ed4 	lw	a2,-28972(gp)
  402270:	8f858ec0 	lw	a1,-28992(gp)
  402274:	3c040040 	lui	a0,0x40
  402278:	24841c04 	addiu	a0,a0,7172
  40227c:	8f928ebc 	lw	s2,-28996(gp)
  402280:	0c100546 	jal	401518 <append>
  402284:	24b10004 	addiu	s1,a1,4
  402288:	8f828ebc 	lw	v0,-28996(gp)
  40228c:	8f878ec0 	lw	a3,-28992(gp)
  402290:	00521023 	subu	v0,v0,s2
  402294:	00021083 	sra	v0,v0,0x2
  402298:	00021080 	sll	v0,v0,0x2
  40229c:	02223021 	addu	a2,s1,v0
  4022a0:	081008b4 	j	4022d0 <move+0xac>
  4022a4:	02028021 	addu	s0,s0,v0
  4022a8:	8f878e64 	lw	a3,-29084(gp)
  4022ac:	2404fffe 	li	a0,-2
  4022b0:	00c01021 	move	v0,a2
  4022b4:	00e2182b 	sltu	v1,a3,v0
  4022b8:	14600005 	bnez	v1,4022d0 <move+0xac>
  4022bc:	24420004 	addiu	v0,v0,4
  4022c0:	8c43fffc 	lw	v1,-4(v0)
  4022c4:	00641824 	and	v1,v1,a0
  4022c8:	081008ad 	j	4022b4 <move+0x90>
  4022cc:	ac43fffc 	sw	v1,-4(v0)
  4022d0:	0206102b 	sltu	v0,s0,a2
  4022d4:	24e70004 	addiu	a3,a3,4
  4022d8:	10400010 	beqz	v0,40231c <move+0xf8>
  4022dc:	26080004 	addiu	t0,s0,4
  4022e0:	00e61023 	subu	v0,a3,a2
  4022e4:	00021083 	sra	v0,v0,0x2
  4022e8:	00021080 	sll	v0,v0,0x2
  4022ec:	02028021 	addu	s0,s0,v0
  4022f0:	11060019 	beq	t0,a2,402358 <move+0x134>
  4022f4:	af908ec4 	sw	s0,-28988(gp)
  4022f8:	01002021 	move	a0,t0
  4022fc:	0c10087e 	jal	4021f8 <reverse>
  402300:	00c02821 	move	a1,a2
  402304:	00c02021 	move	a0,a2
  402308:	0c10087e 	jal	4021f8 <reverse>
  40230c:	00e02821 	move	a1,a3
  402310:	01002021 	move	a0,t0
  402314:	081008d2 	j	402348 <move+0x124>
  402318:	00e02821 	move	a1,a3
  40231c:	0207102b 	sltu	v0,s0,a3
  402320:	1440ffcd 	bnez	v0,402258 <move+0x34>
  402324:	00c02021 	move	a0,a2
  402328:	00e02821 	move	a1,a3
  40232c:	0c10087e 	jal	4021f8 <reverse>
  402330:	af908ec4 	sw	s0,-28988(gp)
  402334:	00e02021 	move	a0,a3
  402338:	0c10087e 	jal	4021f8 <reverse>
  40233c:	01002821 	move	a1,t0
  402340:	00c02021 	move	a0,a2
  402344:	01002821 	move	a1,t0
  402348:	0c10087e 	jal	4021f8 <reverse>
  40234c:	00000000 	nop
  402350:	24020001 	li	v0,1
  402354:	af828ed8 	sw	v0,-28968(gp)
  402358:	8fbf001c 	lw	ra,28(sp)
  40235c:	8fb20018 	lw	s2,24(sp)
  402360:	8fb10014 	lw	s1,20(sp)
  402364:	8fb00010 	lw	s0,16(sp)
  402368:	03e00008 	jr	ra
  40236c:	27bd0020 	addiu	sp,sp,32

00402370 <commands>:
  402370:	27bdffc8 	addiu	sp,sp,-56
  402374:	afb40028 	sw	s4,40(sp)
  402378:	afb1001c 	sw	s1,28(sp)
  40237c:	3c140041 	lui	s4,0x41
  402380:	3c110041 	lui	s1,0x41
  402384:	afb30024 	sw	s3,36(sp)
  402388:	afbf0034 	sw	ra,52(sp)
  40238c:	afb60030 	sw	s6,48(sp)
  402390:	afb5002c 	sw	s5,44(sp)
  402394:	afb20020 	sw	s2,32(sp)
  402398:	afb00018 	sw	s0,24(sp)
  40239c:	2631fb3c 	addiu	s1,s1,-1220
  4023a0:	3c130040 	lui	s3,0x40
  4023a4:	2694fa38 	addiu	s4,s4,-1480
  4023a8:	8f828ec8 	lw	v0,-28984(gp)
  4023ac:	50400005 	beqzl	v0,4023c4 <commands+0x54>
  4023b0:	af808e64 	sw	zero,-29084(gp)
  4023b4:	8f828ec4 	lw	v0,-28988(gp)
  4023b8:	af808ec8 	sw	zero,-28984(gp)
  4023bc:	081009df 	j	40277c <commands+0x40c>
  4023c0:	af828e64 	sw	v0,-29084(gp)
  4023c4:	2416003b 	li	s6,59
  4023c8:	2415002c 	li	s5,44
  4023cc:	8f828e64 	lw	v0,-29084(gp)
  4023d0:	0c10065e 	jal	401978 <address>
  4023d4:	af828ed4 	sw	v0,-28972(gp)
  4023d8:	14400005 	bnez	v0,4023f0 <commands+0x80>
  4023dc:	00409021 	move	s2,v0
  4023e0:	0c1000ea 	jal	4003a8 <getchr>
  4023e4:	00000000 	nop
  4023e8:	08100904 	j	402410 <commands+0xa0>
  4023ec:	00408021 	move	s0,v0
  4023f0:	0c1000ea 	jal	4003a8 <getchr>
  4023f4:	af828e64 	sw	v0,-29084(gp)
  4023f8:	14560003 	bne	v0,s6,402408 <commands+0x98>
  4023fc:	00408021 	move	s0,v0
  402400:	081008f3 	j	4023cc <commands+0x5c>
  402404:	af928ec4 	sw	s2,-28988(gp)
  402408:	1055fff1 	beq	v0,s5,4023d0 <commands+0x60>
  40240c:	8f828e64 	lw	v0,-29084(gp)
  402410:	8f828ed4 	lw	v0,-28972(gp)
  402414:	14400004 	bnez	v0,402428 <commands+0xb8>
  402418:	24020067 	li	v0,103
  40241c:	8f828e64 	lw	v0,-29084(gp)
  402420:	af828ed4 	sw	v0,-28972(gp)
  402424:	24020067 	li	v0,103
  402428:	1202011e 	beq	s0,v0,4028a4 <commands+0x534>
  40242c:	24040001 	li	a0,1
  402430:	2a020068 	slti	v0,s0,104
  402434:	10400041 	beqz	v0,40253c <commands+0x1cc>
  402438:	24020071 	li	v0,113
  40243c:	24020051 	li	v0,81
  402440:	120200e5 	beq	s0,v0,4027d8 <commands+0x468>
  402444:	2a020052 	slti	v0,s0,82
  402448:	10400022 	beqz	v0,4024d4 <commands+0x164>
  40244c:	24020063 	li	v0,99
  402450:	24020021 	li	v0,33
  402454:	1202014c 	beq	s0,v0,402988 <commands+0x618>
  402458:	00000000 	nop
  40245c:	2a020022 	slti	v0,s0,34
  402460:	10400008 	beqz	v0,402484 <commands+0x114>
  402464:	24020045 	li	v0,69
  402468:	2402ffff 	li	v0,-1
  40246c:	1202014d 	beq	s0,v0,4029a4 <commands+0x634>
  402470:	2402000a 	li	v0,10
  402474:	120200bb 	beq	s0,v0,402764 <commands+0x3f4>
  402478:	8f828e64 	lw	v0,-29084(gp)
  40247c:	08100a67 	j	40299c <commands+0x62c>
  402480:	27848e30 	addiu	a0,gp,-29136
  402484:	1202006e 	beq	s0,v0,402640 <commands+0x2d0>
  402488:	24020050 	li	v0,80
  40248c:	120200bf 	beq	s0,v0,40278c <commands+0x41c>
  402490:	2402003d 	li	v0,61
  402494:	16020141 	bne	s0,v0,40299c <commands+0x62c>
  402498:	27848e30 	addiu	a0,gp,-29136
  40249c:	0c100390 	jal	400e40 <setall>
  4024a0:	00000000 	nop
  4024a4:	0c1003b3 	jal	400ecc <newline>
  4024a8:	00000000 	nop
  4024ac:	8f828ebc 	lw	v0,-28996(gp)
  4024b0:	8f838e64 	lw	v1,-29084(gp)
  4024b4:	00621023 	subu	v0,v1,v0
  4024b8:	7c427080 	ext	v0,v0,0x2,0xf
  4024bc:	0c100426 	jal	401098 <putd>
  4024c0:	af828eb8 	sw	v0,-29000(gp)
  4024c4:	0c10009a 	jal	400268 <putchr>
  4024c8:	2404000a 	li	a0,10
  4024cc:	081008eb 	j	4023ac <commands+0x3c>
  4024d0:	8f828ec8 	lw	v0,-28984(gp)
  4024d4:	12020050 	beq	s0,v0,402618 <commands+0x2a8>
  4024d8:	00000000 	nop
  4024dc:	2a020064 	slti	v0,s0,100
  4024e0:	1040000e 	beqz	v0,40251c <commands+0x1ac>
  4024e4:	24020065 	li	v0,101
  4024e8:	24020057 	li	v0,87
  4024ec:	120200f1 	beq	s0,v0,4028b4 <commands+0x544>
  4024f0:	24020061 	li	v0,97
  4024f4:	56020129 	bnel	s0,v0,40299c <commands+0x62c>
  4024f8:	27848e30 	addiu	a0,gp,-29136
  4024fc:	0c100380 	jal	400e00 <setdot>
  402500:	00000000 	nop
  402504:	0c1003b3 	jal	400ecc <newline>
  402508:	00000000 	nop
  40250c:	3c040040 	lui	a0,0x40
  402510:	24840554 	addiu	a0,a0,1364
  402514:	0810098c 	j	402630 <commands+0x2c0>
  402518:	8f858e64 	lw	a1,-29084(gp)
  40251c:	12020049 	beq	s0,v0,402644 <commands+0x2d4>
  402520:	2a100066 	slti	s0,s0,102
  402524:	12000057 	beqz	s0,402684 <commands+0x314>
  402528:	00000000 	nop
  40252c:	0c10048f 	jal	40123c <delete>
  402530:	00000000 	nop
  402534:	081008eb 	j	4023ac <commands+0x3c>
  402538:	8f828ec8 	lw	v0,-28984(gp)
  40253c:	120200a7 	beq	s0,v0,4027dc <commands+0x46c>
  402540:	2a020072 	slti	v0,s0,114
  402544:	10400018 	beqz	v0,4025a8 <commands+0x238>
  402548:	24020074 	li	v0,116
  40254c:	2402006b 	li	v0,107
  402550:	1202006f 	beq	s0,v0,402710 <commands+0x3a0>
  402554:	2a02006c 	slti	v0,s0,108
  402558:	10400009 	beqz	v0,402580 <commands+0x210>
  40255c:	2402006d 	li	v0,109
  402560:	24020069 	li	v0,105
  402564:	12020050 	beq	s0,v0,4026a8 <commands+0x338>
  402568:	00000000 	nop
  40256c:	2402006a 	li	v0,106
  402570:	12020057 	beq	s0,v0,4026d0 <commands+0x360>
  402574:	8f828e64 	lw	v0,-29084(gp)
  402578:	08100a67 	j	40299c <commands+0x62c>
  40257c:	27848e30 	addiu	a0,gp,-29136
  402580:	120200b4 	beq	s0,v0,402854 <commands+0x4e4>
  402584:	00002021 	move	a0,zero
  402588:	2a02006d 	slti	v0,s0,109
  40258c:	1440007d 	bnez	v0,402784 <commands+0x414>
  402590:	8f828eb0 	lw	v0,-29008(gp)
  402594:	24020070 	li	v0,112
  402598:	1202007c 	beq	s0,v0,40278c <commands+0x41c>
  40259c:	27848e30 	addiu	a0,gp,-29136
  4025a0:	08100a67 	j	40299c <commands+0x62c>
  4025a4:	00000000 	nop
  4025a8:	120200aa 	beq	s0,v0,402854 <commands+0x4e4>
  4025ac:	24040001 	li	a0,1
  4025b0:	2a020075 	slti	v0,s0,117
  4025b4:	1040000f 	beqz	v0,4025f4 <commands+0x284>
  4025b8:	24020076 	li	v0,118
  4025bc:	24020072 	li	v0,114
  4025c0:	1202008c 	beq	s0,v0,4027f4 <commands+0x484>
  4025c4:	24020073 	li	v0,115
  4025c8:	560200f4 	bnel	s0,v0,40299c <commands+0x62c>
  4025cc:	27848e30 	addiu	a0,gp,-29136
  4025d0:	0c100380 	jal	400e00 <setdot>
  4025d4:	00000000 	nop
  4025d8:	0c1003a4 	jal	400e90 <nonzero>
  4025dc:	00000000 	nop
  4025e0:	8f848e8c 	lw	a0,-29044(gp)
  4025e4:	0c100820 	jal	402080 <substitute>
  4025e8:	0004202b 	sltu	a0,zero,a0
  4025ec:	081008eb 	j	4023ac <commands+0x3c>
  4025f0:	8f828ec8 	lw	v0,-28984(gp)
  4025f4:	120200ab 	beq	s0,v0,4028a4 <commands+0x534>
  4025f8:	00002021 	move	a0,zero
  4025fc:	2a020076 	slti	v0,s0,118
  402600:	14400098 	bnez	v0,402864 <commands+0x4f4>
  402604:	24020077 	li	v0,119
  402608:	120200ad 	beq	s0,v0,4028c0 <commands+0x550>
  40260c:	27848e30 	addiu	a0,gp,-29136
  402610:	08100a67 	j	40299c <commands+0x62c>
  402614:	00000000 	nop
  402618:	0c10048f 	jal	40123c <delete>
  40261c:	00000000 	nop
  402620:	8f858ed4 	lw	a1,-28972(gp)
  402624:	3c040040 	lui	a0,0x40
  402628:	24840554 	addiu	a0,a0,1364
  40262c:	24a5fffc 	addiu	a1,a1,-4
  402630:	0c100546 	jal	401518 <append>
  402634:	00000000 	nop
  402638:	081008eb 	j	4023ac <commands+0x3c>
  40263c:	8f828ec8 	lw	v0,-28984(gp)
  402640:	af808ed8 	sw	zero,-28968(gp)
  402644:	0c10039b 	jal	400e6c <setnoaddr>
  402648:	00000000 	nop
  40264c:	8f828024 	lw	v0,-32732(gp)
  402650:	10400005 	beqz	v0,402668 <commands+0x2f8>
  402654:	8f828ed8 	lw	v0,-28968(gp)
  402658:	10400003 	beqz	v0,402668 <commands+0x2f8>
  40265c:	00000000 	nop
  402660:	08100a66 	j	402998 <commands+0x628>
  402664:	af808ed8 	sw	zero,-28968(gp)
  402668:	0c1003d0 	jal	400f40 <filename>
  40266c:	24040065 	li	a0,101
  402670:	0c100711 	jal	401c44 <init>
  402674:	00000000 	nop
  402678:	8f828ebc 	lw	v0,-28996(gp)
  40267c:	081009ff 	j	4027fc <commands+0x48c>
  402680:	af828e64 	sw	v0,-29084(gp)
  402684:	0c10039b 	jal	400e6c <setnoaddr>
  402688:	00000000 	nop
  40268c:	0c1003d0 	jal	400f40 <filename>
  402690:	24040066 	li	a0,102
  402694:	3c040041 	lui	a0,0x41
  402698:	0c1000da 	jal	400368 <putstr>
  40269c:	2484fab4 	addiu	a0,a0,-1356
  4026a0:	081008eb 	j	4023ac <commands+0x3c>
  4026a4:	8f828ec8 	lw	v0,-28984(gp)
  4026a8:	0c100380 	jal	400e00 <setdot>
  4026ac:	00000000 	nop
  4026b0:	0c1003a4 	jal	400e90 <nonzero>
  4026b4:	00000000 	nop
  4026b8:	0c1003b3 	jal	400ecc <newline>
  4026bc:	00000000 	nop
  4026c0:	3c040040 	lui	a0,0x40
  4026c4:	24840554 	addiu	a0,a0,1364
  4026c8:	0810098b 	j	40262c <commands+0x2bc>
  4026cc:	8f858e64 	lw	a1,-29084(gp)
  4026d0:	14400005 	bnez	v0,4026e8 <commands+0x378>
  4026d4:	00000000 	nop
  4026d8:	8f828ec4 	lw	v0,-28988(gp)
  4026dc:	af828ed4 	sw	v0,-28972(gp)
  4026e0:	24420004 	addiu	v0,v0,4
  4026e4:	af828e64 	sw	v0,-29084(gp)
  4026e8:	0c100380 	jal	400e00 <setdot>
  4026ec:	00000000 	nop
  4026f0:	0c1003b3 	jal	400ecc <newline>
  4026f4:	00000000 	nop
  4026f8:	0c1003a4 	jal	400e90 <nonzero>
  4026fc:	00000000 	nop
  402700:	0c100735 	jal	401cd4 <join>
  402704:	00000000 	nop
  402708:	081008eb 	j	4023ac <commands+0x3c>
  40270c:	8f828ec8 	lw	v0,-28984(gp)
  402710:	0c1000ea 	jal	4003a8 <getchr>
  402714:	00000000 	nop
  402718:	2450ff9f 	addiu	s0,v0,-97
  40271c:	2e02001a 	sltiu	v0,s0,26
  402720:	1040009e 	beqz	v0,40299c <commands+0x62c>
  402724:	27848e30 	addiu	a0,gp,-29136
  402728:	0c1003b3 	jal	400ecc <newline>
  40272c:	00108080 	sll	s0,s0,0x2
  402730:	0c100380 	jal	400e00 <setdot>
  402734:	02148021 	addu	s0,s0,s4
  402738:	0c1003a4 	jal	400e90 <nonzero>
  40273c:	00000000 	nop
  402740:	8f828e64 	lw	v0,-29084(gp)
  402744:	8c430000 	lw	v1,0(v0)
  402748:	2402fffe 	li	v0,-2
  40274c:	00621024 	and	v0,v1,v0
  402750:	ae020000 	sw	v0,0(s0)
  402754:	8f828ea0 	lw	v0,-29024(gp)
  402758:	34420001 	ori	v0,v0,0x1
  40275c:	081008ea 	j	4023a8 <commands+0x38>
  402760:	af828ea0 	sw	v0,-29024(gp)
  402764:	14400005 	bnez	v0,40277c <commands+0x40c>
  402768:	8f828e64 	lw	v0,-29084(gp)
  40276c:	8f828ec4 	lw	v0,-28988(gp)
  402770:	24420004 	addiu	v0,v0,4
  402774:	af828e64 	sw	v0,-29084(gp)
  402778:	8f828e64 	lw	v0,-29084(gp)
  40277c:	081009e5 	j	402794 <commands+0x424>
  402780:	af828ed4 	sw	v0,-28972(gp)
  402784:	24420001 	addiu	v0,v0,1
  402788:	af828eb0 	sw	v0,-29008(gp)
  40278c:	0c1003b3 	jal	400ecc <newline>
  402790:	00000000 	nop
  402794:	0c100380 	jal	400e00 <setdot>
  402798:	00000000 	nop
  40279c:	0c1003a4 	jal	400e90 <nonzero>
  4027a0:	00000000 	nop
  4027a4:	8f908ed4 	lw	s0,-28972(gp)
  4027a8:	26100004 	addiu	s0,s0,4
  4027ac:	0c100588 	jal	401620 <getline>
  4027b0:	8e04fffc 	lw	a0,-4(s0)
  4027b4:	0c1000da 	jal	400368 <putstr>
  4027b8:	00402021 	move	a0,v0
  4027bc:	8f828e64 	lw	v0,-29084(gp)
  4027c0:	0050182b 	sltu	v1,v0,s0
  4027c4:	5060fff9 	beqzl	v1,4027ac <commands+0x43c>
  4027c8:	26100004 	addiu	s0,s0,4
  4027cc:	af828ec4 	sw	v0,-28988(gp)
  4027d0:	081008ea 	j	4023a8 <commands+0x38>
  4027d4:	af808eb0 	sw	zero,-29008(gp)
  4027d8:	af808ed8 	sw	zero,-28968(gp)
  4027dc:	0c10039b 	jal	400e6c <setnoaddr>
  4027e0:	00000000 	nop
  4027e4:	0c1003b3 	jal	400ecc <newline>
  4027e8:	00000000 	nop
  4027ec:	0c100139 	jal	4004e4 <quit>
  4027f0:	00000000 	nop
  4027f4:	0c1003d0 	jal	400f40 <filename>
  4027f8:	24040072 	li	a0,114
  4027fc:	02202021 	move	a0,s1
  402800:	0c10262a 	jal	4098a8 <open>
  402804:	00002821 	move	a1,zero
  402808:	04410004 	bgez	v0,40281c <commands+0x4ac>
  40280c:	af828e94 	sw	v0,-29036(gp)
  402810:	2402000a 	li	v0,10
  402814:	08100a51 	j	402944 <commands+0x5d4>
  402818:	af828ecc 	sw	v0,-28980(gp)
  40281c:	0c100390 	jal	400e40 <setall>
  402820:	00000000 	nop
  402824:	8f828ec0 	lw	v0,-28992(gp)
  402828:	8f908ebc 	lw	s0,-28996(gp)
  40282c:	8f858e64 	lw	a1,-29084(gp)
  402830:	26640624 	addiu	a0,s3,1572
  402834:	02028026 	xor	s0,s0,v0
  402838:	0010802b 	sltu	s0,zero,s0
  40283c:	0c100546 	jal	401518 <append>
  402840:	af808e6c 	sw	zero,-29076(gp)
  402844:	0c100438 	jal	4010e0 <exfile>
  402848:	00000000 	nop
  40284c:	081008ea 	j	4023a8 <commands+0x38>
  402850:	af908ed8 	sw	s0,-28968(gp)
  402854:	0c100889 	jal	402224 <move>
  402858:	00000000 	nop
  40285c:	081008eb 	j	4023ac <commands+0x3c>
  402860:	8f828ec8 	lw	v0,-28984(gp)
  402864:	0c100380 	jal	400e00 <setdot>
  402868:	00000000 	nop
  40286c:	0c1003a4 	jal	400e90 <nonzero>
  402870:	00000000 	nop
  402874:	0c1003b3 	jal	400ecc <newline>
  402878:	00000000 	nop
  40287c:	8f828e64 	lw	v0,-29084(gp)
  402880:	2404fffe 	li	a0,-2
  402884:	8c430000 	lw	v1,0(v0)
  402888:	00832024 	and	a0,a0,v1
  40288c:	8f838e60 	lw	v1,-29088(gp)
  402890:	14830041 	bne	a0,v1,402998 <commands+0x628>
  402894:	8f838e68 	lw	v1,-29080(gp)
  402898:	ac430000 	sw	v1,0(v0)
  40289c:	081008ea 	j	4023a8 <commands+0x38>
  4028a0:	af828ec4 	sw	v0,-28988(gp)
  4028a4:	0c100a73 	jal	4029cc <global>
  4028a8:	00000000 	nop
  4028ac:	081008eb 	j	4023ac <commands+0x3c>
  4028b0:	8f828ec8 	lw	v0,-28984(gp)
  4028b4:	8f828e78 	lw	v0,-29064(gp)
  4028b8:	24420001 	addiu	v0,v0,1
  4028bc:	af828e78 	sw	v0,-29064(gp)
  4028c0:	0c100390 	jal	400e40 <setall>
  4028c4:	00000000 	nop
  4028c8:	0c1003a4 	jal	400e90 <nonzero>
  4028cc:	00000000 	nop
  4028d0:	0c1003d0 	jal	400f40 <filename>
  4028d4:	02002021 	move	a0,s0
  4028d8:	8f828e78 	lw	v0,-29064(gp)
  4028dc:	14400008 	bnez	v0,402900 <commands+0x590>
  4028e0:	02202021 	move	a0,s1
  4028e4:	02202021 	move	a0,s1
  4028e8:	0c100ae9 	jal	402ba4 <creat>
  4028ec:	240501b6 	li	a1,438
  4028f0:	04410016 	bgez	v0,40294c <commands+0x5dc>
  4028f4:	af828e94 	sw	v0,-29036(gp)
  4028f8:	08100a67 	j	40299c <commands+0x62c>
  4028fc:	02202021 	move	a0,s1
  402900:	0c10262a 	jal	4098a8 <open>
  402904:	24050001 	li	a1,1
  402908:	2410ffff 	li	s0,-1
  40290c:	1050fff5 	beq	v0,s0,4028e4 <commands+0x574>
  402910:	af828e94 	sw	v0,-29036(gp)
  402914:	24030002 	li	v1,2
  402918:	afa30010 	sw	v1,16(sp)
  40291c:	00402021 	move	a0,v0
  402920:	00003021 	move	a2,zero
  402924:	0c10275f 	jal	409d7c <lseek>
  402928:	00003821 	move	a3,zero
  40292c:	14500007 	bne	v0,s0,40294c <commands+0x5dc>
  402930:	00000000 	nop
  402934:	14620005 	bne	v1,v0,40294c <commands+0x5dc>
  402938:	02202021 	move	a0,s1
  40293c:	08100a3a 	j	4028e8 <commands+0x578>
  402940:	00000000 	nop
  402944:	08100a67 	j	40299c <commands+0x62c>
  402948:	02202021 	move	a0,s1
  40294c:	0c1005ab 	jal	4016ac <putfile>
  402950:	af808e78 	sw	zero,-29064(gp)
  402954:	0c100438 	jal	4010e0 <exfile>
  402958:	00000000 	nop
  40295c:	8f828ebc 	lw	v0,-28996(gp)
  402960:	8f838ed4 	lw	v1,-28972(gp)
  402964:	24420004 	addiu	v0,v0,4
  402968:	1462fe90 	bne	v1,v0,4023ac <commands+0x3c>
  40296c:	8f828ec8 	lw	v0,-28984(gp)
  402970:	8f828ec0 	lw	v0,-28992(gp)
  402974:	8f838e64 	lw	v1,-29084(gp)
  402978:	5062fe8b 	beql	v1,v0,4023a8 <commands+0x38>
  40297c:	af808ed8 	sw	zero,-28968(gp)
  402980:	081008eb 	j	4023ac <commands+0x3c>
  402984:	8f828ec8 	lw	v0,-28984(gp)
  402988:	0c10044a 	jal	401128 <callunix>
  40298c:	00000000 	nop
  402990:	081008eb 	j	4023ac <commands+0x3c>
  402994:	8f828ec8 	lw	v0,-28984(gp)
  402998:	27848e30 	addiu	a0,gp,-29136
  40299c:	0c100108 	jal	400420 <error>
  4029a0:	00000000 	nop
  4029a4:	8fbf0034 	lw	ra,52(sp)
  4029a8:	8fb60030 	lw	s6,48(sp)
  4029ac:	8fb5002c 	lw	s5,44(sp)
  4029b0:	8fb40028 	lw	s4,40(sp)
  4029b4:	8fb30024 	lw	s3,36(sp)
  4029b8:	8fb20020 	lw	s2,32(sp)
  4029bc:	8fb1001c 	lw	s1,28(sp)
  4029c0:	8fb00018 	lw	s0,24(sp)
  4029c4:	03e00008 	jr	ra
  4029c8:	27bd0038 	addiu	sp,sp,56

004029cc <global>:
  4029cc:	8f828e8c 	lw	v0,-29044(gp)
  4029d0:	27bdfed0 	addiu	sp,sp,-304
  4029d4:	afbf012c 	sw	ra,300(sp)
  4029d8:	afb60128 	sw	s6,296(sp)
  4029dc:	afb50124 	sw	s5,292(sp)
  4029e0:	afb40120 	sw	s4,288(sp)
  4029e4:	afb3011c 	sw	s3,284(sp)
  4029e8:	afb20118 	sw	s2,280(sp)
  4029ec:	afb10114 	sw	s1,276(sp)
  4029f0:	10400003 	beqz	v0,402a00 <global+0x34>
  4029f4:	afb00110 	sw	s0,272(sp)
  4029f8:	0c100108 	jal	400420 <error>
  4029fc:	27848e30 	addiu	a0,gp,-29136
  402a00:	0c100390 	jal	400e40 <setall>
  402a04:	0080a021 	move	s4,a0
  402a08:	0c1003a4 	jal	400e90 <nonzero>
  402a0c:	00000000 	nop
  402a10:	0c1000ea 	jal	4003a8 <getchr>
  402a14:	00000000 	nop
  402a18:	2403000a 	li	v1,10
  402a1c:	1043fff6 	beq	v0,v1,4029f8 <global+0x2c>
  402a20:	00402021 	move	a0,v0
  402a24:	0c1001d0 	jal	400740 <compile>
  402a28:	27b00010 	addiu	s0,sp,16
  402a2c:	02009821 	move	s3,s0
  402a30:	2411000a 	li	s1,10
  402a34:	2415ffff 	li	s5,-1
  402a38:	2412005c 	li	s2,92
  402a3c:	27b6010e 	addiu	s6,sp,270
  402a40:	0c1000ea 	jal	4003a8 <getchr>
  402a44:	00000000 	nop
  402a48:	50510012 	beql	v0,s1,402a94 <global+0xc8>
  402a4c:	a2110000 	sb	s1,0(s0)
  402a50:	1055ffe9 	beq	v0,s5,4029f8 <global+0x2c>
  402a54:	00000000 	nop
  402a58:	14520008 	bne	v0,s2,402a7c <global+0xb0>
  402a5c:	26030001 	addiu	v1,s0,1
  402a60:	0c1000ea 	jal	4003a8 <getchr>
  402a64:	00000000 	nop
  402a68:	10510004 	beq	v0,s1,402a7c <global+0xb0>
  402a6c:	26030001 	addiu	v1,s0,1
  402a70:	a2120000 	sb	s2,0(s0)
  402a74:	26100001 	addiu	s0,s0,1
  402a78:	26030001 	addiu	v1,s0,1
  402a7c:	a2020000 	sb	v0,0(s0)
  402a80:	0076102b 	sltu	v0,v1,s6
  402a84:	1040ffdc 	beqz	v0,4029f8 <global+0x2c>
  402a88:	00000000 	nop
  402a8c:	08100a90 	j	402a40 <global+0x74>
  402a90:	00608021 	move	s0,v1
  402a94:	a2000001 	sb	zero,1(s0)
  402a98:	8f908ebc 	lw	s0,-28996(gp)
  402a9c:	2411fffe 	li	s1,-2
  402aa0:	8f828ec0 	lw	v0,-28992(gp)
  402aa4:	0050102b 	sltu	v0,v0,s0
  402aa8:	14400016 	bnez	v0,402b04 <global+0x138>
  402aac:	93a30010 	lbu	v1,16(sp)
  402ab0:	8e020000 	lw	v0,0(s0)
  402ab4:	00511024 	and	v0,v0,s1
  402ab8:	ae020000 	sw	v0,0(s0)
  402abc:	8f828ed4 	lw	v0,-28972(gp)
  402ac0:	0202102b 	sltu	v0,s0,v0
  402ac4:	5440fff6 	bnezl	v0,402aa0 <global+0xd4>
  402ac8:	26100004 	addiu	s0,s0,4
  402acc:	8f828e64 	lw	v0,-29084(gp)
  402ad0:	0050102b 	sltu	v0,v0,s0
  402ad4:	5440fff2 	bnezl	v0,402aa0 <global+0xd4>
  402ad8:	26100004 	addiu	s0,s0,4
  402adc:	00002021 	move	a0,zero
  402ae0:	0c100604 	jal	401810 <execute>
  402ae4:	02002821 	move	a1,s0
  402ae8:	5454ffed 	bnel	v0,s4,402aa0 <global+0xd4>
  402aec:	26100004 	addiu	s0,s0,4
  402af0:	8e020000 	lw	v0,0(s0)
  402af4:	34420001 	ori	v0,v0,0x1
  402af8:	ae020000 	sw	v0,0(s0)
  402afc:	08100aa8 	j	402aa0 <global+0xd4>
  402b00:	26100004 	addiu	s0,s0,4
  402b04:	24020064 	li	v0,100
  402b08:	1462000c 	bne	v1,v0,402b3c <global+0x170>
  402b0c:	8f828ebc 	lw	v0,-28996(gp)
  402b10:	93a30011 	lbu	v1,17(sp)
  402b14:	2402000a 	li	v0,10
  402b18:	14620008 	bne	v1,v0,402b3c <global+0x170>
  402b1c:	8f828ebc 	lw	v0,-28996(gp)
  402b20:	93a20012 	lbu	v0,18(sp)
  402b24:	14400005 	bnez	v0,402b3c <global+0x170>
  402b28:	8f828ebc 	lw	v0,-28996(gp)
  402b2c:	0c10049c 	jal	401270 <gdelete>
  402b30:	00000000 	nop
  402b34:	08100ae0 	j	402b80 <global+0x1b4>
  402b38:	8fbf012c 	lw	ra,300(sp)
  402b3c:	2410fffe 	li	s0,-2
  402b40:	8f838ec0 	lw	v1,-28992(gp)
  402b44:	0062182b 	sltu	v1,v1,v0
  402b48:	1460000d 	bnez	v1,402b80 <global+0x1b4>
  402b4c:	8fbf012c 	lw	ra,300(sp)
  402b50:	8c430000 	lw	v1,0(v0)
  402b54:	30640001 	andi	a0,v1,0x1
  402b58:	5080fff9 	beqzl	a0,402b40 <global+0x174>
  402b5c:	24420004 	addiu	v0,v0,4
  402b60:	00701824 	and	v1,v1,s0
  402b64:	ac430000 	sw	v1,0(v0)
  402b68:	af828ec4 	sw	v0,-28988(gp)
  402b6c:	0c1008dc 	jal	402370 <commands>
  402b70:	af938e8c 	sw	s3,-29044(gp)
  402b74:	8f828ebc 	lw	v0,-28996(gp)
  402b78:	08100ad0 	j	402b40 <global+0x174>
  402b7c:	24420004 	addiu	v0,v0,4
  402b80:	8fb60128 	lw	s6,296(sp)
  402b84:	8fb50124 	lw	s5,292(sp)
  402b88:	8fb40120 	lw	s4,288(sp)
  402b8c:	8fb3011c 	lw	s3,284(sp)
  402b90:	8fb20118 	lw	s2,280(sp)
  402b94:	8fb10114 	lw	s1,276(sp)
  402b98:	8fb00110 	lw	s0,272(sp)
  402b9c:	03e00008 	jr	ra
  402ba0:	27bd0130 	addiu	sp,sp,304

00402ba4 <creat>:
  402ba4:	30a6ffff 	andi	a2,a1,0xffff
  402ba8:	0810262a 	j	4098a8 <open>
  402bac:	24050601 	li	a1,1537
  402bb0:	29232840 	slti	v1,t1,10304
  402bb4:	6a746573 	0x6a746573
  402bb8:	732e706d 	0x732e706d
  402bbc:	312e3809 	andi	t6,t1,0x3809
  402bc0:	65422820 	0x65422820
  402bc4:	6c656b72 	0x6c656b72
  402bc8:	20297965 	addi	t1,at,31077
  402bcc:	2f342f36 	sltiu	s4,t9,12086
  402bd0:	00003339 	0x3339

00402bd4 <setjmp>:
  402bd4:	27bdffdc 	addiu	sp,sp,-36
  402bd8:	afbf0014 	sw	ra,20(sp)
  402bdc:	afa40024 	sw	a0,36(sp)
  402be0:	0c100d59 	jal	403564 <sigblock>
  402be4:	00002021 	move	a0,zero
  402be8:	8fa30024 	lw	v1,36(sp)
  402bec:	ac620004 	sw	v0,4(v1)
  402bf0:	00002021 	move	a0,zero
  402bf4:	0c100b38 	jal	402ce0 <sigaltstack>
  402bf8:	27a50018 	addiu	a1,sp,24
  402bfc:	8fa40024 	lw	a0,36(sp)
  402c00:	8fa30020 	lw	v1,32(sp)
  402c04:	30630001 	andi	v1,v1,0x1
  402c08:	ac830000 	sw	v1,0(a0)
  402c0c:	8fbf0014 	lw	ra,20(sp)
  402c10:	04400016 	bltz	v0,402c6c <botch>
  402c14:	27bd0024 	addiu	sp,sp,36
  402c18:	ac9f0008 	sw	ra,8(a0)
  402c1c:	3c02aced 	lui	v0,0xaced
  402c20:	3442bade 	ori	v0,v0,0xbade
  402c24:	ac82000c 	sw	v0,12(a0)
  402c28:	ac90004c 	sw	s0,76(a0)
  402c2c:	ac910050 	sw	s1,80(a0)
  402c30:	ac920054 	sw	s2,84(a0)
  402c34:	ac930058 	sw	s3,88(a0)
  402c38:	ac94005c 	sw	s4,92(a0)
  402c3c:	ac950060 	sw	s5,96(a0)
  402c40:	ac960064 	sw	s6,100(a0)
  402c44:	ac970068 	sw	s7,104(a0)
  402c48:	ac9c007c 	sw	gp,124(a0)
  402c4c:	ac9d0080 	sw	sp,128(a0)
  402c50:	ac9e0084 	sw	s8,132(a0)
  402c54:	ac800094 	sw	zero,148(a0)
  402c58:	03e00008 	jr	ra
  402c5c:	00001021 	move	v0,zero

00402c60 <longjmp>:
  402c60:	ac850014 	sw	a1,20(a0)
  402c64:	24020067 	li	v0,103
  402c68:	0000000c 	syscall

00402c6c <botch>:
  402c6c:	0c100b40 	jal	402d00 <longjmperror>
  402c70:	00000000 	nop
  402c74:	0c102290 	jal	408a40 <abort>
  402c78:	00000000 	nop

00402c7c <wait>:
  402c7c:	00802821 	move	a1,a0
  402c80:	00003021 	move	a2,zero
  402c84:	2404ffff 	li	a0,-1
  402c88:	08100c94 	j	403250 <wait4>
  402c8c:	00003821 	move	a3,zero
  402c90:	29232840 	slti	v1,t1,10304
  402c94:	6b726f66 	0x6b726f66
  402c98:	3809732e 	xori	t1,zero,0x732e
  402c9c:	2820312e 	slti	zero,at,12590
  402ca0:	6b726542 	0x6b726542
  402ca4:	79656c65 	0x79656c65
  402ca8:	2f362029 	sltiu	s6,t9,8233
  402cac:	33392f34 	andi	t9,t9,0x2f34
  402cb0:	00000000 	nop

00402cb4 <fork>:
  402cb4:	24020002 	li	v0,2
  402cb8:	0000000c 	syscall
  402cbc:	14e00006 	bnez	a3,402cd8 <fork+0x24>
  402cc0:	00000000 	nop
  402cc4:	10600002 	beqz	v1,402cd0 <fork+0x1c>
  402cc8:	00000000 	nop
  402ccc:	00001021 	move	v0,zero
  402cd0:	03e00008 	jr	ra
  402cd4:	00000000 	nop
  402cd8:	081029a3 	j	40a68c <_cerror>
  402cdc:	00000000 	nop

00402ce0 <sigaltstack>:
  402ce0:	24020035 	li	v0,53
  402ce4:	0000000c 	syscall
  402ce8:	14e00003 	bnez	a3,402cf8 <err>
  402cec:	00000000 	nop
  402cf0:	03e00008 	jr	ra
  402cf4:	00000000 	nop

00402cf8 <err>:
  402cf8:	081029a3 	j	40a68c <_cerror>
  402cfc:	00000000 	nop

00402d00 <longjmperror>:
  402d00:	3c050041 	lui	a1,0x41
  402d04:	24040002 	li	a0,2
  402d08:	24a5c6f8 	addiu	a1,a1,-14600
  402d0c:	081025fd 	j	4097f4 <write>
  402d10:	2406000f 	li	a2,15

00402d14 <buildargv>:
  402d14:	27bdffd8 	addiu	sp,sp,-40
  402d18:	af808e40 	sw	zero,-29120(gp)
  402d1c:	afb30020 	sw	s3,32(sp)
  402d20:	afb2001c 	sw	s2,28(sp)
  402d24:	afb10018 	sw	s1,24(sp)
  402d28:	afb00014 	sw	s0,20(sp)
  402d2c:	afbf0024 	sw	ra,36(sp)
  402d30:	00808821 	move	s1,a0
  402d34:	00a09821 	move	s3,a1
  402d38:	00c09021 	move	s2,a2
  402d3c:	00008021 	move	s0,zero
  402d40:	8f828e3c 	lw	v0,-29124(gp)
  402d44:	0202182a 	slt	v1,s0,v0
  402d48:	54600010 	bnezl	v1,402d8c <buildargv+0x78>
  402d4c:	8f828e40 	lw	v0,-29120(gp)
  402d50:	8f848e40 	lw	a0,-29120(gp)
  402d54:	24450032 	addiu	a1,v0,50
  402d58:	00051840 	sll	v1,a1,0x1
  402d5c:	000528c0 	sll	a1,a1,0x3
  402d60:	0c1027ff 	jal	409ffc <realloc>
  402d64:	af838e3c 	sw	v1,-29124(gp)
  402d68:	14400003 	bnez	v0,402d78 <buildargv+0x64>
  402d6c:	af828e40 	sw	v0,-29120(gp)
  402d70:	08100b6f 	j	402dbc <buildargv+0xa8>
  402d74:	af808e3c 	sw	zero,-29124(gp)
  402d78:	56000004 	bnezl	s0,402d8c <buildargv+0x78>
  402d7c:	8f828e40 	lw	v0,-29120(gp)
  402d80:	ac530000 	sw	s3,0(v0)
  402d84:	24100001 	li	s0,1
  402d88:	8f828e40 	lw	v0,-29120(gp)
  402d8c:	26310004 	addiu	s1,s1,4
  402d90:	8e23fffc 	lw	v1,-4(s1)
  402d94:	00102080 	sll	a0,s0,0x2
  402d98:	00442021 	addu	a0,v0,a0
  402d9c:	10600003 	beqz	v1,402dac <buildargv+0x98>
  402da0:	ac830000 	sw	v1,0(a0)
  402da4:	08100b50 	j	402d40 <buildargv+0x2c>
  402da8:	26100001 	addiu	s0,s0,1
  402dac:	12400004 	beqz	s2,402dc0 <buildargv+0xac>
  402db0:	8fbf0024 	lw	ra,36(sp)
  402db4:	8e230000 	lw	v1,0(s1)
  402db8:	ae430000 	sw	v1,0(s2)
  402dbc:	8fbf0024 	lw	ra,36(sp)
  402dc0:	8fb30020 	lw	s3,32(sp)
  402dc4:	8fb2001c 	lw	s2,28(sp)
  402dc8:	8fb10018 	lw	s1,24(sp)
  402dcc:	8fb00014 	lw	s0,20(sp)
  402dd0:	03e00008 	jr	ra
  402dd4:	27bd0028 	addiu	sp,sp,40

00402dd8 <execl>:
  402dd8:	27bdffe0 	addiu	sp,sp,-32
  402ddc:	afb10018 	sw	s1,24(sp)
  402de0:	afa60028 	sw	a2,40(sp)
  402de4:	00808821 	move	s1,a0
  402de8:	00003021 	move	a2,zero
  402dec:	27a40028 	addiu	a0,sp,40
  402df0:	afb00014 	sw	s0,20(sp)
  402df4:	afbf001c 	sw	ra,28(sp)
  402df8:	afa7002c 	sw	a3,44(sp)
  402dfc:	0c100b45 	jal	402d14 <buildargv>
  402e00:	afa50024 	sw	a1,36(sp)
  402e04:	10400005 	beqz	v0,402e1c <execl+0x44>
  402e08:	00408021 	move	s0,v0
  402e0c:	8f868e5c 	lw	a2,-29092(gp)
  402e10:	02202021 	move	a0,s1
  402e14:	0c100d09 	jal	403424 <execve>
  402e18:	00402821 	move	a1,v0
  402e1c:	02002021 	move	a0,s0
  402e20:	0c1027f0 	jal	409fc0 <free>
  402e24:	8f918ee0 	lw	s1,-28960(gp)
  402e28:	8fbf001c 	lw	ra,28(sp)
  402e2c:	8fb00014 	lw	s0,20(sp)
  402e30:	af918ee0 	sw	s1,-28960(gp)
  402e34:	2402ffff 	li	v0,-1
  402e38:	8fb10018 	lw	s1,24(sp)
  402e3c:	03e00008 	jr	ra
  402e40:	27bd0020 	addiu	sp,sp,32

00402e44 <execle>:
  402e44:	27bdffd8 	addiu	sp,sp,-40
  402e48:	afb10020 	sw	s1,32(sp)
  402e4c:	afa60030 	sw	a2,48(sp)
  402e50:	00808821 	move	s1,a0
  402e54:	27a60010 	addiu	a2,sp,16
  402e58:	27a40030 	addiu	a0,sp,48
  402e5c:	afb0001c 	sw	s0,28(sp)
  402e60:	afbf0024 	sw	ra,36(sp)
  402e64:	afa70034 	sw	a3,52(sp)
  402e68:	0c100b45 	jal	402d14 <buildargv>
  402e6c:	afa5002c 	sw	a1,44(sp)
  402e70:	10400005 	beqz	v0,402e88 <execle+0x44>
  402e74:	00408021 	move	s0,v0
  402e78:	8fa60010 	lw	a2,16(sp)
  402e7c:	02202021 	move	a0,s1
  402e80:	0c100d09 	jal	403424 <execve>
  402e84:	00402821 	move	a1,v0
  402e88:	02002021 	move	a0,s0
  402e8c:	0c1027f0 	jal	409fc0 <free>
  402e90:	8f918ee0 	lw	s1,-28960(gp)
  402e94:	8fbf0024 	lw	ra,36(sp)
  402e98:	8fb0001c 	lw	s0,28(sp)
  402e9c:	af918ee0 	sw	s1,-28960(gp)
  402ea0:	2402ffff 	li	v0,-1
  402ea4:	8fb10020 	lw	s1,32(sp)
  402ea8:	03e00008 	jr	ra
  402eac:	27bd0028 	addiu	sp,sp,40

00402eb0 <execv>:
  402eb0:	8f868e5c 	lw	a2,-29092(gp)
  402eb4:	27bdffe8 	addiu	sp,sp,-24
  402eb8:	afbf0014 	sw	ra,20(sp)
  402ebc:	0c100d09 	jal	403424 <execve>
  402ec0:	00000000 	nop
  402ec4:	8fbf0014 	lw	ra,20(sp)
  402ec8:	2402ffff 	li	v0,-1
  402ecc:	03e00008 	jr	ra
  402ed0:	27bd0018 	addiu	sp,sp,24

00402ed4 <execvp>:
  402ed4:	27bdfbb8 	addiu	sp,sp,-1096
  402ed8:	afb40430 	sw	s4,1072(sp)
  402edc:	00a0a021 	move	s4,a1
  402ee0:	2405002f 	li	a1,47
  402ee4:	afb3042c 	sw	s3,1068(sp)
  402ee8:	afbf0444 	sw	ra,1092(sp)
  402eec:	afbe0440 	sw	s8,1088(sp)
  402ef0:	afb7043c 	sw	s7,1084(sp)
  402ef4:	afb60438 	sw	s6,1080(sp)
  402ef8:	afb50434 	sw	s5,1076(sp)
  402efc:	afb20428 	sw	s2,1064(sp)
  402f00:	afb10424 	sw	s1,1060(sp)
  402f04:	afb00420 	sw	s0,1056(sp)
  402f08:	0c100d2f 	jal	4034bc <index>
  402f0c:	00809821 	move	s3,a0
  402f10:	10400004 	beqz	v0,402f24 <execvp+0x50>
  402f14:	02609021 	move	s2,s3
  402f18:	afa00410 	sw	zero,1040(sp)
  402f1c:	08100bec 	j	402fb0 <execvp+0xdc>
  402f20:	00008021 	move	s0,zero
  402f24:	3c040041 	lui	a0,0x41
  402f28:	0c100dc1 	jal	403704 <getenv>
  402f2c:	2484c71c 	addiu	a0,a0,-14564
  402f30:	14400003 	bnez	v0,402f40 <execvp+0x6c>
  402f34:	00000000 	nop
  402f38:	3c020041 	lui	v0,0x41
  402f3c:	2442c708 	addiu	v0,v0,-14584
  402f40:	0c100c9c 	jal	403270 <strdup>
  402f44:	00402021 	move	a0,v0
  402f48:	00408021 	move	s0,v0
  402f4c:	afa20410 	sw	v0,1040(sp)
  402f50:	27b20010 	addiu	s2,sp,16
  402f54:	00008821 	move	s1,zero
  402f58:	08100c08 	j	403020 <execvp+0x14c>
  402f5c:	0000a821 	move	s5,zero
  402f60:	27a50010 	addiu	a1,sp,16
  402f64:	02e03021 	move	a2,s7
  402f68:	afa8041c 	sw	t0,1052(sp)
  402f6c:	0c102893 	jal	40a24c <bcopy>
  402f70:	afa20418 	sw	v0,1048(sp)
  402f74:	27a40010 	addiu	a0,sp,16
  402f78:	00971821 	addu	v1,a0,s7
  402f7c:	2404002f 	li	a0,47
  402f80:	a0640000 	sb	a0,0(v1)
  402f84:	8fa20418 	lw	v0,1048(sp)
  402f88:	27a30010 	addiu	v1,sp,16
  402f8c:	26e40001 	addiu	a0,s7,1
  402f90:	00642021 	addu	a0,v1,a0
  402f94:	02602821 	move	a1,s3
  402f98:	0c10292c 	jal	40a4b0 <memcpy>
  402f9c:	00403021 	move	a2,v0
  402fa0:	8fa8041c 	lw	t0,1052(sp)
  402fa4:	27a40010 	addiu	a0,sp,16
  402fa8:	00884021 	addu	t0,a0,t0
  402fac:	a1000001 	sb	zero,1(t0)
  402fb0:	24160008 	li	s6,8
  402fb4:	2417000d 	li	s7,13
  402fb8:	241e001a 	li	s8,26
  402fbc:	2a230003 	slti	v1,s1,3
  402fc0:	8f868e5c 	lw	a2,-29092(gp)
  402fc4:	02402021 	move	a0,s2
  402fc8:	02802821 	move	a1,s4
  402fcc:	0c100d09 	jal	403424 <execve>
  402fd0:	afa30418 	sw	v1,1048(sp)
  402fd4:	8f828ee0 	lw	v0,-28960(gp)
  402fd8:	1056000f 	beq	v0,s6,403018 <execvp+0x144>
  402fdc:	8fa30418 	lw	v1,1048(sp)
  402fe0:	28440009 	slti	a0,v0,9
  402fe4:	10800006 	beqz	a0,403000 <execvp+0x12c>
  402fe8:	00000000 	nop
  402fec:	24030002 	li	v1,2
  402ff0:	1043000c 	beq	v0,v1,403024 <execvp+0x150>
  402ff4:	3c1e0041 	lui	s8,0x41
  402ff8:	08100c60 	j	403180 <execvp+0x2ac>
  402ffc:	00000000 	nop
  403000:	50570007 	beql	v0,s7,403020 <execvp+0x14c>
  403004:	24150001 	li	s5,1
  403008:	105e002b 	beq	v0,s8,4030b8 <execvp+0x1e4>
  40300c:	00000000 	nop
  403010:	08100c60 	j	403180 <execvp+0x2ac>
  403014:	00000000 	nop
  403018:	08100c0b 	j	40302c <execvp+0x158>
  40301c:	00002821 	move	a1,zero
  403020:	3c1e0041 	lui	s8,0x41
  403024:	08100c4f 	j	40313c <execvp+0x268>
  403028:	27dec730 	addiu	s8,s8,-14544
  40302c:	00059880 	sll	s3,a1,0x2
  403030:	02931021 	addu	v0,s4,s3
  403034:	8c420000 	lw	v0,0(v0)
  403038:	10400003 	beqz	v0,403048 <execvp+0x174>
  40303c:	8f828e38 	lw	v0,-29128(gp)
  403040:	08100c0b 	j	40302c <execvp+0x158>
  403044:	24a50001 	addiu	a1,a1,1
  403048:	24a50002 	addiu	a1,a1,2
  40304c:	00052880 	sll	a1,a1,0x2
  403050:	0045102b 	sltu	v0,v0,a1
  403054:	10400009 	beqz	v0,40307c <execvp+0x1a8>
  403058:	8f918e34 	lw	s1,-29132(gp)
  40305c:	8f848e34 	lw	a0,-29132(gp)
  403060:	0c1027ff 	jal	409ffc <realloc>
  403064:	af858e38 	sw	a1,-29128(gp)
  403068:	14400003 	bnez	v0,403078 <execvp+0x1a4>
  40306c:	af828e34 	sw	v0,-29132(gp)
  403070:	08100c60 	j	403180 <execvp+0x2ac>
  403074:	af808e38 	sw	zero,-29128(gp)
  403078:	8f918e34 	lw	s1,-29132(gp)
  40307c:	3c020041 	lui	v0,0x41
  403080:	2442c6b4 	addiu	v0,v0,-14668
  403084:	26840004 	addiu	a0,s4,4
  403088:	26250008 	addiu	a1,s1,8
  40308c:	02603021 	move	a2,s3
  403090:	ae220000 	sw	v0,0(s1)
  403094:	0c102893 	jal	40a24c <bcopy>
  403098:	ae320004 	sw	s2,4(s1)
  40309c:	8f868e5c 	lw	a2,-29092(gp)
  4030a0:	3c040041 	lui	a0,0x41
  4030a4:	2484c6ac 	addiu	a0,a0,-14676
  4030a8:	0c100d09 	jal	403424 <execve>
  4030ac:	02202821 	move	a1,s1
  4030b0:	08100c60 	j	403180 <execvp+0x2ac>
  4030b4:	00000000 	nop
  4030b8:	1060ffc2 	beqz	v1,402fc4 <execvp+0xf0>
  4030bc:	8f868e5c 	lw	a2,-29092(gp)
  4030c0:	26310001 	addiu	s1,s1,1
  4030c4:	0c100cb6 	jal	4032d8 <sleep>
  4030c8:	02202021 	move	a0,s1
  4030cc:	08100bf0 	j	402fc0 <execvp+0xec>
  4030d0:	2a230003 	slti	v1,s1,3
  4030d4:	92c20000 	lbu	v0,0(s6)
  4030d8:	10400020 	beqz	v0,40315c <execvp+0x288>
  4030dc:	3c030041 	lui	v1,0x41
  4030e0:	0c1015a1 	jal	405684 <strlen>
  4030e4:	02c02021 	move	a0,s6
  4030e8:	0040b821 	move	s7,v0
  4030ec:	0c1015a1 	jal	405684 <strlen>
  4030f0:	02602021 	move	a0,s3
  4030f4:	02e24021 	addu	t0,s7,v0
  4030f8:	25040002 	addiu	a0,t0,2
  4030fc:	2c840401 	sltiu	a0,a0,1025
  403100:	1480ff97 	bnez	a0,402f60 <execvp+0x8c>
  403104:	02c02021 	move	a0,s6
  403108:	3c050041 	lui	a1,0x41
  40310c:	24040002 	li	a0,2
  403110:	24a5c724 	addiu	a1,a1,-14556
  403114:	0c1025fd 	jal	4097f4 <write>
  403118:	24060008 	li	a2,8
  40311c:	24040002 	li	a0,2
  403120:	02c02821 	move	a1,s6
  403124:	0c1025fd 	jal	4097f4 <write>
  403128:	02e03021 	move	a2,s7
  40312c:	24040002 	li	a0,2
  403130:	03c02821 	move	a1,s8
  403134:	0c1025fd 	jal	4097f4 <write>
  403138:	24060010 	li	a2,16
  40313c:	3c050041 	lui	a1,0x41
  403140:	27a40410 	addiu	a0,sp,1040
  403144:	0c100d11 	jal	403444 <strsep>
  403148:	24a5c744 	addiu	a1,a1,-14524
  40314c:	1440ffe1 	bnez	v0,4030d4 <execvp+0x200>
  403150:	0040b021 	move	s6,v0
  403154:	08100c5a 	j	403168 <execvp+0x294>
  403158:	2402000d 	li	v0,13
  40315c:	2476c718 	addiu	s6,v1,-14568
  403160:	08100c3b 	j	4030ec <execvp+0x218>
  403164:	24170001 	li	s7,1
  403168:	56a00005 	bnezl	s5,403180 <execvp+0x2ac>
  40316c:	af828ee0 	sw	v0,-28960(gp)
  403170:	8f828ee0 	lw	v0,-28960(gp)
  403174:	14400002 	bnez	v0,403180 <execvp+0x2ac>
  403178:	24020002 	li	v0,2
  40317c:	af828ee0 	sw	v0,-28960(gp)
  403180:	12000004 	beqz	s0,403194 <execvp+0x2c0>
  403184:	8fbf0444 	lw	ra,1092(sp)
  403188:	0c1027f0 	jal	409fc0 <free>
  40318c:	02002021 	move	a0,s0
  403190:	8fbf0444 	lw	ra,1092(sp)
  403194:	8fbe0440 	lw	s8,1088(sp)
  403198:	8fb7043c 	lw	s7,1084(sp)
  40319c:	8fb60438 	lw	s6,1080(sp)
  4031a0:	8fb50434 	lw	s5,1076(sp)
  4031a4:	8fb40430 	lw	s4,1072(sp)
  4031a8:	8fb3042c 	lw	s3,1068(sp)
  4031ac:	8fb20428 	lw	s2,1064(sp)
  4031b0:	8fb10424 	lw	s1,1060(sp)
  4031b4:	8fb00420 	lw	s0,1056(sp)
  4031b8:	2402ffff 	li	v0,-1
  4031bc:	03e00008 	jr	ra
  4031c0:	27bd0448 	addiu	sp,sp,1096

004031c4 <execlp>:
  4031c4:	27bdffe0 	addiu	sp,sp,-32
  4031c8:	afb10018 	sw	s1,24(sp)
  4031cc:	afa60028 	sw	a2,40(sp)
  4031d0:	00808821 	move	s1,a0
  4031d4:	00003021 	move	a2,zero
  4031d8:	27a40028 	addiu	a0,sp,40
  4031dc:	afb00014 	sw	s0,20(sp)
  4031e0:	afbf001c 	sw	ra,28(sp)
  4031e4:	afa7002c 	sw	a3,44(sp)
  4031e8:	0c100b45 	jal	402d14 <buildargv>
  4031ec:	afa50024 	sw	a1,36(sp)
  4031f0:	10400004 	beqz	v0,403204 <execlp+0x40>
  4031f4:	00408021 	move	s0,v0
  4031f8:	02202021 	move	a0,s1
  4031fc:	0c100bb5 	jal	402ed4 <execvp>
  403200:	00402821 	move	a1,v0
  403204:	02002021 	move	a0,s0
  403208:	0c1027f0 	jal	409fc0 <free>
  40320c:	8f918ee0 	lw	s1,-28960(gp)
  403210:	8fbf001c 	lw	ra,28(sp)
  403214:	8fb00014 	lw	s0,20(sp)
  403218:	af918ee0 	sw	s1,-28960(gp)
  40321c:	2402ffff 	li	v0,-1
  403220:	8fb10018 	lw	s1,24(sp)
  403224:	03e00008 	jr	ra
  403228:	27bd0020 	addiu	sp,sp,32

0040322c <strrchr>:
  40322c:	00001021 	move	v0,zero
  403230:	90830000 	lbu	v1,0(a0)
  403234:	00653026 	xor	a2,v1,a1
  403238:	10600003 	beqz	v1,403248 <strrchr+0x1c>
  40323c:	0086100a 	movz	v0,a0,a2
  403240:	08100c8c 	j	403230 <strrchr+0x4>
  403244:	24840001 	addiu	a0,a0,1
  403248:	03e00008 	jr	ra
  40324c:	00000000 	nop

00403250 <wait4>:
  403250:	24020007 	li	v0,7
  403254:	0000000c 	syscall
  403258:	14e00003 	bnez	a3,403268 <err>
  40325c:	00000000 	nop
  403260:	03e00008 	jr	ra
  403264:	00000000 	nop

00403268 <err>:
  403268:	081029a3 	j	40a68c <_cerror>
  40326c:	00000000 	nop

00403270 <strdup>:
  403270:	27bdffe0 	addiu	sp,sp,-32
  403274:	afbf001c 	sw	ra,28(sp)
  403278:	afb20018 	sw	s2,24(sp)
  40327c:	afb10014 	sw	s1,20(sp)
  403280:	afb00010 	sw	s0,16(sp)
  403284:	0c1015a1 	jal	405684 <strlen>
  403288:	00809021 	move	s2,a0
  40328c:	24510001 	addiu	s1,v0,1
  403290:	0c102781 	jal	409e04 <malloc>
  403294:	02202021 	move	a0,s1
  403298:	10400005 	beqz	v0,4032b0 <strdup+0x40>
  40329c:	00408021 	move	s0,v0
  4032a0:	02402021 	move	a0,s2
  4032a4:	00402821 	move	a1,v0
  4032a8:	0c102893 	jal	40a24c <bcopy>
  4032ac:	02203021 	move	a2,s1
  4032b0:	8fbf001c 	lw	ra,28(sp)
  4032b4:	02001021 	move	v0,s0
  4032b8:	8fb20018 	lw	s2,24(sp)
  4032bc:	8fb10014 	lw	s1,20(sp)
  4032c0:	8fb00010 	lw	s0,16(sp)
  4032c4:	03e00008 	jr	ra
  4032c8:	27bd0020 	addiu	sp,sp,32

004032cc <sleephandler>:
  4032cc:	24020001 	li	v0,1
  4032d0:	03e00008 	jr	ra
  4032d4:	af828e44 	sw	v0,-29116(gp)

004032d8 <sleep>:
  4032d8:	27bdffa8 	addiu	sp,sp,-88
  4032dc:	00001021 	move	v0,zero
  4032e0:	afb0004c 	sw	s0,76(sp)
  4032e4:	afbf0054 	sw	ra,84(sp)
  4032e8:	afb10050 	sw	s1,80(sp)
  4032ec:	10800048 	beqz	a0,403410 <sleep+0x138>
  4032f0:	00808021 	move	s0,a0
  4032f4:	00002021 	move	a0,zero
  4032f8:	27a50020 	addiu	a1,sp,32
  4032fc:	27a60010 	addiu	a2,sp,16
  403300:	afa00024 	sw	zero,36(sp)
  403304:	afa00020 	sw	zero,32(sp)
  403308:	afa0002c 	sw	zero,44(sp)
  40330c:	0c100d6d 	jal	4035b4 <setitimer>
  403310:	afa00028 	sw	zero,40(sp)
  403314:	0440003d 	bltz	v0,40340c <sleep+0x134>
  403318:	8fa20018 	lw	v0,24(sp)
  40331c:	14400006 	bnez	v0,403338 <sleep+0x60>
  403320:	afb00028 	sw	s0,40(sp)
  403324:	8fa3001c 	lw	v1,28(sp)
  403328:	14600008 	bnez	v1,40334c <sleep+0x74>
  40332c:	0202182a 	slt	v1,s0,v0
  403330:	08100cdf 	j	40337c <sleep+0xa4>
  403334:	3c020040 	lui	v0,0x40
  403338:	54500004 	bnel	v0,s0,40334c <sleep+0x74>
  40333c:	0202182a 	slt	v1,s0,v0
  403340:	8fa3002c 	lw	v1,44(sp)
  403344:	8fa4001c 	lw	a0,28(sp)
  403348:	0064182a 	slt	v1,v1,a0
  40334c:	50600004 	beqzl	v1,403360 <sleep+0x88>
  403350:	8fa20018 	lw	v0,24(sp)
  403354:	00508023 	subu	s0,v0,s0
  403358:	08100cde 	j	403378 <sleep+0xa0>
  40335c:	afb00018 	sw	s0,24(sp)
  403360:	afa20028 	sw	v0,40(sp)
  403364:	8fa2001c 	lw	v0,28(sp)
  403368:	afa0001c 	sw	zero,28(sp)
  40336c:	afa2002c 	sw	v0,44(sp)
  403370:	24020001 	li	v0,1
  403374:	afa20018 	sw	v0,24(sp)
  403378:	3c020040 	lui	v0,0x40
  40337c:	27a5003c 	addiu	a1,sp,60
  403380:	27a60030 	addiu	a2,sp,48
  403384:	244232cc 	addiu	v0,v0,13004
  403388:	2404000e 	li	a0,14
  40338c:	afa2003c 	sw	v0,60(sp)
  403390:	afa00044 	sw	zero,68(sp)
  403394:	0c100d38 	jal	4034e0 <sigvec>
  403398:	afa00040 	sw	zero,64(sp)
  40339c:	0c100d59 	jal	403564 <sigblock>
  4033a0:	24042000 	li	a0,8192
  4033a4:	00408021 	move	s0,v0
  4033a8:	00002021 	move	a0,zero
  4033ac:	27a50020 	addiu	a1,sp,32
  4033b0:	00003021 	move	a2,zero
  4033b4:	2411dfff 	li	s1,-8193
  4033b8:	af808e44 	sw	zero,-29116(gp)
  4033bc:	0c100d6d 	jal	4035b4 <setitimer>
  4033c0:	02118824 	and	s1,s0,s1
  4033c4:	8f828e44 	lw	v0,-29116(gp)
  4033c8:	14400005 	bnez	v0,4033e0 <sleep+0x108>
  4033cc:	27a50030 	addiu	a1,sp,48
  4033d0:	0c100d65 	jal	403594 <sigpause>
  4033d4:	02202021 	move	a0,s1
  4033d8:	08100cf2 	j	4033c8 <sleep+0xf0>
  4033dc:	8f828e44 	lw	v0,-29116(gp)
  4033e0:	00003021 	move	a2,zero
  4033e4:	0c100d38 	jal	4034e0 <sigvec>
  4033e8:	2404000e 	li	a0,14
  4033ec:	0c100d4d 	jal	403534 <sigsetmask>
  4033f0:	02002021 	move	a0,s0
  4033f4:	00002021 	move	a0,zero
  4033f8:	27a50010 	addiu	a1,sp,16
  4033fc:	0c100d6d 	jal	4035b4 <setitimer>
  403400:	00003021 	move	a2,zero
  403404:	08100d04 	j	403410 <sleep+0x138>
  403408:	00001021 	move	v0,zero
  40340c:	02001021 	move	v0,s0
  403410:	8fbf0054 	lw	ra,84(sp)
  403414:	8fb10050 	lw	s1,80(sp)
  403418:	8fb0004c 	lw	s0,76(sp)
  40341c:	03e00008 	jr	ra
  403420:	27bd0058 	addiu	sp,sp,88

00403424 <execve>:
  403424:	2402003b 	li	v0,59
  403428:	0000000c 	syscall
  40342c:	14e00003 	bnez	a3,40343c <err>
  403430:	00000000 	nop
  403434:	03e00008 	jr	ra
  403438:	00000000 	nop

0040343c <err>:
  40343c:	081029a3 	j	40a68c <_cerror>
  403440:	00000000 	nop

00403444 <strsep>:
  403444:	8c820000 	lw	v0,0(a0)
  403448:	10400011 	beqz	v0,403490 <strsep+0x4c>
  40344c:	00403021 	move	a2,v0
  403450:	24c30001 	addiu	v1,a2,1
  403454:	9069ffff 	lbu	t1,-1(v1)
  403458:	00a03821 	move	a3,a1
  40345c:	24e70001 	addiu	a3,a3,1
  403460:	90e8ffff 	lbu	t0,-1(a3)
  403464:	15090006 	bne	t0,t1,403480 <strsep+0x3c>
  403468:	00000000 	nop
  40346c:	51200002 	beqzl	t1,403478 <strsep+0x34>
  403470:	00001821 	move	v1,zero
  403474:	a0c00000 	sb	zero,0(a2)
  403478:	03e00008 	jr	ra
  40347c:	ac830000 	sw	v1,0(a0)
  403480:	1500fff7 	bnez	t0,403460 <strsep+0x1c>
  403484:	24e70001 	addiu	a3,a3,1
  403488:	08100d14 	j	403450 <strsep+0xc>
  40348c:	00603021 	move	a2,v1
  403490:	03e00008 	jr	ra
  403494:	00001021 	move	v0,zero
  403498:	29232840 	slti	v1,t1,10304
  40349c:	65646e69 	0x65646e69
  4034a0:	09732e78 	j	5ccb9e0 <_gp+0x58b5810>
  4034a4:	20312e38 	addi	s1,at,11832
  4034a8:	72654228 	0x72654228
  4034ac:	656c656b 	0x656c656b
  4034b0:	36202979 	ori	zero,s1,0x2979
  4034b4:	392f342f 	xori	t7,t1,0x342f
  4034b8:	00000033 	tltu	zero,zero

004034bc <index>:
  4034bc:	90860000 	lbu	a2,0(a0)
  4034c0:	10c50005 	beq	a2,a1,4034d8 <fnd>
  4034c4:	24840001 	addiu	a0,a0,1
  4034c8:	14c0fffc 	bnez	a2,4034bc <index>
  4034cc:	00000000 	nop

004034d0 <notfnd>:
  4034d0:	03e00008 	jr	ra
  4034d4:	00001021 	move	v0,zero

004034d8 <fnd>:
  4034d8:	03e00008 	jr	ra
  4034dc:	2482ffff 	addiu	v0,a0,-1

004034e0 <sigvec>:
  4034e0:	27bdffe8 	addiu	sp,sp,-24
  4034e4:	afb00010 	sw	s0,16(sp)
  4034e8:	afbf0014 	sw	ra,20(sp)
  4034ec:	10a00004 	beqz	a1,403500 <sigvec+0x20>
  4034f0:	00c08021 	move	s0,a2
  4034f4:	8ca20008 	lw	v0,8(a1)
  4034f8:	38420002 	xori	v0,v0,0x2
  4034fc:	aca20008 	sw	v0,8(a1)
  403500:	0c1023d1 	jal	408f44 <sigaction>
  403504:	02003021 	move	a2,s0
  403508:	14400007 	bnez	v0,403528 <sigvec+0x48>
  40350c:	8fbf0014 	lw	ra,20(sp)
  403510:	52000006 	beqzl	s0,40352c <sigvec+0x4c>
  403514:	8fb00010 	lw	s0,16(sp)
  403518:	8e030008 	lw	v1,8(s0)
  40351c:	38630002 	xori	v1,v1,0x2
  403520:	ae030008 	sw	v1,8(s0)
  403524:	8fbf0014 	lw	ra,20(sp)
  403528:	8fb00010 	lw	s0,16(sp)
  40352c:	03e00008 	jr	ra
  403530:	27bd0018 	addiu	sp,sp,24

00403534 <sigsetmask>:
  403534:	27bdffe0 	addiu	sp,sp,-32
  403538:	27a50020 	addiu	a1,sp,32
  40353c:	27a60010 	addiu	a2,sp,16
  403540:	afa40020 	sw	a0,32(sp)
  403544:	afbf001c 	sw	ra,28(sp)
  403548:	0c102301 	jal	408c04 <sigprocmask>
  40354c:	24040003 	li	a0,3
  403550:	8fa30010 	lw	v1,16(sp)
  403554:	8fbf001c 	lw	ra,28(sp)
  403558:	27bd0020 	addiu	sp,sp,32
  40355c:	03e00008 	jr	ra
  403560:	0062100a 	movz	v0,v1,v0

00403564 <sigblock>:
  403564:	27bdffe0 	addiu	sp,sp,-32
  403568:	27a50020 	addiu	a1,sp,32
  40356c:	27a60010 	addiu	a2,sp,16
  403570:	afa40020 	sw	a0,32(sp)
  403574:	afbf001c 	sw	ra,28(sp)
  403578:	0c102301 	jal	408c04 <sigprocmask>
  40357c:	24040001 	li	a0,1
  403580:	8fa30010 	lw	v1,16(sp)
  403584:	8fbf001c 	lw	ra,28(sp)
  403588:	27bd0020 	addiu	sp,sp,32
  40358c:	03e00008 	jr	ra
  403590:	0062100a 	movz	v0,v1,v0

00403594 <sigpause>:
  403594:	27bdffe8 	addiu	sp,sp,-24
  403598:	afa40018 	sw	a0,24(sp)
  40359c:	afbf0014 	sw	ra,20(sp)
  4035a0:	0c100d7f 	jal	4035fc <sigsuspend>
  4035a4:	27a40018 	addiu	a0,sp,24
  4035a8:	8fbf0014 	lw	ra,20(sp)
  4035ac:	03e00008 	jr	ra
  4035b0:	27bd0018 	addiu	sp,sp,24

004035b4 <setitimer>:
  4035b4:	24020053 	li	v0,83
  4035b8:	0000000c 	syscall
  4035bc:	14e00003 	bnez	a3,4035cc <err>
  4035c0:	00000000 	nop
  4035c4:	03e00008 	jr	ra
  4035c8:	00000000 	nop

004035cc <err>:
  4035cc:	081029a3 	j	40a68c <_cerror>
  4035d0:	00000000 	nop
  4035d4:	29232840 	slti	v1,t1,10304
  4035d8:	73676973 	0x73676973
  4035dc:	65707375 	0x65707375
  4035e0:	732e646e 	0x732e646e
  4035e4:	312e3809 	andi	t6,t1,0x3809
  4035e8:	65422820 	0x65422820
  4035ec:	6c656b72 	0x6c656b72
  4035f0:	20297965 	addi	t1,at,31077
  4035f4:	2f342f36 	sltiu	s4,t9,12086
  4035f8:	00003339 	0x3339

004035fc <sigsuspend>:
  4035fc:	8c840000 	lw	a0,0(a0)
  403600:	2402006f 	li	v0,111
  403604:	0000000c 	syscall
  403608:	14e00003 	bnez	a3,403618 <sigsuspend+0x1c>
  40360c:	00000000 	nop
  403610:	03e00008 	jr	ra
  403614:	00001021 	move	v0,zero
  403618:	081029a3 	j	40a68c <_cerror>
  40361c:	00000000 	nop

00403620 <__findenv>:
  403620:	27bdffd0 	addiu	sp,sp,-48
  403624:	afb20018 	sw	s2,24(sp)
  403628:	afbf002c 	sw	ra,44(sp)
  40362c:	afb60028 	sw	s6,40(sp)
  403630:	afb50024 	sw	s5,36(sp)
  403634:	afb40020 	sw	s4,32(sp)
  403638:	afb3001c 	sw	s3,28(sp)
  40363c:	afb10014 	sw	s1,20(sp)
  403640:	afb00010 	sw	s0,16(sp)
  403644:	10800024 	beqz	a0,4036d8 <__findenv+0xb8>
  403648:	00809021 	move	s2,a0
  40364c:	8f938e5c 	lw	s3,-29092(gp)
  403650:	12600021 	beqz	s3,4036d8 <__findenv+0xb8>
  403654:	00801021 	move	v0,a0
  403658:	00a0a821 	move	s5,a1
  40365c:	2404003d 	li	a0,61
  403660:	90430000 	lbu	v1,0(v0)
  403664:	14600004 	bnez	v1,403678 <__findenv+0x58>
  403668:	0052a023 	subu	s4,v0,s2
  40366c:	02608821 	move	s1,s3
  403670:	08100da8 	j	4036a0 <__findenv+0x80>
  403674:	2416003d 	li	s6,61
  403678:	1064fffc 	beq	v1,a0,40366c <__findenv+0x4c>
  40367c:	00000000 	nop
  403680:	08100d98 	j	403660 <__findenv+0x40>
  403684:	24420001 	addiu	v0,v0,1
  403688:	02402821 	move	a1,s2
  40368c:	0c100dc8 	jal	403720 <strncmp>
  403690:	02803021 	move	a2,s4
  403694:	10400007 	beqz	v0,4036b4 <__findenv+0x94>
  403698:	02141021 	addu	v0,s0,s4
  40369c:	26310004 	addiu	s1,s1,4
  4036a0:	8e300000 	lw	s0,0(s1)
  4036a4:	1600fff8 	bnez	s0,403688 <__findenv+0x68>
  4036a8:	02002021 	move	a0,s0
  4036ac:	08100db7 	j	4036dc <__findenv+0xbc>
  4036b0:	00001021 	move	v0,zero
  4036b4:	90420000 	lbu	v0,0(v0)
  4036b8:	5456fff9 	bnel	v0,s6,4036a0 <__findenv+0x80>
  4036bc:	26310004 	addiu	s1,s1,4
  4036c0:	02338823 	subu	s1,s1,s3
  4036c4:	00118883 	sra	s1,s1,0x2
  4036c8:	26820001 	addiu	v0,s4,1
  4036cc:	aeb10000 	sw	s1,0(s5)
  4036d0:	08100db7 	j	4036dc <__findenv+0xbc>
  4036d4:	02021021 	addu	v0,s0,v0
  4036d8:	00001021 	move	v0,zero
  4036dc:	8fbf002c 	lw	ra,44(sp)
  4036e0:	8fb60028 	lw	s6,40(sp)
  4036e4:	8fb50024 	lw	s5,36(sp)
  4036e8:	8fb40020 	lw	s4,32(sp)
  4036ec:	8fb3001c 	lw	s3,28(sp)
  4036f0:	8fb20018 	lw	s2,24(sp)
  4036f4:	8fb10014 	lw	s1,20(sp)
  4036f8:	8fb00010 	lw	s0,16(sp)
  4036fc:	03e00008 	jr	ra
  403700:	27bd0030 	addiu	sp,sp,48

00403704 <getenv>:
  403704:	27bdffe0 	addiu	sp,sp,-32
  403708:	afbf001c 	sw	ra,28(sp)
  40370c:	0c100d88 	jal	403620 <__findenv>
  403710:	27a50010 	addiu	a1,sp,16
  403714:	8fbf001c 	lw	ra,28(sp)
  403718:	03e00008 	jr	ra
  40371c:	27bd0020 	addiu	sp,sp,32

00403720 <strncmp>:
  403720:	10c00010 	beqz	a2,403764 <strncmp+0x44>
  403724:	00001021 	move	v0,zero
  403728:	00001821 	move	v1,zero
  40372c:	00831021 	addu	v0,a0,v1
  403730:	00a33821 	addu	a3,a1,v1
  403734:	90420000 	lbu	v0,0(v0)
  403738:	90e70000 	lbu	a3,0(a3)
  40373c:	10470003 	beq	v0,a3,40374c <strncmp+0x2c>
  403740:	00000000 	nop
  403744:	03e00008 	jr	ra
  403748:	00471023 	subu	v0,v0,a3
  40374c:	10400005 	beqz	v0,403764 <strncmp+0x44>
  403750:	00001021 	move	v0,zero
  403754:	24630001 	addiu	v1,v1,1
  403758:	54c3fff5 	bnel	a2,v1,403730 <strncmp+0x10>
  40375c:	00831021 	addu	v0,a0,v1
  403760:	00001021 	move	v0,zero
  403764:	03e00008 	jr	ra
  403768:	00000000 	nop

0040376c <unlink>:
  40376c:	2402000a 	li	v0,10
  403770:	0000000c 	syscall
  403774:	14e00003 	bnez	a3,403784 <err>
  403778:	00000000 	nop
  40377c:	03e00008 	jr	ra
  403780:	00000000 	nop

00403784 <err>:
  403784:	081029a3 	j	40a68c <_cerror>
  403788:	00000000 	nop

0040378c <mktemp_internal>:
  40378c:	27bdff60 	addiu	sp,sp,-160
  403790:	afb40088 	sw	s4,136(sp)
  403794:	afb1007c 	sw	s1,124(sp)
  403798:	afb00078 	sw	s0,120(sp)
  40379c:	afbf009c 	sw	ra,156(sp)
  4037a0:	afbe0098 	sw	s8,152(sp)
  4037a4:	afb70094 	sw	s7,148(sp)
  4037a8:	afb60090 	sw	s6,144(sp)
  4037ac:	afb5008c 	sw	s5,140(sp)
  4037b0:	afb30084 	sw	s3,132(sp)
  4037b4:	afb20080 	sw	s2,128(sp)
  4037b8:	00808821 	move	s1,a0
  4037bc:	00a08021 	move	s0,a1
  4037c0:	0c1015a1 	jal	405684 <strlen>
  4037c4:	00c0a021 	move	s4,a2
  4037c8:	2c430006 	sltiu	v1,v0,6
  4037cc:	5460004b 	bnezl	v1,4038fc <mktemp_internal+0x170>
  4037d0:	24020016 	li	v0,22
  4037d4:	06000004 	bltz	s0,4037e8 <mktemp_internal+0x5c>
  4037d8:	2443fffa 	addiu	v1,v0,-6
  4037dc:	0070182b 	sltu	v1,v1,s0
  4037e0:	10600003 	beqz	v1,4037f0 <mktemp_internal+0x64>
  4037e4:	00509823 	subu	s3,v0,s0
  4037e8:	08100e3f 	j	4038fc <mktemp_internal+0x170>
  4037ec:	24020016 	li	v0,22
  4037f0:	02339821 	addu	s3,s1,s3
  4037f4:	02608021 	move	s0,s3
  4037f8:	24020058 	li	v0,88
  4037fc:	0230182b 	sltu	v1,s1,s0
  403800:	5460000b 	bnezl	v1,403830 <mktemp_internal+0xa4>
  403804:	9203ffff 	lbu	v1,-1(s0)
  403808:	02701023 	subu	v0,s3,s0
  40380c:	28420006 	slti	v0,v0,6
  403810:	1440fff5 	bnez	v0,4037e8 <mktemp_internal+0x5c>
  403814:	3c127fff 	lui	s2,0x7fff
  403818:	3652ffff 	ori	s2,s2,0xffff
  40381c:	2415003e 	li	s5,62
  403820:	24170001 	li	s7,1
  403824:	241effff 	li	s8,-1
  403828:	08100e10 	j	403840 <mktemp_internal+0xb4>
  40382c:	24160011 	li	s6,17
  403830:	5462fff6 	bnel	v1,v0,40380c <mktemp_internal+0x80>
  403834:	02701023 	subu	v0,s3,s0
  403838:	08100dff 	j	4037fc <mktemp_internal+0x70>
  40383c:	2610ffff 	addiu	s0,s0,-1
  403840:	02001821 	move	v1,s0
  403844:	10730009 	beq	v1,s3,40386c <mktemp_internal+0xe0>
  403848:	24630001 	addiu	v1,v1,1
  40384c:	0c100eb7 	jal	403adc <random>
  403850:	afa30070 	sw	v1,112(sp)
  403854:	0055001b 	divu	zero,v0,s5
  403858:	02a001f4 	teq	s5,zero,0x7
  40385c:	8fa30070 	lw	v1,112(sp)
  403860:	00001010 	mfhi	v0
  403864:	08100e11 	j	403844 <mktemp_internal+0xb8>
  403868:	a062ffff 	sb	v0,-1(v1)
  40386c:	1297000f 	beq	s4,s7,4038ac <mktemp_internal+0x120>
  403870:	24020002 	li	v0,2
  403874:	12820018 	beq	s4,v0,4038d8 <mktemp_internal+0x14c>
  403878:	02202021 	move	a0,s1
  40387c:	5680001c 	bnezl	s4,4038f0 <mktemp_internal+0x164>
  403880:	2652ffff 	addiu	s2,s2,-1
  403884:	02202021 	move	a0,s1
  403888:	0c100f53 	jal	403d4c <lstat>
  40388c:	27a50010 	addiu	a1,sp,16
  403890:	10400017 	beqz	v0,4038f0 <mktemp_internal+0x164>
  403894:	2652ffff 	addiu	s2,s2,-1
  403898:	8f828ee0 	lw	v0,-28960(gp)
  40389c:	38420002 	xori	v0,v0,0x2
  4038a0:	0002102b 	sltu	v0,zero,v0
  4038a4:	08100e41 	j	403904 <mktemp_internal+0x178>
  4038a8:	00021023 	negu	v0,v0
  4038ac:	02202021 	move	a0,s1
  4038b0:	24050a02 	li	a1,2562
  4038b4:	0c10262a 	jal	4098a8 <open>
  4038b8:	24060180 	li	a2,384
  4038bc:	145e0012 	bne	v0,s8,403908 <mktemp_internal+0x17c>
  4038c0:	8fbf009c 	lw	ra,156(sp)
  4038c4:	8f828ee0 	lw	v0,-28960(gp)
  4038c8:	10560009 	beq	v0,s6,4038f0 <mktemp_internal+0x164>
  4038cc:	2652ffff 	addiu	s2,s2,-1
  4038d0:	08100e41 	j	403904 <mktemp_internal+0x178>
  4038d4:	2402ffff 	li	v0,-1
  4038d8:	0c100f4b 	jal	403d2c <mkdir>
  4038dc:	240501c0 	li	a1,448
  4038e0:	5440fff9 	bnezl	v0,4038c8 <mktemp_internal+0x13c>
  4038e4:	8f828ee0 	lw	v0,-28960(gp)
  4038e8:	08100e42 	j	403908 <mktemp_internal+0x17c>
  4038ec:	8fbf009c 	lw	ra,156(sp)
  4038f0:	1640ffd4 	bnez	s2,403844 <mktemp_internal+0xb8>
  4038f4:	02001821 	move	v1,s0
  4038f8:	24020011 	li	v0,17
  4038fc:	af828ee0 	sw	v0,-28960(gp)
  403900:	2402ffff 	li	v0,-1
  403904:	8fbf009c 	lw	ra,156(sp)
  403908:	8fbe0098 	lw	s8,152(sp)
  40390c:	8fb70094 	lw	s7,148(sp)
  403910:	8fb60090 	lw	s6,144(sp)
  403914:	8fb5008c 	lw	s5,140(sp)
  403918:	8fb40088 	lw	s4,136(sp)
  40391c:	8fb30084 	lw	s3,132(sp)
  403920:	8fb20080 	lw	s2,128(sp)
  403924:	8fb1007c 	lw	s1,124(sp)
  403928:	8fb00078 	lw	s0,120(sp)
  40392c:	03e00008 	jr	ra
  403930:	27bd00a0 	addiu	sp,sp,160

00403934 <_mktemp>:
  403934:	27bdffe8 	addiu	sp,sp,-24
  403938:	00002821 	move	a1,zero
  40393c:	00003021 	move	a2,zero
  403940:	afbf0014 	sw	ra,20(sp)
  403944:	afb00010 	sw	s0,16(sp)
  403948:	0c100de3 	jal	40378c <mktemp_internal>
  40394c:	00808021 	move	s0,a0
  403950:	8fbf0014 	lw	ra,20(sp)
  403954:	00021027 	nor	v0,zero,v0
  403958:	0002800a 	movz	s0,zero,v0
  40395c:	02001021 	move	v0,s0
  403960:	8fb00010 	lw	s0,16(sp)
  403964:	03e00008 	jr	ra
  403968:	27bd0018 	addiu	sp,sp,24

0040396c <mktemp>:
  40396c:	08100e4d 	j	403934 <_mktemp>
  403970:	00000000 	nop

00403974 <mkstemp>:
  403974:	00002821 	move	a1,zero
  403978:	08100de3 	j	40378c <mktemp_internal>
  40397c:	24060001 	li	a2,1

00403980 <mkstemps>:
  403980:	08100de3 	j	40378c <mktemp_internal>
  403984:	24060001 	li	a2,1

00403988 <mkdtemp>:
  403988:	27bdffe8 	addiu	sp,sp,-24
  40398c:	00002821 	move	a1,zero
  403990:	24060002 	li	a2,2
  403994:	afbf0014 	sw	ra,20(sp)
  403998:	afb00010 	sw	s0,16(sp)
  40399c:	0c100de3 	jal	40378c <mktemp_internal>
  4039a0:	00808021 	move	s0,a0
  4039a4:	8fbf0014 	lw	ra,20(sp)
  4039a8:	0002800b 	movn	s0,zero,v0
  4039ac:	02001021 	move	v0,s0
  4039b0:	8fb00010 	lw	s0,16(sp)
  4039b4:	03e00008 	jr	ra
  4039b8:	27bd0018 	addiu	sp,sp,24

004039bc <setstate>:
  4039bc:	27bdffe0 	addiu	sp,sp,-32
  4039c0:	afb10014 	sw	s1,20(sp)
  4039c4:	8c910000 	lw	s1,0(a0)
  4039c8:	24030005 	li	v1,5
  4039cc:	afb20018 	sw	s2,24(sp)
  4039d0:	0223001a 	div	zero,s1,v1
  4039d4:	006001f4 	teq	v1,zero,0x7
  4039d8:	00809021 	move	s2,a0
  4039dc:	8f84803c 	lw	a0,-32708(gp)
  4039e0:	afb00010 	sw	s0,16(sp)
  4039e4:	afbf001c 	sw	ra,28(sp)
  4039e8:	8f908040 	lw	s0,-32704(gp)
  4039ec:	14800003 	bnez	a0,4039fc <setstate+0x40>
  4039f0:	00001010 	mfhi	v0
  4039f4:	08100e85 	j	403a14 <setstate+0x58>
  4039f8:	ae00fffc 	sw	zero,-4(s0)
  4039fc:	8f858044 	lw	a1,-32700(gp)
  403a00:	00b02823 	subu	a1,a1,s0
  403a04:	00052883 	sra	a1,a1,0x2
  403a08:	70a33002 	mul	a2,a1,v1
  403a0c:	00c41821 	addu	v1,a2,a0
  403a10:	ae03fffc 	sw	v1,-4(s0)
  403a14:	2c430005 	sltiu	v1,v0,5
  403a18:	1060000d 	beqz	v1,403a50 <setstate+0x94>
  403a1c:	3c030041 	lui	v1,0x41
  403a20:	af82803c 	sw	v0,-32708(gp)
  403a24:	2463d094 	addiu	v1,v1,-12140
  403a28:	00021080 	sll	v0,v0,0x2
  403a2c:	00431821 	addu	v1,v0,v1
  403a30:	8c630000 	lw	v1,0(v1)
  403a34:	af838038 	sw	v1,-32712(gp)
  403a38:	3c030041 	lui	v1,0x41
  403a3c:	2463d080 	addiu	v1,v1,-12160
  403a40:	00431021 	addu	v0,v0,v1
  403a44:	8c420000 	lw	v0,0(v0)
  403a48:	08100e99 	j	403a64 <setstate+0xa8>
  403a4c:	af828034 	sw	v0,-32716(gp)
  403a50:	3c040041 	lui	a0,0x41
  403a54:	3c050041 	lui	a1,0x41
  403a58:	2484d024 	addiu	a0,a0,-12252
  403a5c:	0c100f5b 	jal	403d6c <fputs>
  403a60:	24a5e160 	addiu	a1,a1,-7840
  403a64:	8f83803c 	lw	v1,-32708(gp)
  403a68:	26440004 	addiu	a0,s2,4
  403a6c:	af848040 	sw	a0,-32704(gp)
  403a70:	10600010 	beqz	v1,403ab4 <setstate+0xf8>
  403a74:	8f828038 	lw	v0,-32712(gp)
  403a78:	24030005 	li	v1,5
  403a7c:	0223001a 	div	zero,s1,v1
  403a80:	006001f4 	teq	v1,zero,0x7
  403a84:	00008812 	mflo	s1
  403a88:	00111880 	sll	v1,s1,0x2
  403a8c:	00831821 	addu	v1,a0,v1
  403a90:	af838044 	sw	v1,-32700(gp)
  403a94:	8f838034 	lw	v1,-32716(gp)
  403a98:	02238821 	addu	s1,s1,v1
  403a9c:	0222001a 	div	zero,s1,v0
  403aa0:	004001f4 	teq	v0,zero,0x7
  403aa4:	00001810 	mfhi	v1
  403aa8:	00038880 	sll	s1,v1,0x2
  403aac:	00918821 	addu	s1,a0,s1
  403ab0:	af918048 	sw	s1,-32696(gp)
  403ab4:	8fbf001c 	lw	ra,28(sp)
  403ab8:	00021080 	sll	v0,v0,0x2
  403abc:	00822021 	addu	a0,a0,v0
  403ac0:	8fb20018 	lw	s2,24(sp)
  403ac4:	2602fffc 	addiu	v0,s0,-4
  403ac8:	8fb10014 	lw	s1,20(sp)
  403acc:	8fb00010 	lw	s0,16(sp)
  403ad0:	af848030 	sw	a0,-32720(gp)
  403ad4:	03e00008 	jr	ra
  403ad8:	27bd0020 	addiu	sp,sp,32

00403adc <random>:
  403adc:	8f82803c 	lw	v0,-32708(gp)
  403ae0:	1440000a 	bnez	v0,403b0c <random+0x30>
  403ae4:	8f838048 	lw	v1,-32696(gp)
  403ae8:	8f838040 	lw	v1,-32704(gp)
  403aec:	3c0241c6 	lui	v0,0x41c6
  403af0:	24424e6d 	addiu	v0,v0,20077
  403af4:	8c640000 	lw	a0,0(v1)
  403af8:	70821002 	mul	v0,a0,v0
  403afc:	24423039 	addiu	v0,v0,12345
  403b00:	7c42f000 	ext	v0,v0,0x0,0x1f
  403b04:	03e00008 	jr	ra
  403b08:	ac620000 	sw	v0,0(v1)
  403b0c:	8f848044 	lw	a0,-32700(gp)
  403b10:	8c650000 	lw	a1,0(v1)
  403b14:	8c820000 	lw	v0,0(a0)
  403b18:	24630004 	addiu	v1,v1,4
  403b1c:	24840004 	addiu	a0,a0,4
  403b20:	00a21021 	addu	v0,a1,v0
  403b24:	8f858030 	lw	a1,-32720(gp)
  403b28:	ac62fffc 	sw	v0,-4(v1)
  403b2c:	0065302b 	sltu	a2,v1,a1
  403b30:	14c00003 	bnez	a2,403b40 <random+0x64>
  403b34:	00021042 	srl	v0,v0,0x1
  403b38:	08100ed3 	j	403b4c <random+0x70>
  403b3c:	8f838040 	lw	v1,-32704(gp)
  403b40:	8f868040 	lw	a2,-32704(gp)
  403b44:	0085282b 	sltu	a1,a0,a1
  403b48:	00c5200a 	movz	a0,a2,a1
  403b4c:	af838048 	sw	v1,-32696(gp)
  403b50:	03e00008 	jr	ra
  403b54:	af848044 	sw	a0,-32700(gp)

00403b58 <srandom>:
  403b58:	8f828040 	lw	v0,-32704(gp)
  403b5c:	8f83803c 	lw	v1,-32708(gp)
  403b60:	27bdffe8 	addiu	sp,sp,-24
  403b64:	afbf0014 	sw	ra,20(sp)
  403b68:	1060001e 	beqz	v1,403be4 <srandom+0x8c>
  403b6c:	ac440000 	sw	a0,0(v0)
  403b70:	8f858038 	lw	a1,-32712(gp)
  403b74:	3c0741c6 	lui	a3,0x41c6
  403b78:	00401821 	move	v1,v0
  403b7c:	24040001 	li	a0,1
  403b80:	24e74e6d 	addiu	a3,a3,20077
  403b84:	0085302a 	slt	a2,a0,a1
  403b88:	10c00007 	beqz	a2,403ba8 <srandom+0x50>
  403b8c:	24630004 	addiu	v1,v1,4
  403b90:	8c66fffc 	lw	a2,-4(v1)
  403b94:	24840001 	addiu	a0,a0,1
  403b98:	70c73002 	mul	a2,a2,a3
  403b9c:	24c63039 	addiu	a2,a2,12345
  403ba0:	08100ee1 	j	403b84 <srandom+0x2c>
  403ba4:	ac660000 	sw	a2,0(v1)
  403ba8:	2408000a 	li	t0,10
  403bac:	70a84002 	mul	t0,a1,t0
  403bb0:	8f838034 	lw	v1,-32716(gp)
  403bb4:	af828044 	sw	v0,-32700(gp)
  403bb8:	00003821 	move	a3,zero
  403bbc:	00031880 	sll	v1,v1,0x2
  403bc0:	00431821 	addu	v1,v0,v1
  403bc4:	af838048 	sw	v1,-32696(gp)
  403bc8:	00e8102a 	slt	v0,a3,t0
  403bcc:	10400006 	beqz	v0,403be8 <srandom+0x90>
  403bd0:	8fbf0014 	lw	ra,20(sp)
  403bd4:	0c100eb7 	jal	403adc <random>
  403bd8:	24e70001 	addiu	a3,a3,1
  403bdc:	08100ef3 	j	403bcc <srandom+0x74>
  403be0:	00e8102a 	slt	v0,a3,t0
  403be4:	8fbf0014 	lw	ra,20(sp)
  403be8:	03e00008 	jr	ra
  403bec:	27bd0018 	addiu	sp,sp,24

00403bf0 <initstate>:
  403bf0:	8f82803c 	lw	v0,-32708(gp)
  403bf4:	27bdffe8 	addiu	sp,sp,-24
  403bf8:	00a05021 	move	t2,a1
  403bfc:	8f898040 	lw	t1,-32704(gp)
  403c00:	14400003 	bnez	v0,403c10 <initstate+0x20>
  403c04:	afbf0014 	sw	ra,20(sp)
  403c08:	08100f0b 	j	403c2c <initstate+0x3c>
  403c0c:	ad20fffc 	sw	zero,-4(t1)
  403c10:	8f858044 	lw	a1,-32700(gp)
  403c14:	24030005 	li	v1,5
  403c18:	00a92823 	subu	a1,a1,t1
  403c1c:	00052883 	sra	a1,a1,0x2
  403c20:	70a33802 	mul	a3,a1,v1
  403c24:	00e21021 	addu	v0,a3,v0
  403c28:	ad22fffc 	sw	v0,-4(t1)
  403c2c:	28c20008 	slti	v0,a2,8
  403c30:	50400008 	beqzl	v0,403c54 <initstate+0x64>
  403c34:	28c20020 	slti	v0,a2,32
  403c38:	3c040041 	lui	a0,0x41
  403c3c:	3c050041 	lui	a1,0x41
  403c40:	2484e160 	addiu	a0,a0,-7840
  403c44:	0c100f6e 	jal	403db8 <fprintf>
  403c48:	24a5d050 	addiu	a1,a1,-12208
  403c4c:	08100f48 	j	403d20 <initstate+0x130>
  403c50:	00001021 	move	v0,zero
  403c54:	10400005 	beqz	v0,403c6c <initstate+0x7c>
  403c58:	28c20040 	slti	v0,a2,64
  403c5c:	af80803c 	sw	zero,-32708(gp)
  403c60:	af808038 	sw	zero,-32712(gp)
  403c64:	08100f35 	j	403cd4 <initstate+0xe4>
  403c68:	af808034 	sw	zero,-32716(gp)
  403c6c:	50400007 	beqzl	v0,403c8c <initstate+0x9c>
  403c70:	28c20080 	slti	v0,a2,128
  403c74:	24020001 	li	v0,1
  403c78:	af82803c 	sw	v0,-32708(gp)
  403c7c:	24020007 	li	v0,7
  403c80:	af828038 	sw	v0,-32712(gp)
  403c84:	08100f34 	j	403cd0 <initstate+0xe0>
  403c88:	24020003 	li	v0,3
  403c8c:	10400005 	beqz	v0,403ca4 <initstate+0xb4>
  403c90:	28c60100 	slti	a2,a2,256
  403c94:	24020002 	li	v0,2
  403c98:	af82803c 	sw	v0,-32708(gp)
  403c9c:	08100f32 	j	403cc8 <initstate+0xd8>
  403ca0:	2402000f 	li	v0,15
  403ca4:	50c00006 	beqzl	a2,403cc0 <initstate+0xd0>
  403ca8:	24020004 	li	v0,4
  403cac:	24020003 	li	v0,3
  403cb0:	2403001f 	li	v1,31
  403cb4:	af82803c 	sw	v0,-32708(gp)
  403cb8:	08100f34 	j	403cd0 <initstate+0xe0>
  403cbc:	af838038 	sw	v1,-32712(gp)
  403cc0:	af82803c 	sw	v0,-32708(gp)
  403cc4:	2402003f 	li	v0,63
  403cc8:	af828038 	sw	v0,-32712(gp)
  403ccc:	24020001 	li	v0,1
  403cd0:	af828034 	sw	v0,-32716(gp)
  403cd4:	8f828038 	lw	v0,-32712(gp)
  403cd8:	254b0004 	addiu	t3,t2,4
  403cdc:	af8b8040 	sw	t3,-32704(gp)
  403ce0:	00021080 	sll	v0,v0,0x2
  403ce4:	01621021 	addu	v0,t3,v0
  403ce8:	0c100ed6 	jal	403b58 <srandom>
  403cec:	af828030 	sw	v0,-32720(gp)
  403cf0:	8f82803c 	lw	v0,-32708(gp)
  403cf4:	14400003 	bnez	v0,403d04 <initstate+0x114>
  403cf8:	8f838044 	lw	v1,-32700(gp)
  403cfc:	08100f47 	j	403d1c <initstate+0x12c>
  403d00:	ad400000 	sw	zero,0(t2)
  403d04:	006b5823 	subu	t3,v1,t3
  403d08:	000b5883 	sra	t3,t3,0x2
  403d0c:	24030005 	li	v1,5
  403d10:	71632002 	mul	a0,t3,v1
  403d14:	00821021 	addu	v0,a0,v0
  403d18:	ad420000 	sw	v0,0(t2)
  403d1c:	2522fffc 	addiu	v0,t1,-4
  403d20:	8fbf0014 	lw	ra,20(sp)
  403d24:	03e00008 	jr	ra
  403d28:	27bd0018 	addiu	sp,sp,24

00403d2c <mkdir>:
  403d2c:	24020088 	li	v0,136
  403d30:	0000000c 	syscall
  403d34:	14e00003 	bnez	a3,403d44 <err>
  403d38:	00000000 	nop
  403d3c:	03e00008 	jr	ra
  403d40:	00000000 	nop

00403d44 <err>:
  403d44:	081029a3 	j	40a68c <_cerror>
  403d48:	00000000 	nop

00403d4c <lstat>:
  403d4c:	240200be 	li	v0,190
  403d50:	0000000c 	syscall
  403d54:	14e00003 	bnez	a3,403d64 <err>
  403d58:	00000000 	nop
  403d5c:	03e00008 	jr	ra
  403d60:	00000000 	nop

00403d64 <err>:
  403d64:	081029a3 	j	40a68c <_cerror>
  403d68:	00000000 	nop

00403d6c <fputs>:
  403d6c:	27bdffd0 	addiu	sp,sp,-48
  403d70:	afbf002c 	sw	ra,44(sp)
  403d74:	afb00028 	sw	s0,40(sp)
  403d78:	afa4001c 	sw	a0,28(sp)
  403d7c:	0c1015a1 	jal	405684 <strlen>
  403d80:	00a08021 	move	s0,a1
  403d84:	afa20018 	sw	v0,24(sp)
  403d88:	afa20020 	sw	v0,32(sp)
  403d8c:	27a2001c 	addiu	v0,sp,28
  403d90:	afa20010 	sw	v0,16(sp)
  403d94:	02002021 	move	a0,s0
  403d98:	24020001 	li	v0,1
  403d9c:	27a50010 	addiu	a1,sp,16
  403da0:	0c1015a7 	jal	40569c <__sfvwrite>
  403da4:	afa20014 	sw	v0,20(sp)
  403da8:	8fbf002c 	lw	ra,44(sp)
  403dac:	8fb00028 	lw	s0,40(sp)
  403db0:	03e00008 	jr	ra
  403db4:	27bd0030 	addiu	sp,sp,48

00403db8 <fprintf>:
  403db8:	27bdffe8 	addiu	sp,sp,-24
  403dbc:	afa60020 	sw	a2,32(sp)
  403dc0:	27a60020 	addiu	a2,sp,32
  403dc4:	afbf0014 	sw	ra,20(sp)
  403dc8:	afa70024 	sw	a3,36(sp)
  403dcc:	0c100fca 	jal	403f28 <vfprintf>
  403dd0:	afa5001c 	sw	a1,28(sp)
  403dd4:	8fbf0014 	lw	ra,20(sp)
  403dd8:	03e00008 	jr	ra
  403ddc:	27bd0018 	addiu	sp,sp,24

00403de0 <__ultoa>:
  403de0:	27bdffe8 	addiu	sp,sp,-24
  403de4:	2402000a 	li	v0,10
  403de8:	afbf0014 	sw	ra,20(sp)
  403dec:	10c20008 	beq	a2,v0,403e10 <__ultoa+0x30>
  403df0:	8fa30028 	lw	v1,40(sp)
  403df4:	24020010 	li	v0,16
  403df8:	10c2002e 	beq	a2,v0,403eb4 <__ultoa+0xd4>
  403dfc:	24020008 	li	v0,8
  403e00:	14c20035 	bne	a2,v0,403ed8 <__ultoa+0xf8>
  403e04:	30830007 	andi	v1,a0,0x7
  403e08:	08100fa1 	j	403e84 <__ultoa+0xa4>
  403e0c:	24a5ffff 	addiu	a1,a1,-1
  403e10:	2c83000a 	sltiu	v1,a0,10
  403e14:	10600005 	beqz	v1,403e2c <__ultoa+0x4c>
  403e18:	24a2ffff 	addiu	v0,a1,-1
  403e1c:	24840030 	addiu	a0,a0,48
  403e20:	a0a4ffff 	sb	a0,-1(a1)
  403e24:	08100fb8 	j	403ee0 <__ultoa+0x100>
  403e28:	00402821 	move	a1,v0
  403e2c:	04830009 	bgezl	a0,403e54 <__ultoa+0x74>
  403e30:	2402000a 	li	v0,10
  403e34:	0086001b 	divu	zero,a0,a2
  403e38:	00c001f4 	teq	a2,zero,0x7
  403e3c:	00001810 	mfhi	v1
  403e40:	24630030 	addiu	v1,v1,48
  403e44:	a0a3ffff 	sb	v1,-1(a1)
  403e48:	00002012 	mflo	a0
  403e4c:	00402821 	move	a1,v0
  403e50:	2402000a 	li	v0,10
  403e54:	0082001a 	div	zero,a0,v0
  403e58:	004001f4 	teq	v0,zero,0x7
  403e5c:	24a5ffff 	addiu	a1,a1,-1
  403e60:	00001810 	mfhi	v1
  403e64:	24630030 	addiu	v1,v1,48
  403e68:	00002012 	mflo	a0
  403e6c:	1480fff9 	bnez	a0,403e54 <__ultoa+0x74>
  403e70:	a0a30000 	sb	v1,0(a1)
  403e74:	08100fb9 	j	403ee4 <__ultoa+0x104>
  403e78:	8fbf0014 	lw	ra,20(sp)
  403e7c:	30830007 	andi	v1,a0,0x7
  403e80:	24a5ffff 	addiu	a1,a1,-1
  403e84:	24630030 	addiu	v1,v1,48
  403e88:	000420c2 	srl	a0,a0,0x3
  403e8c:	1480fffb 	bnez	a0,403e7c <__ultoa+0x9c>
  403e90:	a0a30000 	sb	v1,0(a1)
  403e94:	10e00013 	beqz	a3,403ee4 <__ultoa+0x104>
  403e98:	8fbf0014 	lw	ra,20(sp)
  403e9c:	24020030 	li	v0,48
  403ea0:	50620011 	beql	v1,v0,403ee8 <__ultoa+0x108>
  403ea4:	00a01021 	move	v0,a1
  403ea8:	a0a2ffff 	sb	v0,-1(a1)
  403eac:	08100fb8 	j	403ee0 <__ultoa+0x100>
  403eb0:	24a5ffff 	addiu	a1,a1,-1
  403eb4:	3082000f 	andi	v0,a0,0xf
  403eb8:	00621021 	addu	v0,v1,v0
  403ebc:	90420000 	lbu	v0,0(v0)
  403ec0:	24a5ffff 	addiu	a1,a1,-1
  403ec4:	00042102 	srl	a0,a0,0x4
  403ec8:	1480fffa 	bnez	a0,403eb4 <__ultoa+0xd4>
  403ecc:	a0a20000 	sb	v0,0(a1)
  403ed0:	08100fb9 	j	403ee4 <__ultoa+0x104>
  403ed4:	8fbf0014 	lw	ra,20(sp)
  403ed8:	0c102290 	jal	408a40 <abort>
  403edc:	00000000 	nop
  403ee0:	8fbf0014 	lw	ra,20(sp)
  403ee4:	00a01021 	move	v0,a1
  403ee8:	03e00008 	jr	ra
  403eec:	27bd0018 	addiu	sp,sp,24

00403ef0 <__sprint>:
  403ef0:	8ca20008 	lw	v0,8(a1)
  403ef4:	27bdffe8 	addiu	sp,sp,-24
  403ef8:	afb00010 	sw	s0,16(sp)
  403efc:	afbf0014 	sw	ra,20(sp)
  403f00:	10400004 	beqz	v0,403f14 <__sprint+0x24>
  403f04:	00a08021 	move	s0,a1
  403f08:	0c1015a7 	jal	40569c <__sfvwrite>
  403f0c:	00000000 	nop
  403f10:	ae000008 	sw	zero,8(s0)
  403f14:	8fbf0014 	lw	ra,20(sp)
  403f18:	ae000004 	sw	zero,4(s0)
  403f1c:	8fb00010 	lw	s0,16(sp)
  403f20:	03e00008 	jr	ra
  403f24:	27bd0018 	addiu	sp,sp,24

00403f28 <vfprintf>:
  403f28:	9482000c 	lhu	v0,12(a0)
  403f2c:	27bdf9d8 	addiu	sp,sp,-1576
  403f30:	afb20608 	sw	s2,1544(sp)
  403f34:	30420008 	andi	v0,v0,0x8
  403f38:	afb00600 	sw	s0,1536(sp)
  403f3c:	afbf0624 	sw	ra,1572(sp)
  403f40:	afbe0620 	sw	s8,1568(sp)
  403f44:	afb7061c 	sw	s7,1564(sp)
  403f48:	afb60618 	sw	s6,1560(sp)
  403f4c:	afb50614 	sw	s5,1556(sp)
  403f50:	afb40610 	sw	s4,1552(sp)
  403f54:	afb3060c 	sw	s3,1548(sp)
  403f58:	afb10604 	sw	s1,1540(sp)
  403f5c:	00809021 	move	s2,a0
  403f60:	afa5062c 	sw	a1,1580(sp)
  403f64:	1040000b 	beqz	v0,403f94 <vfprintf+0x6c>
  403f68:	00c08021 	move	s0,a2
  403f6c:	8c820010 	lw	v0,16(a0)
  403f70:	10400008 	beqz	v0,403f94 <vfprintf+0x6c>
  403f74:	00000000 	nop
  403f78:	8643000c 	lh	v1,12(s2)
  403f7c:	2402000a 	li	v0,10
  403f80:	3064001a 	andi	a0,v1,0x1a
  403f84:	1482002d 	bne	a0,v0,40403c <vfprintf+0x114>
  403f88:	27b40554 	addiu	s4,sp,1364
  403f8c:	08100feb 	j	403fac <vfprintf+0x84>
  403f90:	8642000e 	lh	v0,14(s2)
  403f94:	0c1022ae 	jal	408ab8 <__swsetup>
  403f98:	02402021 	move	a0,s2
  403f9c:	5040fff7 	beqzl	v0,403f7c <vfprintf+0x54>
  403fa0:	8643000c 	lh	v1,12(s2)
  403fa4:	08101579 	j	4055e4 <vfprintf+0x16bc>
  403fa8:	2402ffff 	li	v0,-1
  403fac:	04400023 	bltz	v0,40403c <vfprintf+0x114>
  403fb0:	27b40554 	addiu	s4,sp,1364
  403fb4:	a7a2042e 	sh	v0,1070(sp)
  403fb8:	8e42001c 	lw	v0,28(s2)
  403fbc:	8fa5062c 	lw	a1,1580(sp)
  403fc0:	2404fffd 	li	a0,-3
  403fc4:	afa2043c 	sw	v0,1084(sp)
  403fc8:	8e42002c 	lw	v0,44(s2)
  403fcc:	00641824 	and	v1,v1,a0
  403fd0:	02003021 	move	a2,s0
  403fd4:	afa2044c 	sw	v0,1100(sp)
  403fd8:	27a20020 	addiu	v0,sp,32
  403fdc:	afa20420 	sw	v0,1056(sp)
  403fe0:	afa20430 	sw	v0,1072(sp)
  403fe4:	27a40420 	addiu	a0,sp,1056
  403fe8:	24020400 	li	v0,1024
  403fec:	a7a3042c 	sh	v1,1068(sp)
  403ff0:	afa20428 	sw	v0,1064(sp)
  403ff4:	afa20434 	sw	v0,1076(sp)
  403ff8:	0c100fca 	jal	403f28 <vfprintf>
  403ffc:	afa00438 	sw	zero,1080(sp)
  404000:	04400005 	bltz	v0,404018 <vfprintf+0xf0>
  404004:	00408021 	move	s0,v0
  404008:	0c102566 	jal	409598 <fflush>
  40400c:	27a40420 	addiu	a0,sp,1056
  404010:	2403ffff 	li	v1,-1
  404014:	0062800b 	movn	s0,v1,v0
  404018:	97a2042c 	lhu	v0,1068(sp)
  40401c:	30420040 	andi	v0,v0,0x40
  404020:	50400570 	beqzl	v0,4055e4 <vfprintf+0x16bc>
  404024:	02001021 	move	v0,s0
  404028:	9642000c 	lhu	v0,12(s2)
  40402c:	34420040 	ori	v0,v0,0x40
  404030:	a642000c 	sh	v0,12(s2)
  404034:	08101579 	j	4055e4 <vfprintf+0x16bc>
  404038:	02001021 	move	v0,s0
  40403c:	afb40594 	sw	s4,1428(sp)
  404040:	afa0059c 	sw	zero,1436(sp)
  404044:	afa00598 	sw	zero,1432(sp)
  404048:	afa005d0 	sw	zero,1488(sp)
  40404c:	0280b821 	move	s7,s4
  404050:	8fb1062c 	lw	s1,1580(sp)
  404054:	24020025 	li	v0,37
  404058:	92350000 	lbu	s5,0(s1)
  40405c:	12a00005 	beqz	s5,404074 <vfprintf+0x14c>
  404060:	8fa8062c 	lw	t0,1580(sp)
  404064:	12a20004 	beq	s5,v0,404078 <vfprintf+0x150>
  404068:	02289823 	subu	s3,s1,t0
  40406c:	08101016 	j	404058 <vfprintf+0x130>
  404070:	26310001 	addiu	s1,s1,1
  404074:	02289823 	subu	s3,s1,t0
  404078:	12600013 	beqz	s3,4040c8 <vfprintf+0x1a0>
  40407c:	8fa2059c 	lw	v0,1436(sp)
  404080:	aee80000 	sw	t0,0(s7)
  404084:	aef30004 	sw	s3,4(s7)
  404088:	00531021 	addu	v0,v0,s3
  40408c:	afa2059c 	sw	v0,1436(sp)
  404090:	8fa20598 	lw	v0,1432(sp)
  404094:	24420001 	addiu	v0,v0,1
  404098:	afa20598 	sw	v0,1432(sp)
  40409c:	28420008 	slti	v0,v0,8
  4040a0:	14400006 	bnez	v0,4040bc <vfprintf+0x194>
  4040a4:	26f70008 	addiu	s7,s7,8
  4040a8:	02402021 	move	a0,s2
  4040ac:	0c100fbc 	jal	403ef0 <__sprint>
  4040b0:	27a50594 	addiu	a1,sp,1428
  4040b4:	14400546 	bnez	v0,4055d0 <vfprintf+0x16a8>
  4040b8:	0280b821 	move	s7,s4
  4040bc:	8fa805d0 	lw	t0,1488(sp)
  4040c0:	01134021 	addu	t0,t0,s3
  4040c4:	afa805d0 	sw	t0,1488(sp)
  4040c8:	12a0053b 	beqz	s5,4055b8 <vfprintf+0x1690>
  4040cc:	26230001 	addiu	v1,s1,1
  4040d0:	a3a005b2 	sb	zero,1458(sp)
  4040d4:	00001021 	move	v0,zero
  4040d8:	2415ffff 	li	s5,-1
  4040dc:	afa005c8 	sw	zero,1480(sp)
  4040e0:	00008821 	move	s1,zero
  4040e4:	2405000a 	li	a1,10
  4040e8:	2409002a 	li	t1,42
  4040ec:	2406ffff 	li	a2,-1
  4040f0:	240a0020 	li	t2,32
  4040f4:	90760000 	lbu	s6,0(v1)
  4040f8:	24680001 	addiu	t0,v1,1
  4040fc:	afa8062c 	sw	t0,1580(sp)
  404100:	26c3ffe0 	addiu	v1,s6,-32
  404104:	2c640059 	sltiu	a0,v1,89
  404108:	10800282 	beqz	a0,404b14 <vfprintf+0xbec>
  40410c:	3c040041 	lui	a0,0x41
  404110:	00031880 	sll	v1,v1,0x2
  404114:	2484d0e8 	addiu	a0,a0,-12056
  404118:	00831821 	addu	v1,a0,v1
  40411c:	8c630000 	lw	v1,0(v1)
  404120:	00600008 	jr	v1
  404124:	00000000 	nop
  404128:	2402002b 	li	v0,43
  40412c:	0810103d 	j	4040f4 <vfprintf+0x1cc>
  404130:	8fa3062c 	lw	v1,1580(sp)
  404134:	0810109a 	j	404268 <vfprintf+0x340>
  404138:	a3a205b2 	sb	v0,1458(sp)
  40413c:	3c020041 	lui	v0,0x41
  404140:	08101220 	j	404880 <vfprintf+0x958>
  404144:	2442d0b0 	addiu	v0,v0,-12112
  404148:	081010ce 	j	404338 <vfprintf+0x410>
  40414c:	a3a205b2 	sb	v0,1458(sp)
  404150:	0810104b 	j	40412c <vfprintf+0x204>
  404154:	0142100a 	movz	v0,t2,v0
  404158:	0810104b 	j	40412c <vfprintf+0x204>
  40415c:	36310001 	ori	s1,s1,0x1
  404160:	8e080000 	lw	t0,0(s0)
  404164:	26100004 	addiu	s0,s0,4
  404168:	0501fff0 	bgez	t0,40412c <vfprintf+0x204>
  40416c:	afa805c8 	sw	t0,1480(sp)
  404170:	00084023 	negu	t0,t0
  404174:	afa805c8 	sw	t0,1480(sp)
  404178:	0810104b 	j	40412c <vfprintf+0x204>
  40417c:	36310004 	ori	s1,s1,0x4
  404180:	8fa8062c 	lw	t0,1580(sp)
  404184:	91160000 	lbu	s6,0(t0)
  404188:	12c90003 	beq	s6,t1,404198 <vfprintf+0x270>
  40418c:	25030001 	addiu	v1,t0,1
  404190:	0810106d 	j	4041b4 <vfprintf+0x28c>
  404194:	00002021 	move	a0,zero
  404198:	8e040000 	lw	a0,0(s0)
  40419c:	afa3062c 	sw	v1,1580(sp)
  4041a0:	26100004 	addiu	s0,s0,4
  4041a4:	28950000 	slti	s5,a0,0
  4041a8:	00d5200b 	movn	a0,a2,s5
  4041ac:	0810104b 	j	40412c <vfprintf+0x204>
  4041b0:	0080a821 	move	s5,a0
  4041b4:	26c7ffd0 	addiu	a3,s6,-48
  4041b8:	2ceb000a 	sltiu	t3,a3,10
  4041bc:	11600005 	beqz	t3,4041d4 <vfprintf+0x2ac>
  4041c0:	70854002 	mul	t0,a0,a1
  4041c4:	24630001 	addiu	v1,v1,1
  4041c8:	9076ffff 	lbu	s6,-1(v1)
  4041cc:	0810106d 	j	4041b4 <vfprintf+0x28c>
  4041d0:	01072021 	addu	a0,t0,a3
  4041d4:	28950000 	slti	s5,a0,0
  4041d8:	00d5200b 	movn	a0,a2,s5
  4041dc:	0080a821 	move	s5,a0
  4041e0:	08101040 	j	404100 <vfprintf+0x1d8>
  4041e4:	afa3062c 	sw	v1,1580(sp)
  4041e8:	0810104b 	j	40412c <vfprintf+0x204>
  4041ec:	36310080 	ori	s1,s1,0x80
  4041f0:	afa005c8 	sw	zero,1480(sp)
  4041f4:	8fa805c8 	lw	t0,1480(sp)
  4041f8:	26d6ffd0 	addiu	s6,s6,-48
  4041fc:	71051802 	mul	v1,t0,a1
  404200:	00764021 	addu	t0,v1,s6
  404204:	afa805c8 	sw	t0,1480(sp)
  404208:	8fa8062c 	lw	t0,1580(sp)
  40420c:	25030001 	addiu	v1,t0,1
  404210:	9076ffff 	lbu	s6,-1(v1)
  404214:	26c4ffd0 	addiu	a0,s6,-48
  404218:	2c84000a 	sltiu	a0,a0,10
  40421c:	1080ffb8 	beqz	a0,404100 <vfprintf+0x1d8>
  404220:	afa3062c 	sw	v1,1580(sp)
  404224:	0810107e 	j	4041f8 <vfprintf+0x2d0>
  404228:	8fa805c8 	lw	t0,1480(sp)
  40422c:	0810104b 	j	40412c <vfprintf+0x204>
  404230:	36310008 	ori	s1,s1,0x8
  404234:	0810104b 	j	40412c <vfprintf+0x204>
  404238:	36310040 	ori	s1,s1,0x40
  40423c:	0810104b 	j	40412c <vfprintf+0x204>
  404240:	36310010 	ori	s1,s1,0x10
  404244:	0810104b 	j	40412c <vfprintf+0x204>
  404248:	36310020 	ori	s1,s1,0x20
  40424c:	8e020000 	lw	v0,0(s0)
  404250:	a3a005b2 	sb	zero,1458(sp)
  404254:	26100004 	addiu	s0,s0,4
  404258:	081012c9 	j	404b24 <vfprintf+0xbfc>
  40425c:	a3a20020 	sb	v0,32(sp)
  404260:	a3a205b2 	sb	v0,1458(sp)
  404264:	36310010 	ori	s1,s1,0x10
  404268:	32220020 	andi	v0,s1,0x20
  40426c:	10400015 	beqz	v0,4042c4 <vfprintf+0x39c>
  404270:	32230010 	andi	v1,s1,0x10
  404274:	00101023 	negu	v0,s0
  404278:	30420007 	andi	v0,v0,0x7
  40427c:	24420008 	addiu	v0,v0,8
  404280:	02028021 	addu	s0,s0,v0
  404284:	8e08fff8 	lw	t0,-8(s0)
  404288:	afa805c4 	sw	t0,1476(sp)
  40428c:	8e08fffc 	lw	t0,-4(s0)
  404290:	050101a1 	bgez	t0,404918 <vfprintf+0x9f0>
  404294:	afa805bc 	sw	t0,1468(sp)
  404298:	8fa805c4 	lw	t0,1476(sp)
  40429c:	00081023 	negu	v0,t0
  4042a0:	8fa805bc 	lw	t0,1468(sp)
  4042a4:	0002182b 	sltu	v1,zero,v0
  4042a8:	afa205c4 	sw	v0,1476(sp)
  4042ac:	00082023 	negu	a0,t0
  4042b0:	00832023 	subu	a0,a0,v1
  4042b4:	2402002d 	li	v0,45
  4042b8:	afa405bc 	sw	a0,1468(sp)
  4042bc:	08101246 	j	404918 <vfprintf+0x9f0>
  4042c0:	a3a205b2 	sb	v0,1458(sp)
  4042c4:	10600004 	beqz	v1,4042d8 <vfprintf+0x3b0>
  4042c8:	26020004 	addiu	v0,s0,4
  4042cc:	8e100000 	lw	s0,0(s0)
  4042d0:	081010bb 	j	4042ec <vfprintf+0x3c4>
  4042d4:	afb005b8 	sw	s0,1464(sp)
  4042d8:	32240040 	andi	a0,s1,0x40
  4042dc:	10800002 	beqz	a0,4042e8 <vfprintf+0x3c0>
  4042e0:	8e030000 	lw	v1,0(s0)
  4042e4:	7c031e20 	seh	v1,v1
  4042e8:	afa305b8 	sw	v1,1464(sp)
  4042ec:	8fa805b8 	lw	t0,1464(sp)
  4042f0:	00408021 	move	s0,v0
  4042f4:	05010189 	bgez	t0,40491c <vfprintf+0x9f4>
  4042f8:	2406000a 	li	a2,10
  4042fc:	00084023 	negu	t0,t0
  404300:	2402002d 	li	v0,45
  404304:	afa805b8 	sw	t0,1464(sp)
  404308:	08101247 	j	40491c <vfprintf+0x9f4>
  40430c:	a3a205b2 	sb	v0,1458(sp)
  404310:	26a30001 	addiu	v1,s5,1
  404314:	a3a205b2 	sb	v0,1458(sp)
  404318:	0015a827 	nor	s5,zero,s5
  40431c:	24020007 	li	v0,7
  404320:	0075100b 	movn	v0,v1,s5
  404324:	081010d1 	j	404344 <vfprintf+0x41c>
  404328:	0040a821 	move	s5,v0
  40432c:	12a00005 	beqz	s5,404344 <vfprintf+0x41c>
  404330:	a3a205b2 	sb	v0,1458(sp)
  404334:	36310001 	ori	s1,s1,0x1
  404338:	00151827 	nor	v1,zero,s5
  40433c:	24020006 	li	v0,6
  404340:	0043a80a 	movz	s5,v0,v1
  404344:	00101023 	negu	v0,s0
  404348:	30420007 	andi	v0,v0,0x7
  40434c:	24420008 	addiu	v0,v0,8
  404350:	02028021 	addu	s0,s0,v0
  404354:	8e08fff8 	lw	t0,-8(s0)
  404358:	8f868050 	lw	a2,-32688(gp)
  40435c:	8f878054 	lw	a3,-32684(gp)
  404360:	afa805cc 	sw	t0,1484(sp)
  404364:	8e08fffc 	lw	t0,-4(s0)
  404368:	8fa305cc 	lw	v1,1484(sp)
  40436c:	7d13f000 	ext	s3,t0,0x0,0x1f
  404370:	00602021 	move	a0,v1
  404374:	02602821 	move	a1,s3
  404378:	0c103136 	jal	40c4d8 <__unorddf2>
  40437c:	afa805d4 	sw	t0,1492(sp)
  404380:	14400014 	bnez	v0,4043d4 <vfprintf+0x4ac>
  404384:	8fa305cc 	lw	v1,1484(sp)
  404388:	8f868050 	lw	a2,-32688(gp)
  40438c:	8f878054 	lw	a3,-32684(gp)
  404390:	00602021 	move	a0,v1
  404394:	0c102dd9 	jal	40b764 <__ledf2>
  404398:	02602821 	move	a1,s3
  40439c:	1840000d 	blez	v0,4043d4 <vfprintf+0x4ac>
  4043a0:	8fa305cc 	lw	v1,1484(sp)
  4043a4:	8fa205d4 	lw	v0,1492(sp)
  4043a8:	00003021 	move	a2,zero
  4043ac:	00602021 	move	a0,v1
  4043b0:	00402821 	move	a1,v0
  4043b4:	00003821 	move	a3,zero
  4043b8:	0c102dd9 	jal	40b764 <__ledf2>
  4043bc:	3c130041 	lui	s3,0x41
  4043c0:	044101dc 	bgez	v0,404b34 <vfprintf+0xc0c>
  4043c4:	2673d0d8 	addiu	s3,s3,-12072
  4043c8:	2402002d 	li	v0,45
  4043cc:	081012cd 	j	404b34 <vfprintf+0xc0c>
  4043d0:	a3a205b2 	sb	v0,1458(sp)
  4043d4:	8fa205d4 	lw	v0,1492(sp)
  4043d8:	00602021 	move	a0,v1
  4043dc:	00402821 	move	a1,v0
  4043e0:	00603021 	move	a2,v1
  4043e4:	0c103136 	jal	40c4d8 <__unorddf2>
  4043e8:	00403821 	move	a3,v0
  4043ec:	144001d3 	bnez	v0,404b3c <vfprintf+0xc14>
  4043f0:	24020002 	li	v0,2
  4043f4:	36230100 	ori	v1,s1,0x100
  4043f8:	afa305d8 	sw	v1,1496(sp)
  4043fc:	24130003 	li	s3,3
  404400:	3ac30066 	xori	v1,s6,0x66
  404404:	0043980b 	movn	s3,v0,v1
  404408:	8fa305cc 	lw	v1,1484(sp)
  40440c:	8fa205d4 	lw	v0,1492(sp)
  404410:	00003021 	move	a2,zero
  404414:	00602021 	move	a0,v1
  404418:	00402821 	move	a1,v0
  40441c:	0c102dd9 	jal	40b764 <__ledf2>
  404420:	00003821 	move	a3,zero
  404424:	04430007 	bgezl	v0,404444 <vfprintf+0x51c>
  404428:	8fa905d4 	lw	t1,1492(sp)
  40442c:	8fa805d4 	lw	t0,1492(sp)
  404430:	3c098000 	lui	t1,0x8000
  404434:	2403002d 	li	v1,45
  404438:	01284826 	xor	t1,t1,t0
  40443c:	08101112 	j	404448 <vfprintf+0x520>
  404440:	afa305dc 	sw	v1,1500(sp)
  404444:	afa005dc 	sw	zero,1500(sp)
  404448:	27a205ac 	addiu	v0,sp,1452
  40444c:	8fa305cc 	lw	v1,1484(sp)
  404450:	afa20010 	sw	v0,16(sp)
  404454:	27a205a8 	addiu	v0,sp,1448
  404458:	afa20014 	sw	v0,20(sp)
  40445c:	27a20420 	addiu	v0,sp,1056
  404460:	01202821 	move	a1,t1
  404464:	02603021 	move	a2,s3
  404468:	afa20018 	sw	v0,24(sp)
  40446c:	00602021 	move	a0,v1
  404470:	02a03821 	move	a3,s5
  404474:	afa905f4 	sw	t1,1524(sp)
  404478:	0c101ddb 	jal	40776c <__dtoa>
  40447c:	32310001 	andi	s1,s1,0x1
  404480:	00409821 	move	s3,v0
  404484:	1620000a 	bnez	s1,4044b0 <vfprintf+0x588>
  404488:	8fa905f4 	lw	t1,1524(sp)
  40448c:	8fa20420 	lw	v0,1056(sp)
  404490:	32c400df 	andi	a0,s6,0xdf
  404494:	24030047 	li	v1,71
  404498:	00531023 	subu	v0,v0,s3
  40449c:	afa205c0 	sw	v0,1472(sp)
  4044a0:	14830034 	bne	a0,v1,404574 <vfprintf+0x64c>
  4044a4:	8fa205ac 	lw	v0,1452(sp)
  4044a8:	08101152 	j	404548 <vfprintf+0x620>
  4044ac:	2843fffd 	slti	v1,v0,-3
  4044b0:	0055f021 	addu	s8,v0,s5
  4044b4:	24020066 	li	v0,102
  4044b8:	16c20014 	bne	s6,v0,40450c <vfprintf+0x5e4>
  4044bc:	8fa605cc 	lw	a2,1484(sp)
  4044c0:	92640000 	lbu	a0,0(s3)
  4044c4:	24020030 	li	v0,48
  4044c8:	1482000e 	bne	a0,v0,404504 <vfprintf+0x5dc>
  4044cc:	8fa205ac 	lw	v0,1452(sp)
  4044d0:	8fa605cc 	lw	a2,1484(sp)
  4044d4:	01202821 	move	a1,t1
  4044d8:	00003821 	move	a3,zero
  4044dc:	00c02021 	move	a0,a2
  4044e0:	00003021 	move	a2,zero
  4044e4:	0c102d72 	jal	40b5c8 <__eqdf2>
  4044e8:	afa905f4 	sw	t1,1524(sp)
  4044ec:	10400004 	beqz	v0,404500 <vfprintf+0x5d8>
  4044f0:	8fa905f4 	lw	t1,1524(sp)
  4044f4:	24020001 	li	v0,1
  4044f8:	00551023 	subu	v0,v0,s5
  4044fc:	afa205ac 	sw	v0,1452(sp)
  404500:	8fa205ac 	lw	v0,1452(sp)
  404504:	03c2f021 	addu	s8,s8,v0
  404508:	8fa605cc 	lw	a2,1484(sp)
  40450c:	01202821 	move	a1,t1
  404510:	00003821 	move	a3,zero
  404514:	00c02021 	move	a0,a2
  404518:	0c102d72 	jal	40b5c8 <__eqdf2>
  40451c:	00003021 	move	a2,zero
  404520:	50400001 	beqzl	v0,404528 <vfprintf+0x600>
  404524:	afbe0420 	sw	s8,1056(sp)
  404528:	24050030 	li	a1,48
  40452c:	8fa20420 	lw	v0,1056(sp)
  404530:	005e202b 	sltu	a0,v0,s8
  404534:	1080ffd6 	beqz	a0,404490 <vfprintf+0x568>
  404538:	24440001 	addiu	a0,v0,1
  40453c:	afa40420 	sw	a0,1056(sp)
  404540:	0810114b 	j	40452c <vfprintf+0x604>
  404544:	a0450000 	sb	a1,0(v0)
  404548:	54600005 	bnezl	v1,404560 <vfprintf+0x638>
  40454c:	3ad60067 	xori	s6,s6,0x67
  404550:	02a2182a 	slt	v1,s5,v0
  404554:	10600048 	beqz	v1,404678 <vfprintf+0x750>
  404558:	8fa805c0 	lw	t0,1472(sp)
  40455c:	3ad60067 	xori	s6,s6,0x67
  404560:	24030065 	li	v1,101
  404564:	24040045 	li	a0,69
  404568:	0096180b 	movn	v1,a0,s6
  40456c:	08101160 	j	404580 <vfprintf+0x658>
  404570:	0060b021 	move	s6,v1
  404574:	2ac30066 	slti	v1,s6,102
  404578:	50600032 	beqzl	v1,404644 <vfprintf+0x71c>
  40457c:	24030066 	li	v1,102
  404580:	2442ffff 	addiu	v0,v0,-1
  404584:	afa205ac 	sw	v0,1452(sp)
  404588:	a3b605a0 	sb	s6,1440(sp)
  40458c:	04410003 	bgez	v0,40459c <vfprintf+0x674>
  404590:	2403002b 	li	v1,43
  404594:	00021023 	negu	v0,v0
  404598:	2403002d 	li	v1,45
  40459c:	a3a305a1 	sb	v1,1441(sp)
  4045a0:	2843000a 	slti	v1,v0,10
  4045a4:	54600018 	bnezl	v1,404608 <vfprintf+0x6e0>
  4045a8:	24420030 	addiu	v0,v0,48
  4045ac:	02801821 	move	v1,s4
  4045b0:	2404000a 	li	a0,10
  4045b4:	0044001a 	div	zero,v0,a0
  4045b8:	008001f4 	teq	a0,zero,0x7
  4045bc:	2463ffff 	addiu	v1,v1,-1
  4045c0:	00002810 	mfhi	a1
  4045c4:	24a50030 	addiu	a1,a1,48
  4045c8:	a0650000 	sb	a1,0(v1)
  4045cc:	00001012 	mflo	v0
  4045d0:	2845000a 	slti	a1,v0,10
  4045d4:	10a0fff7 	beqz	a1,4045b4 <vfprintf+0x68c>
  4045d8:	00000000 	nop
  4045dc:	24420030 	addiu	v0,v0,48
  4045e0:	a062ffff 	sb	v0,-1(v1)
  4045e4:	2464ffff 	addiu	a0,v1,-1
  4045e8:	27a205a2 	addiu	v0,sp,1442
  4045ec:	0094182b 	sltu	v1,a0,s4
  4045f0:	10600009 	beqz	v1,404618 <vfprintf+0x6f0>
  4045f4:	24840001 	addiu	a0,a0,1
  4045f8:	9083ffff 	lbu	v1,-1(a0)
  4045fc:	24420001 	addiu	v0,v0,1
  404600:	0810117b 	j	4045ec <vfprintf+0x6c4>
  404604:	a043ffff 	sb	v1,-1(v0)
  404608:	24030030 	li	v1,48
  40460c:	a3a205a3 	sb	v0,1443(sp)
  404610:	a3a305a2 	sb	v1,1442(sp)
  404614:	27a205a4 	addiu	v0,sp,1444
  404618:	8fa805c0 	lw	t0,1472(sp)
  40461c:	27a305a0 	addiu	v1,sp,1440
  404620:	00431823 	subu	v1,v0,v1
  404624:	29020002 	slti	v0,t0,2
  404628:	afa305e4 	sw	v1,1508(sp)
  40462c:	10400003 	beqz	v0,40463c <vfprintf+0x714>
  404630:	00681821 	addu	v1,v1,t0
  404634:	1220001e 	beqz	s1,4046b0 <vfprintf+0x788>
  404638:	8fa805dc 	lw	t0,1500(sp)
  40463c:	081011ab 	j	4046ac <vfprintf+0x784>
  404640:	24630001 	addiu	v1,v1,1
  404644:	16c3000c 	bne	s6,v1,404678 <vfprintf+0x750>
  404648:	8fa805c0 	lw	t0,1472(sp)
  40464c:	18400008 	blez	v0,404670 <vfprintf+0x748>
  404650:	00401821 	move	v1,v0
  404654:	56a00004 	bnezl	s5,404668 <vfprintf+0x740>
  404658:	26a30001 	addiu	v1,s5,1
  40465c:	12200014 	beqz	s1,4046b0 <vfprintf+0x788>
  404660:	8fa805dc 	lw	t0,1500(sp)
  404664:	26a30001 	addiu	v1,s5,1
  404668:	081011ab 	j	4046ac <vfprintf+0x784>
  40466c:	00431821 	addu	v1,v0,v1
  404670:	081011ab 	j	4046ac <vfprintf+0x784>
  404674:	26a30002 	addiu	v1,s5,2
  404678:	0048202a 	slt	a0,v0,t0
  40467c:	14800004 	bnez	a0,404690 <vfprintf+0x768>
  404680:	0011882b 	sltu	s1,zero,s1
  404684:	24160067 	li	s6,103
  404688:	081011ab 	j	4046ac <vfprintf+0x784>
  40468c:	00511821 	addu	v1,v0,s1
  404690:	1c400003 	bgtz	v0,4046a0 <vfprintf+0x778>
  404694:	24030001 	li	v1,1
  404698:	24030002 	li	v1,2
  40469c:	00621823 	subu	v1,v1,v0
  4046a0:	8fa805c0 	lw	t0,1472(sp)
  4046a4:	24160067 	li	s6,103
  4046a8:	01031821 	addu	v1,t0,v1
  4046ac:	8fa805dc 	lw	t0,1500(sp)
  4046b0:	11000128 	beqz	t0,404b54 <vfprintf+0xc2c>
  4046b4:	8fb105d8 	lw	s1,1496(sp)
  4046b8:	2402002d 	li	v0,45
  4046bc:	081012d4 	j	404b50 <vfprintf+0xc28>
  4046c0:	a3a205b2 	sb	v0,1458(sp)
  4046c4:	32230020 	andi	v1,s1,0x20
  4046c8:	a3a205b2 	sb	v0,1458(sp)
  4046cc:	10600007 	beqz	v1,4046ec <vfprintf+0x7c4>
  4046d0:	26020004 	addiu	v0,s0,4
  4046d4:	8fa805d0 	lw	t0,1488(sp)
  4046d8:	8e030000 	lw	v1,0(s0)
  4046dc:	000827c3 	sra	a0,t0,0x1f
  4046e0:	ac680000 	sw	t0,0(v1)
  4046e4:	081011c6 	j	404718 <vfprintf+0x7f0>
  4046e8:	ac640004 	sw	a0,4(v1)
  4046ec:	32230010 	andi	v1,s1,0x10
  4046f0:	14600007 	bnez	v1,404710 <vfprintf+0x7e8>
  4046f4:	8e030000 	lw	v1,0(s0)
  4046f8:	32310040 	andi	s1,s1,0x40
  4046fc:	12200004 	beqz	s1,404710 <vfprintf+0x7e8>
  404700:	00000000 	nop
  404704:	8fa805d0 	lw	t0,1488(sp)
  404708:	081011c6 	j	404718 <vfprintf+0x7f0>
  40470c:	a4680000 	sh	t0,0(v1)
  404710:	8fa805d0 	lw	t0,1488(sp)
  404714:	ac680000 	sw	t0,0(v1)
  404718:	08101014 	j	404050 <vfprintf+0x128>
  40471c:	00408021 	move	s0,v0
  404720:	36310010 	ori	s1,s1,0x10
  404724:	32220020 	andi	v0,s1,0x20
  404728:	1040000a 	beqz	v0,404754 <vfprintf+0x82c>
  40472c:	32230010 	andi	v1,s1,0x10
  404730:	00101023 	negu	v0,s0
  404734:	30420007 	andi	v0,v0,0x7
  404738:	24420008 	addiu	v0,v0,8
  40473c:	02028021 	addu	s0,s0,v0
  404740:	8e08fff8 	lw	t0,-8(s0)
  404744:	afa805c4 	sw	t0,1476(sp)
  404748:	8e08fffc 	lw	t0,-4(s0)
  40474c:	081011df 	j	40477c <vfprintf+0x854>
  404750:	afa805bc 	sw	t0,1468(sp)
  404754:	14600006 	bnez	v1,404770 <vfprintf+0x848>
  404758:	26020004 	addiu	v0,s0,4
  40475c:	32230040 	andi	v1,s1,0x40
  404760:	50600004 	beqzl	v1,404774 <vfprintf+0x84c>
  404764:	8e100000 	lw	s0,0(s0)
  404768:	081011dd 	j	404774 <vfprintf+0x84c>
  40476c:	96100000 	lhu	s0,0(s0)
  404770:	8e100000 	lw	s0,0(s0)
  404774:	afb005b8 	sw	s0,1464(sp)
  404778:	00408021 	move	s0,v0
  40477c:	08101244 	j	404910 <vfprintf+0x9e8>
  404780:	24060008 	li	a2,8
  404784:	8e080000 	lw	t0,0(s0)
  404788:	2402ffdd 	li	v0,-35
  40478c:	02228824 	and	s1,s1,v0
  404790:	3c020041 	lui	v0,0x41
  404794:	2442d0c4 	addiu	v0,v0,-12092
  404798:	afa805b8 	sw	t0,1464(sp)
  40479c:	36310002 	ori	s1,s1,0x2
  4047a0:	26100004 	addiu	s0,s0,4
  4047a4:	afa205e0 	sw	v0,1504(sp)
  4047a8:	24060010 	li	a2,16
  4047ac:	08101244 	j	404910 <vfprintf+0x9e8>
  4047b0:	24160078 	li	s6,120
  4047b4:	8e130000 	lw	s3,0(s0)
  4047b8:	a3a205b2 	sb	v0,1458(sp)
  4047bc:	16600003 	bnez	s3,4047cc <vfprintf+0x8a4>
  4047c0:	261e0004 	addiu	s8,s0,4
  4047c4:	3c130041 	lui	s3,0x41
  4047c8:	2673d0a8 	addiu	s3,s3,-12120
  4047cc:	06a00009 	bltz	s5,4047f4 <vfprintf+0x8cc>
  4047d0:	02602021 	move	a0,s3
  4047d4:	00002821 	move	a1,zero
  4047d8:	0c1022e9 	jal	408ba4 <memchr>
  4047dc:	02a03021 	move	a2,s5
  4047e0:	10400008 	beqz	v0,404804 <vfprintf+0x8dc>
  4047e4:	00531023 	subu	v0,v0,s3
  4047e8:	02a2182a 	slt	v1,s5,v0
  4047ec:	081011ff 	j	4047fc <vfprintf+0x8d4>
  4047f0:	02a3100b 	movn	v0,s5,v1
  4047f4:	0c1015a1 	jal	405684 <strlen>
  4047f8:	00000000 	nop
  4047fc:	08101202 	j	404808 <vfprintf+0x8e0>
  404800:	00401821 	move	v1,v0
  404804:	02a01821 	move	v1,s5
  404808:	a3a005b2 	sb	zero,1458(sp)
  40480c:	081012d5 	j	404b54 <vfprintf+0xc2c>
  404810:	03c08021 	move	s0,s8
  404814:	36310010 	ori	s1,s1,0x10
  404818:	32220020 	andi	v0,s1,0x20
  40481c:	1040000a 	beqz	v0,404848 <vfprintf+0x920>
  404820:	32230010 	andi	v1,s1,0x10
  404824:	00101023 	negu	v0,s0
  404828:	30420007 	andi	v0,v0,0x7
  40482c:	24420008 	addiu	v0,v0,8
  404830:	02028021 	addu	s0,s0,v0
  404834:	8e08fff8 	lw	t0,-8(s0)
  404838:	afa805c4 	sw	t0,1476(sp)
  40483c:	8e08fffc 	lw	t0,-4(s0)
  404840:	0810121c 	j	404870 <vfprintf+0x948>
  404844:	afa805bc 	sw	t0,1468(sp)
  404848:	14600006 	bnez	v1,404864 <vfprintf+0x93c>
  40484c:	26020004 	addiu	v0,s0,4
  404850:	32230040 	andi	v1,s1,0x40
  404854:	50600004 	beqzl	v1,404868 <vfprintf+0x940>
  404858:	8e100000 	lw	s0,0(s0)
  40485c:	0810121a 	j	404868 <vfprintf+0x940>
  404860:	96100000 	lhu	s0,0(s0)
  404864:	8e100000 	lw	s0,0(s0)
  404868:	afb005b8 	sw	s0,1464(sp)
  40486c:	00408021 	move	s0,v0
  404870:	08101244 	j	404910 <vfprintf+0x9e8>
  404874:	2406000a 	li	a2,10
  404878:	3c020041 	lui	v0,0x41
  40487c:	2442d0c4 	addiu	v0,v0,-12092
  404880:	32230020 	andi	v1,s1,0x20
  404884:	1060000a 	beqz	v1,4048b0 <vfprintf+0x988>
  404888:	afa205e0 	sw	v0,1504(sp)
  40488c:	00101023 	negu	v0,s0
  404890:	30420007 	andi	v0,v0,0x7
  404894:	24420008 	addiu	v0,v0,8
  404898:	02028021 	addu	s0,s0,v0
  40489c:	8e08fff8 	lw	t0,-8(s0)
  4048a0:	afa805c4 	sw	t0,1476(sp)
  4048a4:	8e08fffc 	lw	t0,-4(s0)
  4048a8:	08101237 	j	4048dc <vfprintf+0x9b4>
  4048ac:	afa805bc 	sw	t0,1468(sp)
  4048b0:	32240010 	andi	a0,s1,0x10
  4048b4:	14800006 	bnez	a0,4048d0 <vfprintf+0x9a8>
  4048b8:	26020004 	addiu	v0,s0,4
  4048bc:	32240040 	andi	a0,s1,0x40
  4048c0:	50800004 	beqzl	a0,4048d4 <vfprintf+0x9ac>
  4048c4:	8e100000 	lw	s0,0(s0)
  4048c8:	08101235 	j	4048d4 <vfprintf+0x9ac>
  4048cc:	96100000 	lhu	s0,0(s0)
  4048d0:	8e100000 	lw	s0,0(s0)
  4048d4:	afb005b8 	sw	s0,1464(sp)
  4048d8:	00408021 	move	s0,v0
  4048dc:	32220001 	andi	v0,s1,0x1
  4048e0:	1040000b 	beqz	v0,404910 <vfprintf+0x9e8>
  4048e4:	24060010 	li	a2,16
  4048e8:	8fa805b8 	lw	t0,1464(sp)
  4048ec:	10600005 	beqz	v1,404904 <vfprintf+0x9dc>
  4048f0:	0008102b 	sltu	v0,zero,t0
  4048f4:	8fa805c4 	lw	t0,1476(sp)
  4048f8:	8fa305bc 	lw	v1,1468(sp)
  4048fc:	01031025 	or	v0,t0,v1
  404900:	0002102b 	sltu	v0,zero,v0
  404904:	36230002 	ori	v1,s1,0x2
  404908:	24060010 	li	a2,16
  40490c:	0062880b 	movn	s1,v1,v0
  404910:	08101247 	j	40491c <vfprintf+0x9f4>
  404914:	a3a005b2 	sb	zero,1458(sp)
  404918:	2406000a 	li	a2,10
  40491c:	06a00002 	bltz	s5,404928 <vfprintf+0xa00>
  404920:	2402ff7f 	li	v0,-129
  404924:	02228824 	and	s1,s1,v0
  404928:	32220020 	andi	v0,s1,0x20
  40492c:	10400069 	beqz	v0,404ad4 <vfprintf+0xbac>
  404930:	8fa805b8 	lw	t0,1464(sp)
  404934:	8fa805c4 	lw	t0,1476(sp)
  404938:	8fa305bc 	lw	v1,1468(sp)
  40493c:	01031025 	or	v0,t0,v1
  404940:	14400004 	bnez	v0,404954 <vfprintf+0xa2c>
  404944:	8fa805bc 	lw	t0,1468(sp)
  404948:	12a0006e 	beqz	s5,404b04 <vfprintf+0xbdc>
  40494c:	27b3017c 	addiu	s3,sp,380
  404950:	8fa805bc 	lw	t0,1468(sp)
  404954:	15000006 	bnez	t0,404970 <vfprintf+0xa48>
  404958:	32270001 	andi	a3,s1,0x1
  40495c:	8fa805e0 	lw	t0,1504(sp)
  404960:	8fa405c4 	lw	a0,1476(sp)
  404964:	27a5017c 	addiu	a1,sp,380
  404968:	081012be 	j	404af8 <vfprintf+0xbd0>
  40496c:	afa80010 	sw	t0,16(sp)
  404970:	2402000a 	li	v0,10
  404974:	10c20008 	beq	a2,v0,404998 <vfprintf+0xa70>
  404978:	24020010 	li	v0,16
  40497c:	10c20041 	beq	a2,v0,404a84 <vfprintf+0xb5c>
  404980:	24020008 	li	v0,8
  404984:	14c20051 	bne	a2,v0,404acc <vfprintf+0xba4>
  404988:	8fa305c4 	lw	v1,1476(sp)
  40498c:	8fa205bc 	lw	v0,1468(sp)
  404990:	0810128f 	j	404a3c <vfprintf+0xb14>
  404994:	27b3017c 	addiu	s3,sp,380
  404998:	8fa805bc 	lw	t0,1468(sp)
  40499c:	05010011 	bgez	t0,4049e4 <vfprintf+0xabc>
  4049a0:	8fbe05c4 	lw	s8,1476(sp)
  4049a4:	01002821 	move	a1,t0
  4049a8:	03c02021 	move	a0,s8
  4049ac:	2406000a 	li	a2,10
  4049b0:	0c101585 	jal	405614 <__umoddi3>
  4049b4:	00003821 	move	a3,zero
  4049b8:	8fa405c4 	lw	a0,1476(sp)
  4049bc:	8fa505bc 	lw	a1,1468(sp)
  4049c0:	24420030 	addiu	v0,v0,48
  4049c4:	2406000a 	li	a2,10
  4049c8:	00003821 	move	a3,zero
  4049cc:	0c101590 	jal	405640 <__udivdi3>
  4049d0:	a3a2017b 	sb	v0,379(sp)
  4049d4:	0040f021 	move	s8,v0
  4049d8:	00604021 	move	t0,v1
  4049dc:	0810127a 	j	4049e8 <vfprintf+0xac0>
  4049e0:	27b3017b 	addiu	s3,sp,379
  4049e4:	27b3017c 	addiu	s3,sp,380
  4049e8:	03c02021 	move	a0,s8
  4049ec:	01002821 	move	a1,t0
  4049f0:	2406000a 	li	a2,10
  4049f4:	00003821 	move	a3,zero
  4049f8:	0c101686 	jal	405a18 <__moddi3>
  4049fc:	afa805ec 	sw	t0,1516(sp)
  404a00:	24420030 	addiu	v0,v0,48
  404a04:	2673ffff 	addiu	s3,s3,-1
  404a08:	a2620000 	sb	v0,0(s3)
  404a0c:	8fa805ec 	lw	t0,1516(sp)
  404a10:	03c02021 	move	a0,s8
  404a14:	2406000a 	li	a2,10
  404a18:	01002821 	move	a1,t0
  404a1c:	0c10260d 	jal	409834 <__divdi3>
  404a20:	00003821 	move	a3,zero
  404a24:	0040f021 	move	s8,v0
  404a28:	00621025 	or	v0,v1,v0
  404a2c:	1440ffee 	bnez	v0,4049e8 <vfprintf+0xac0>
  404a30:	00604021 	move	t0,v1
  404a34:	081012c2 	j	404b08 <vfprintf+0xbe0>
  404a38:	27a3017c 	addiu	v1,sp,380
  404a3c:	00022f40 	sll	a1,v0,0x1d
  404a40:	30640007 	andi	a0,v1,0x7
  404a44:	000318c2 	srl	v1,v1,0x3
  404a48:	00a31825 	or	v1,a1,v1
  404a4c:	000210c2 	srl	v0,v0,0x3
  404a50:	2673ffff 	addiu	s3,s3,-1
  404a54:	24840030 	addiu	a0,a0,48
  404a58:	00622825 	or	a1,v1,v0
  404a5c:	14a0fff7 	bnez	a1,404a3c <vfprintf+0xb14>
  404a60:	a2640000 	sb	a0,0(s3)
  404a64:	10e00027 	beqz	a3,404b04 <vfprintf+0xbdc>
  404a68:	02601821 	move	v1,s3
  404a6c:	24020030 	li	v0,48
  404a70:	50820025 	beql	a0,v0,404b08 <vfprintf+0xbe0>
  404a74:	27a3017c 	addiu	v1,sp,380
  404a78:	2673ffff 	addiu	s3,s3,-1
  404a7c:	081012c1 	j	404b04 <vfprintf+0xbdc>
  404a80:	a062ffff 	sb	v0,-1(v1)
  404a84:	8fa305c4 	lw	v1,1476(sp)
  404a88:	8fa205bc 	lw	v0,1468(sp)
  404a8c:	27b3017c 	addiu	s3,sp,380
  404a90:	8fa805e0 	lw	t0,1504(sp)
  404a94:	3064000f 	andi	a0,v1,0xf
  404a98:	2673ffff 	addiu	s3,s3,-1
  404a9c:	01042021 	addu	a0,t0,a0
  404aa0:	90840000 	lbu	a0,0(a0)
  404aa4:	00031902 	srl	v1,v1,0x4
  404aa8:	a2640000 	sb	a0,0(s3)
  404aac:	00022700 	sll	a0,v0,0x1c
  404ab0:	00831825 	or	v1,a0,v1
  404ab4:	00021102 	srl	v0,v0,0x4
  404ab8:	00622025 	or	a0,v1,v0
  404abc:	1480fff5 	bnez	a0,404a94 <vfprintf+0xb6c>
  404ac0:	8fa805e0 	lw	t0,1504(sp)
  404ac4:	081012c2 	j	404b08 <vfprintf+0xbe0>
  404ac8:	27a3017c 	addiu	v1,sp,380
  404acc:	0c102290 	jal	408a40 <abort>
  404ad0:	00000000 	nop
  404ad4:	15000004 	bnez	t0,404ae8 <vfprintf+0xbc0>
  404ad8:	8fa805e0 	lw	t0,1504(sp)
  404adc:	12a00009 	beqz	s5,404b04 <vfprintf+0xbdc>
  404ae0:	27b3017c 	addiu	s3,sp,380
  404ae4:	8fa805e0 	lw	t0,1504(sp)
  404ae8:	8fa405b8 	lw	a0,1464(sp)
  404aec:	27a5017c 	addiu	a1,sp,380
  404af0:	afa80010 	sw	t0,16(sp)
  404af4:	32270001 	andi	a3,s1,0x1
  404af8:	0c100f78 	jal	403de0 <__ultoa>
  404afc:	00000000 	nop
  404b00:	00409821 	move	s3,v0
  404b04:	27a3017c 	addiu	v1,sp,380
  404b08:	00731823 	subu	v1,v1,s3
  404b0c:	081012d6 	j	404b58 <vfprintf+0xc30>
  404b10:	02a0f021 	move	s8,s5
  404b14:	12c002a8 	beqz	s6,4055b8 <vfprintf+0x1690>
  404b18:	a3a205b2 	sb	v0,1458(sp)
  404b1c:	a3b60020 	sb	s6,32(sp)
  404b20:	a3a005b2 	sb	zero,1458(sp)
  404b24:	24030001 	li	v1,1
  404b28:	0000f021 	move	s8,zero
  404b2c:	081012d6 	j	404b58 <vfprintf+0xc30>
  404b30:	27b30020 	addiu	s3,sp,32
  404b34:	081012d5 	j	404b54 <vfprintf+0xc2c>
  404b38:	24030003 	li	v1,3
  404b3c:	3c130041 	lui	s3,0x41
  404b40:	24030003 	li	v1,3
  404b44:	0000f021 	move	s8,zero
  404b48:	081012d6 	j	404b58 <vfprintf+0xc30>
  404b4c:	2673d0dc 	addiu	s3,s3,-12068
  404b50:	8fb105d8 	lw	s1,1496(sp)
  404b54:	0000f021 	move	s8,zero
  404b58:	93a205b2 	lbu	v0,1458(sp)
  404b5c:	10400004 	beqz	v0,404b70 <vfprintf+0xc48>
  404b60:	32220002 	andi	v0,s1,0x2
  404b64:	24680001 	addiu	t0,v1,1
  404b68:	081012de 	j	404b78 <vfprintf+0xc50>
  404b6c:	afa805dc 	sw	t0,1500(sp)
  404b70:	00621021 	addu	v0,v1,v0
  404b74:	afa205dc 	sw	v0,1500(sp)
  404b78:	8fa805dc 	lw	t0,1500(sp)
  404b7c:	011e102a 	slt	v0,t0,s8
  404b80:	03c2400b 	movn	t0,s8,v0
  404b84:	afa805d8 	sw	t0,1496(sp)
  404b88:	32280084 	andi	t0,s1,0x84
  404b8c:	15000037 	bnez	t0,404c6c <vfprintf+0xd44>
  404b90:	afa805e8 	sw	t0,1512(sp)
  404b94:	8fa805c8 	lw	t0,1480(sp)
  404b98:	8fa205d8 	lw	v0,1496(sp)
  404b9c:	01023823 	subu	a3,t0,v0
  404ba0:	18e00032 	blez	a3,404c6c <vfprintf+0xd44>
  404ba4:	24090010 	li	t1,16
  404ba8:	28e40011 	slti	a0,a3,17
  404bac:	1480001b 	bnez	a0,404c1c <vfprintf+0xcf4>
  404bb0:	8fa2059c 	lw	v0,1436(sp)
  404bb4:	24420010 	addiu	v0,v0,16
  404bb8:	afa2059c 	sw	v0,1436(sp)
  404bbc:	8fa20598 	lw	v0,1432(sp)
  404bc0:	3c040041 	lui	a0,0x41
  404bc4:	2484e09c 	addiu	a0,a0,-8036
  404bc8:	24420001 	addiu	v0,v0,1
  404bcc:	afa20598 	sw	v0,1432(sp)
  404bd0:	28420008 	slti	v0,v0,8
  404bd4:	aee40000 	sw	a0,0(s7)
  404bd8:	10400003 	beqz	v0,404be8 <vfprintf+0xcc0>
  404bdc:	aee90004 	sw	t1,4(s7)
  404be0:	08101305 	j	404c14 <vfprintf+0xcec>
  404be4:	26f70008 	addiu	s7,s7,8
  404be8:	02402021 	move	a0,s2
  404bec:	27a50594 	addiu	a1,sp,1428
  404bf0:	afa305f8 	sw	v1,1528(sp)
  404bf4:	afa705f0 	sw	a3,1520(sp)
  404bf8:	0c100fbc 	jal	403ef0 <__sprint>
  404bfc:	afa905f4 	sw	t1,1524(sp)
  404c00:	8fa305f8 	lw	v1,1528(sp)
  404c04:	8fa705f0 	lw	a3,1520(sp)
  404c08:	14400271 	bnez	v0,4055d0 <vfprintf+0x16a8>
  404c0c:	8fa905f4 	lw	t1,1524(sp)
  404c10:	0280b821 	move	s7,s4
  404c14:	081012ea 	j	404ba8 <vfprintf+0xc80>
  404c18:	24e7fff0 	addiu	a3,a3,-16
  404c1c:	aee70004 	sw	a3,4(s7)
  404c20:	00473821 	addu	a3,v0,a3
  404c24:	8fa20598 	lw	v0,1432(sp)
  404c28:	3c050041 	lui	a1,0x41
  404c2c:	24a5e09c 	addiu	a1,a1,-8036
  404c30:	24420001 	addiu	v0,v0,1
  404c34:	afa20598 	sw	v0,1432(sp)
  404c38:	28420008 	slti	v0,v0,8
  404c3c:	aee50000 	sw	a1,0(s7)
  404c40:	10400003 	beqz	v0,404c50 <vfprintf+0xd28>
  404c44:	afa7059c 	sw	a3,1436(sp)
  404c48:	0810131b 	j	404c6c <vfprintf+0xd44>
  404c4c:	26f70008 	addiu	s7,s7,8
  404c50:	02402021 	move	a0,s2
  404c54:	27a50594 	addiu	a1,sp,1428
  404c58:	0c100fbc 	jal	403ef0 <__sprint>
  404c5c:	afa305f8 	sw	v1,1528(sp)
  404c60:	1440025b 	bnez	v0,4055d0 <vfprintf+0x16a8>
  404c64:	8fa305f8 	lw	v1,1528(sp)
  404c68:	0280b821 	move	s7,s4
  404c6c:	93a505b2 	lbu	a1,1458(sp)
  404c70:	8fa4059c 	lw	a0,1436(sp)
  404c74:	10a00007 	beqz	a1,404c94 <vfprintf+0xd6c>
  404c78:	8fa20598 	lw	v0,1432(sp)
  404c7c:	27a505b2 	addiu	a1,sp,1458
  404c80:	aee50000 	sw	a1,0(s7)
  404c84:	24050001 	li	a1,1
  404c88:	aee50004 	sw	a1,4(s7)
  404c8c:	08101330 	j	404cc0 <vfprintf+0xd98>
  404c90:	24840001 	addiu	a0,a0,1
  404c94:	32250002 	andi	a1,s1,0x2
  404c98:	10a00018 	beqz	a1,404cfc <vfprintf+0xdd4>
  404c9c:	8fa805e8 	lw	t0,1512(sp)
  404ca0:	24050030 	li	a1,48
  404ca4:	a3a505b0 	sb	a1,1456(sp)
  404ca8:	27a505b0 	addiu	a1,sp,1456
  404cac:	aee50000 	sw	a1,0(s7)
  404cb0:	24050002 	li	a1,2
  404cb4:	a3b605b1 	sb	s6,1457(sp)
  404cb8:	aee50004 	sw	a1,4(s7)
  404cbc:	24840002 	addiu	a0,a0,2
  404cc0:	24420001 	addiu	v0,v0,1
  404cc4:	afa20598 	sw	v0,1432(sp)
  404cc8:	28420008 	slti	v0,v0,8
  404ccc:	14400009 	bnez	v0,404cf4 <vfprintf+0xdcc>
  404cd0:	afa4059c 	sw	a0,1436(sp)
  404cd4:	02402021 	move	a0,s2
  404cd8:	27a50594 	addiu	a1,sp,1428
  404cdc:	0c100fbc 	jal	403ef0 <__sprint>
  404ce0:	afa305f8 	sw	v1,1528(sp)
  404ce4:	1440023a 	bnez	v0,4055d0 <vfprintf+0x16a8>
  404ce8:	8fa305f8 	lw	v1,1528(sp)
  404cec:	0810133e 	j	404cf8 <vfprintf+0xdd0>
  404cf0:	0280b821 	move	s7,s4
  404cf4:	26f70008 	addiu	s7,s7,8
  404cf8:	8fa805e8 	lw	t0,1512(sp)
  404cfc:	24020080 	li	v0,128
  404d00:	15020036 	bne	t0,v0,404ddc <vfprintf+0xeb4>
  404d04:	8fa805dc 	lw	t0,1500(sp)
  404d08:	8fa805c8 	lw	t0,1480(sp)
  404d0c:	8fa205d8 	lw	v0,1496(sp)
  404d10:	01023823 	subu	a3,t0,v0
  404d14:	18e00030 	blez	a3,404dd8 <vfprintf+0xeb0>
  404d18:	3c090041 	lui	t1,0x41
  404d1c:	2529e08c 	addiu	t1,t1,-8052
  404d20:	240a0010 	li	t2,16
  404d24:	28e50011 	slti	a1,a3,17
  404d28:	8fa4059c 	lw	a0,1436(sp)
  404d2c:	8fa20598 	lw	v0,1432(sp)
  404d30:	14a00019 	bnez	a1,404d98 <vfprintf+0xe70>
  404d34:	aee90000 	sw	t1,0(s7)
  404d38:	24420001 	addiu	v0,v0,1
  404d3c:	24840010 	addiu	a0,a0,16
  404d40:	afa20598 	sw	v0,1432(sp)
  404d44:	28420008 	slti	v0,v0,8
  404d48:	aeea0004 	sw	t2,4(s7)
  404d4c:	10400003 	beqz	v0,404d5c <vfprintf+0xe34>
  404d50:	afa4059c 	sw	a0,1436(sp)
  404d54:	08101364 	j	404d90 <vfprintf+0xe68>
  404d58:	26f70008 	addiu	s7,s7,8
  404d5c:	02402021 	move	a0,s2
  404d60:	27a50594 	addiu	a1,sp,1428
  404d64:	afa305f8 	sw	v1,1528(sp)
  404d68:	afa705f0 	sw	a3,1520(sp)
  404d6c:	afa905f4 	sw	t1,1524(sp)
  404d70:	0c100fbc 	jal	403ef0 <__sprint>
  404d74:	afaa05ec 	sw	t2,1516(sp)
  404d78:	8fa305f8 	lw	v1,1528(sp)
  404d7c:	8fa705f0 	lw	a3,1520(sp)
  404d80:	8fa905f4 	lw	t1,1524(sp)
  404d84:	14400212 	bnez	v0,4055d0 <vfprintf+0x16a8>
  404d88:	8faa05ec 	lw	t2,1516(sp)
  404d8c:	0280b821 	move	s7,s4
  404d90:	08101349 	j	404d24 <vfprintf+0xdfc>
  404d94:	24e7fff0 	addiu	a3,a3,-16
  404d98:	24420001 	addiu	v0,v0,1
  404d9c:	aee70004 	sw	a3,4(s7)
  404da0:	afa20598 	sw	v0,1432(sp)
  404da4:	00873821 	addu	a3,a0,a3
  404da8:	28420008 	slti	v0,v0,8
  404dac:	10400003 	beqz	v0,404dbc <vfprintf+0xe94>
  404db0:	afa7059c 	sw	a3,1436(sp)
  404db4:	08101376 	j	404dd8 <vfprintf+0xeb0>
  404db8:	26f70008 	addiu	s7,s7,8
  404dbc:	02402021 	move	a0,s2
  404dc0:	27a50594 	addiu	a1,sp,1428
  404dc4:	0c100fbc 	jal	403ef0 <__sprint>
  404dc8:	afa305f8 	sw	v1,1528(sp)
  404dcc:	14400200 	bnez	v0,4055d0 <vfprintf+0x16a8>
  404dd0:	8fa305f8 	lw	v1,1528(sp)
  404dd4:	0280b821 	move	s7,s4
  404dd8:	8fa805dc 	lw	t0,1500(sp)
  404ddc:	03c8f023 	subu	s8,s8,t0
  404de0:	1bc0002e 	blez	s8,404e9c <vfprintf+0xf74>
  404de4:	3c070041 	lui	a3,0x41
  404de8:	24e7e08c 	addiu	a3,a3,-8052
  404dec:	24090010 	li	t1,16
  404df0:	2bc40011 	slti	a0,s8,17
  404df4:	8fa6059c 	lw	a2,1436(sp)
  404df8:	8fa20598 	lw	v0,1432(sp)
  404dfc:	14800017 	bnez	a0,404e5c <vfprintf+0xf34>
  404e00:	aee70000 	sw	a3,0(s7)
  404e04:	24420001 	addiu	v0,v0,1
  404e08:	24c60010 	addiu	a2,a2,16
  404e0c:	afa20598 	sw	v0,1432(sp)
  404e10:	28420008 	slti	v0,v0,8
  404e14:	aee90004 	sw	t1,4(s7)
  404e18:	10400003 	beqz	v0,404e28 <vfprintf+0xf00>
  404e1c:	afa6059c 	sw	a2,1436(sp)
  404e20:	08101395 	j	404e54 <vfprintf+0xf2c>
  404e24:	26f70008 	addiu	s7,s7,8
  404e28:	02402021 	move	a0,s2
  404e2c:	27a50594 	addiu	a1,sp,1428
  404e30:	afa305f8 	sw	v1,1528(sp)
  404e34:	afa705f0 	sw	a3,1520(sp)
  404e38:	0c100fbc 	jal	403ef0 <__sprint>
  404e3c:	afa905f4 	sw	t1,1524(sp)
  404e40:	8fa305f8 	lw	v1,1528(sp)
  404e44:	8fa705f0 	lw	a3,1520(sp)
  404e48:	144001e1 	bnez	v0,4055d0 <vfprintf+0x16a8>
  404e4c:	8fa905f4 	lw	t1,1524(sp)
  404e50:	0280b821 	move	s7,s4
  404e54:	0810137c 	j	404df0 <vfprintf+0xec8>
  404e58:	27defff0 	addiu	s8,s8,-16
  404e5c:	24420001 	addiu	v0,v0,1
  404e60:	aefe0004 	sw	s8,4(s7)
  404e64:	afa20598 	sw	v0,1432(sp)
  404e68:	00def021 	addu	s8,a2,s8
  404e6c:	28420008 	slti	v0,v0,8
  404e70:	10400003 	beqz	v0,404e80 <vfprintf+0xf58>
  404e74:	afbe059c 	sw	s8,1436(sp)
  404e78:	081013a7 	j	404e9c <vfprintf+0xf74>
  404e7c:	26f70008 	addiu	s7,s7,8
  404e80:	02402021 	move	a0,s2
  404e84:	27a50594 	addiu	a1,sp,1428
  404e88:	0c100fbc 	jal	403ef0 <__sprint>
  404e8c:	afa305f8 	sw	v1,1528(sp)
  404e90:	144001cf 	bnez	v0,4055d0 <vfprintf+0x16a8>
  404e94:	8fa305f8 	lw	v1,1528(sp)
  404e98:	0280b821 	move	s7,s4
  404e9c:	32220100 	andi	v0,s1,0x100
  404ea0:	8fa9059c 	lw	t1,1436(sp)
  404ea4:	14400006 	bnez	v0,404ec0 <vfprintf+0xf98>
  404ea8:	8fbe0598 	lw	s8,1432(sp)
  404eac:	aee30004 	sw	v1,4(s7)
  404eb0:	01231821 	addu	v1,t1,v1
  404eb4:	aef30000 	sw	s3,0(s7)
  404eb8:	081013c9 	j	404f24 <vfprintf+0xffc>
  404ebc:	afa3059c 	sw	v1,1436(sp)
  404ec0:	2ad60066 	slti	s6,s6,102
  404ec4:	16c0010f 	bnez	s6,405304 <vfprintf+0x13dc>
  404ec8:	8fa805c0 	lw	t0,1472(sp)
  404ecc:	8fa305cc 	lw	v1,1484(sp)
  404ed0:	8fa205d4 	lw	v0,1492(sp)
  404ed4:	00003021 	move	a2,zero
  404ed8:	00602021 	move	a0,v1
  404edc:	00402821 	move	a1,v0
  404ee0:	00003821 	move	a3,zero
  404ee4:	0c102d72 	jal	40b5c8 <__eqdf2>
  404ee8:	afa905f4 	sw	t1,1524(sp)
  404eec:	14400049 	bnez	v0,405014 <vfprintf+0x10ec>
  404ef0:	8fa905f4 	lw	t1,1524(sp)
  404ef4:	12a00005 	beqz	s5,404f0c <vfprintf+0xfe4>
  404ef8:	3c020041 	lui	v0,0x41
  404efc:	32220001 	andi	v0,s1,0x1
  404f00:	14400014 	bnez	v0,404f54 <vfprintf+0x102c>
  404f04:	3c020041 	lui	v0,0x41
  404f08:	3c020041 	lui	v0,0x41
  404f0c:	2442d0e0 	addiu	v0,v0,-12064
  404f10:	aee20000 	sw	v0,0(s7)
  404f14:	25290001 	addiu	t1,t1,1
  404f18:	24020001 	li	v0,1
  404f1c:	aee20004 	sw	v0,4(s7)
  404f20:	afa9059c 	sw	t1,1436(sp)
  404f24:	27de0001 	addiu	s8,s8,1
  404f28:	afbe0598 	sw	s8,1432(sp)
  404f2c:	2bde0008 	slti	s8,s8,8
  404f30:	17c00160 	bnez	s8,4054b4 <vfprintf+0x158c>
  404f34:	26e80008 	addiu	t0,s7,8
  404f38:	02402021 	move	a0,s2
  404f3c:	0c100fbc 	jal	403ef0 <__sprint>
  404f40:	27a50594 	addiu	a1,sp,1428
  404f44:	144001a2 	bnez	v0,4055d0 <vfprintf+0x16a8>
  404f48:	02804021 	move	t0,s4
  404f4c:	0810152e 	j	4054b8 <vfprintf+0x1590>
  404f50:	32310004 	andi	s1,s1,0x4
  404f54:	2442d0e4 	addiu	v0,v0,-12060
  404f58:	27de0001 	addiu	s8,s8,1
  404f5c:	aee20000 	sw	v0,0(s7)
  404f60:	25290002 	addiu	t1,t1,2
  404f64:	24020002 	li	v0,2
  404f68:	afbe0598 	sw	s8,1432(sp)
  404f6c:	2bde0008 	slti	s8,s8,8
  404f70:	aee20004 	sw	v0,4(s7)
  404f74:	13c00003 	beqz	s8,404f84 <vfprintf+0x105c>
  404f78:	afa9059c 	sw	t1,1436(sp)
  404f7c:	081013e6 	j	404f98 <vfprintf+0x1070>
  404f80:	26e80008 	addiu	t0,s7,8
  404f84:	02402021 	move	a0,s2
  404f88:	0c100fbc 	jal	403ef0 <__sprint>
  404f8c:	27a50594 	addiu	a1,sp,1428
  404f90:	1440018f 	bnez	v0,4055d0 <vfprintf+0x16a8>
  404f94:	02804021 	move	t0,s4
  404f98:	8fa205c0 	lw	v0,1472(sp)
  404f9c:	2453ffff 	addiu	s3,v0,-1
  404fa0:	1a600144 	blez	s3,4054b4 <vfprintf+0x158c>
  404fa4:	3c150041 	lui	s5,0x41
  404fa8:	26b5e08c 	addiu	s5,s5,-8052
  404fac:	24160010 	li	s6,16
  404fb0:	2a640011 	slti	a0,s3,17
  404fb4:	8fa3059c 	lw	v1,1436(sp)
  404fb8:	8fa20598 	lw	v0,1432(sp)
  404fbc:	14800011 	bnez	a0,405004 <vfprintf+0x10dc>
  404fc0:	ad150000 	sw	s5,0(t0)
  404fc4:	24420001 	addiu	v0,v0,1
  404fc8:	24630010 	addiu	v1,v1,16
  404fcc:	afa20598 	sw	v0,1432(sp)
  404fd0:	28420008 	slti	v0,v0,8
  404fd4:	ad160004 	sw	s6,4(t0)
  404fd8:	10400003 	beqz	v0,404fe8 <vfprintf+0x10c0>
  404fdc:	afa3059c 	sw	v1,1436(sp)
  404fe0:	081013ff 	j	404ffc <vfprintf+0x10d4>
  404fe4:	25080008 	addiu	t0,t0,8
  404fe8:	02402021 	move	a0,s2
  404fec:	0c100fbc 	jal	403ef0 <__sprint>
  404ff0:	27a50594 	addiu	a1,sp,1428
  404ff4:	14400176 	bnez	v0,4055d0 <vfprintf+0x16a8>
  404ff8:	02804021 	move	t0,s4
  404ffc:	081013ec 	j	404fb0 <vfprintf+0x1088>
  405000:	2673fff0 	addiu	s3,s3,-16
  405004:	ad130004 	sw	s3,4(t0)
  405008:	00739821 	addu	s3,v1,s3
  40500c:	081014ba 	j	4052e8 <vfprintf+0x13c0>
  405010:	afb3059c 	sw	s3,1436(sp)
  405014:	8fa305ac 	lw	v1,1452(sp)
  405018:	1c600041 	bgtz	v1,405120 <vfprintf+0x11f8>
  40501c:	8fa805c0 	lw	t0,1472(sp)
  405020:	3c020041 	lui	v0,0x41
  405024:	2442d0e4 	addiu	v0,v0,-12060
  405028:	27de0001 	addiu	s8,s8,1
  40502c:	aee20000 	sw	v0,0(s7)
  405030:	25290002 	addiu	t1,t1,2
  405034:	24020002 	li	v0,2
  405038:	afbe0598 	sw	s8,1432(sp)
  40503c:	2bde0008 	slti	s8,s8,8
  405040:	aee20004 	sw	v0,4(s7)
  405044:	13c00003 	beqz	s8,405054 <vfprintf+0x112c>
  405048:	afa9059c 	sw	t1,1436(sp)
  40504c:	0810141a 	j	405068 <vfprintf+0x1140>
  405050:	26e80008 	addiu	t0,s7,8
  405054:	02402021 	move	a0,s2
  405058:	0c100fbc 	jal	403ef0 <__sprint>
  40505c:	27a50594 	addiu	a1,sp,1428
  405060:	1440015b 	bnez	v0,4055d0 <vfprintf+0x16a8>
  405064:	02804021 	move	t0,s4
  405068:	8fb505ac 	lw	s5,1452(sp)
  40506c:	0015a823 	negu	s5,s5
  405070:	1aa00026 	blez	s5,40510c <vfprintf+0x11e4>
  405074:	3c160041 	lui	s6,0x41
  405078:	26d6e08c 	addiu	s6,s6,-8052
  40507c:	241e0010 	li	s8,16
  405080:	2aa40011 	slti	a0,s5,17
  405084:	8fa3059c 	lw	v1,1436(sp)
  405088:	8fa20598 	lw	v0,1432(sp)
  40508c:	14800011 	bnez	a0,4050d4 <vfprintf+0x11ac>
  405090:	ad160000 	sw	s6,0(t0)
  405094:	24420001 	addiu	v0,v0,1
  405098:	24630010 	addiu	v1,v1,16
  40509c:	afa20598 	sw	v0,1432(sp)
  4050a0:	28420008 	slti	v0,v0,8
  4050a4:	ad1e0004 	sw	s8,4(t0)
  4050a8:	10400003 	beqz	v0,4050b8 <vfprintf+0x1190>
  4050ac:	afa3059c 	sw	v1,1436(sp)
  4050b0:	08101433 	j	4050cc <vfprintf+0x11a4>
  4050b4:	25080008 	addiu	t0,t0,8
  4050b8:	02402021 	move	a0,s2
  4050bc:	0c100fbc 	jal	403ef0 <__sprint>
  4050c0:	27a50594 	addiu	a1,sp,1428
  4050c4:	14400142 	bnez	v0,4055d0 <vfprintf+0x16a8>
  4050c8:	02804021 	move	t0,s4
  4050cc:	08101420 	j	405080 <vfprintf+0x1158>
  4050d0:	26b5fff0 	addiu	s5,s5,-16
  4050d4:	24420001 	addiu	v0,v0,1
  4050d8:	ad150004 	sw	s5,4(t0)
  4050dc:	afa20598 	sw	v0,1432(sp)
  4050e0:	0075a821 	addu	s5,v1,s5
  4050e4:	28420008 	slti	v0,v0,8
  4050e8:	10400003 	beqz	v0,4050f8 <vfprintf+0x11d0>
  4050ec:	afb5059c 	sw	s5,1436(sp)
  4050f0:	08101443 	j	40510c <vfprintf+0x11e4>
  4050f4:	25080008 	addiu	t0,t0,8
  4050f8:	02402021 	move	a0,s2
  4050fc:	0c100fbc 	jal	403ef0 <__sprint>
  405100:	27a50594 	addiu	a1,sp,1428
  405104:	14400132 	bnez	v0,4055d0 <vfprintf+0x16a8>
  405108:	02804021 	move	t0,s4
  40510c:	8fa305c0 	lw	v1,1472(sp)
  405110:	ad130000 	sw	s3,0(t0)
  405114:	8fa2059c 	lw	v0,1436(sp)
  405118:	081014b7 	j	4052dc <vfprintf+0x13b4>
  40511c:	ad030004 	sw	v1,4(t0)
  405120:	0068102a 	slt	v0,v1,t0
  405124:	14400044 	bnez	v0,405238 <vfprintf+0x1310>
  405128:	aef30000 	sw	s3,0(s7)
  40512c:	27de0001 	addiu	s8,s8,1
  405130:	01284821 	addu	t1,t1,t0
  405134:	afbe0598 	sw	s8,1432(sp)
  405138:	2bde0008 	slti	s8,s8,8
  40513c:	aee80004 	sw	t0,4(s7)
  405140:	13c00003 	beqz	s8,405150 <vfprintf+0x1228>
  405144:	afa9059c 	sw	t1,1436(sp)
  405148:	08101459 	j	405164 <vfprintf+0x123c>
  40514c:	26e80008 	addiu	t0,s7,8
  405150:	02402021 	move	a0,s2
  405154:	0c100fbc 	jal	403ef0 <__sprint>
  405158:	27a50594 	addiu	a1,sp,1428
  40515c:	1440011c 	bnez	v0,4055d0 <vfprintf+0x16a8>
  405160:	02804021 	move	t0,s4
  405164:	8fb305ac 	lw	s3,1452(sp)
  405168:	8fa205c0 	lw	v0,1472(sp)
  40516c:	02629823 	subu	s3,s3,v0
  405170:	1a600026 	blez	s3,40520c <vfprintf+0x12e4>
  405174:	3c150041 	lui	s5,0x41
  405178:	26b5e08c 	addiu	s5,s5,-8052
  40517c:	24160010 	li	s6,16
  405180:	2a640011 	slti	a0,s3,17
  405184:	8fa3059c 	lw	v1,1436(sp)
  405188:	8fa20598 	lw	v0,1432(sp)
  40518c:	14800011 	bnez	a0,4051d4 <vfprintf+0x12ac>
  405190:	ad150000 	sw	s5,0(t0)
  405194:	24420001 	addiu	v0,v0,1
  405198:	24630010 	addiu	v1,v1,16
  40519c:	afa20598 	sw	v0,1432(sp)
  4051a0:	28420008 	slti	v0,v0,8
  4051a4:	ad160004 	sw	s6,4(t0)
  4051a8:	10400003 	beqz	v0,4051b8 <vfprintf+0x1290>
  4051ac:	afa3059c 	sw	v1,1436(sp)
  4051b0:	08101473 	j	4051cc <vfprintf+0x12a4>
  4051b4:	25080008 	addiu	t0,t0,8
  4051b8:	02402021 	move	a0,s2
  4051bc:	0c100fbc 	jal	403ef0 <__sprint>
  4051c0:	27a50594 	addiu	a1,sp,1428
  4051c4:	14400102 	bnez	v0,4055d0 <vfprintf+0x16a8>
  4051c8:	02804021 	move	t0,s4
  4051cc:	08101460 	j	405180 <vfprintf+0x1258>
  4051d0:	2673fff0 	addiu	s3,s3,-16
  4051d4:	24420001 	addiu	v0,v0,1
  4051d8:	ad130004 	sw	s3,4(t0)
  4051dc:	afa20598 	sw	v0,1432(sp)
  4051e0:	00739821 	addu	s3,v1,s3
  4051e4:	28420008 	slti	v0,v0,8
  4051e8:	10400003 	beqz	v0,4051f8 <vfprintf+0x12d0>
  4051ec:	afb3059c 	sw	s3,1436(sp)
  4051f0:	08101483 	j	40520c <vfprintf+0x12e4>
  4051f4:	25080008 	addiu	t0,t0,8
  4051f8:	02402021 	move	a0,s2
  4051fc:	0c100fbc 	jal	403ef0 <__sprint>
  405200:	27a50594 	addiu	a1,sp,1428
  405204:	144000f2 	bnez	v0,4055d0 <vfprintf+0x16a8>
  405208:	02804021 	move	t0,s4
  40520c:	32220001 	andi	v0,s1,0x1
  405210:	504000a9 	beqzl	v0,4054b8 <vfprintf+0x1590>
  405214:	32310004 	andi	s1,s1,0x4
  405218:	3c020041 	lui	v0,0x41
  40521c:	2442c718 	addiu	v0,v0,-14568
  405220:	ad020000 	sw	v0,0(t0)
  405224:	24020001 	li	v0,1
  405228:	ad020004 	sw	v0,4(t0)
  40522c:	8fa2059c 	lw	v0,1436(sp)
  405230:	081014b8 	j	4052e0 <vfprintf+0x13b8>
  405234:	24420001 	addiu	v0,v0,1
  405238:	27de0001 	addiu	s8,s8,1
  40523c:	aee30004 	sw	v1,4(s7)
  405240:	afbe0598 	sw	s8,1432(sp)
  405244:	01231821 	addu	v1,t1,v1
  405248:	2bde0008 	slti	s8,s8,8
  40524c:	13c00003 	beqz	s8,40525c <vfprintf+0x1334>
  405250:	afa3059c 	sw	v1,1436(sp)
  405254:	0810149c 	j	405270 <vfprintf+0x1348>
  405258:	26e80008 	addiu	t0,s7,8
  40525c:	02402021 	move	a0,s2
  405260:	0c100fbc 	jal	403ef0 <__sprint>
  405264:	27a50594 	addiu	a1,sp,1428
  405268:	144000d9 	bnez	v0,4055d0 <vfprintf+0x16a8>
  40526c:	02804021 	move	t0,s4
  405270:	8fa205ac 	lw	v0,1452(sp)
  405274:	02629821 	addu	s3,s3,v0
  405278:	3c020041 	lui	v0,0x41
  40527c:	2442c718 	addiu	v0,v0,-14568
  405280:	ad020000 	sw	v0,0(t0)
  405284:	24020001 	li	v0,1
  405288:	ad020004 	sw	v0,4(t0)
  40528c:	8fa2059c 	lw	v0,1436(sp)
  405290:	24420001 	addiu	v0,v0,1
  405294:	afa2059c 	sw	v0,1436(sp)
  405298:	8fa20598 	lw	v0,1432(sp)
  40529c:	24420001 	addiu	v0,v0,1
  4052a0:	afa20598 	sw	v0,1432(sp)
  4052a4:	28420008 	slti	v0,v0,8
  4052a8:	14400006 	bnez	v0,4052c4 <vfprintf+0x139c>
  4052ac:	25080008 	addiu	t0,t0,8
  4052b0:	02402021 	move	a0,s2
  4052b4:	0c100fbc 	jal	403ef0 <__sprint>
  4052b8:	27a50594 	addiu	a1,sp,1428
  4052bc:	144000c4 	bnez	v0,4055d0 <vfprintf+0x16a8>
  4052c0:	02804021 	move	t0,s4
  4052c4:	8fa305c0 	lw	v1,1472(sp)
  4052c8:	8fa205ac 	lw	v0,1452(sp)
  4052cc:	ad130000 	sw	s3,0(t0)
  4052d0:	00621023 	subu	v0,v1,v0
  4052d4:	8fa3059c 	lw	v1,1436(sp)
  4052d8:	ad020004 	sw	v0,4(t0)
  4052dc:	00621021 	addu	v0,v1,v0
  4052e0:	afa2059c 	sw	v0,1436(sp)
  4052e4:	8fa20598 	lw	v0,1432(sp)
  4052e8:	24420001 	addiu	v0,v0,1
  4052ec:	afa20598 	sw	v0,1432(sp)
  4052f0:	28420008 	slti	v0,v0,8
  4052f4:	1040ff10 	beqz	v0,404f38 <vfprintf+0x1010>
  4052f8:	25080008 	addiu	t0,t0,8
  4052fc:	0810152e 	j	4054b8 <vfprintf+0x1590>
  405300:	32310004 	andi	s1,s1,0x4
  405304:	29020002 	slti	v0,t0,2
  405308:	50400005 	beqzl	v0,405320 <vfprintf+0x13f8>
  40530c:	92620000 	lbu	v0,0(s3)
  405310:	32220001 	andi	v0,s1,0x1
  405314:	50400051 	beqzl	v0,40545c <vfprintf+0x1534>
  405318:	27de0001 	addiu	s8,s8,1
  40531c:	92620000 	lbu	v0,0(s3)
  405320:	27de0001 	addiu	s8,s8,1
  405324:	25290002 	addiu	t1,t1,2
  405328:	a3a205b0 	sb	v0,1456(sp)
  40532c:	2402002e 	li	v0,46
  405330:	a3a205b1 	sb	v0,1457(sp)
  405334:	27a205b0 	addiu	v0,sp,1456
  405338:	aee20000 	sw	v0,0(s7)
  40533c:	afbe0598 	sw	s8,1432(sp)
  405340:	24020002 	li	v0,2
  405344:	2bde0008 	slti	s8,s8,8
  405348:	aee20004 	sw	v0,4(s7)
  40534c:	13c00003 	beqz	s8,40535c <vfprintf+0x1434>
  405350:	afa9059c 	sw	t1,1436(sp)
  405354:	081014dc 	j	405370 <vfprintf+0x1448>
  405358:	26f50008 	addiu	s5,s7,8
  40535c:	02402021 	move	a0,s2
  405360:	0c100fbc 	jal	403ef0 <__sprint>
  405364:	27a50594 	addiu	a1,sp,1428
  405368:	14400099 	bnez	v0,4055d0 <vfprintf+0x16a8>
  40536c:	0280a821 	move	s5,s4
  405370:	8fa305cc 	lw	v1,1484(sp)
  405374:	8fa205d4 	lw	v0,1492(sp)
  405378:	00003021 	move	a2,zero
  40537c:	00602021 	move	a0,v1
  405380:	00402821 	move	a1,v0
  405384:	0c102d72 	jal	40b5c8 <__eqdf2>
  405388:	00003821 	move	a3,zero
  40538c:	8fa805c0 	lw	t0,1472(sp)
  405390:	10400009 	beqz	v0,4053b8 <vfprintf+0x1490>
  405394:	2503ffff 	addiu	v1,t0,-1
  405398:	26730001 	addiu	s3,s3,1
  40539c:	aeb30000 	sw	s3,0(s5)
  4053a0:	8fb3059c 	lw	s3,1436(sp)
  4053a4:	aea30004 	sw	v1,4(s5)
  4053a8:	8fa20598 	lw	v0,1432(sp)
  4053ac:	02631821 	addu	v1,s3,v1
  4053b0:	0810150b 	j	40542c <vfprintf+0x1504>
  4053b4:	afa3059c 	sw	v1,1436(sp)
  4053b8:	18600031 	blez	v1,405480 <vfprintf+0x1558>
  4053bc:	00609821 	move	s3,v1
  4053c0:	3c160041 	lui	s6,0x41
  4053c4:	26d6e08c 	addiu	s6,s6,-8052
  4053c8:	241e0010 	li	s8,16
  4053cc:	2a640011 	slti	a0,s3,17
  4053d0:	8fa3059c 	lw	v1,1436(sp)
  4053d4:	8fa20598 	lw	v0,1432(sp)
  4053d8:	14800011 	bnez	a0,405420 <vfprintf+0x14f8>
  4053dc:	aeb60000 	sw	s6,0(s5)
  4053e0:	24420001 	addiu	v0,v0,1
  4053e4:	24630010 	addiu	v1,v1,16
  4053e8:	afa20598 	sw	v0,1432(sp)
  4053ec:	28420008 	slti	v0,v0,8
  4053f0:	aebe0004 	sw	s8,4(s5)
  4053f4:	10400003 	beqz	v0,405404 <vfprintf+0x14dc>
  4053f8:	afa3059c 	sw	v1,1436(sp)
  4053fc:	08101506 	j	405418 <vfprintf+0x14f0>
  405400:	26b50008 	addiu	s5,s5,8
  405404:	02402021 	move	a0,s2
  405408:	0c100fbc 	jal	403ef0 <__sprint>
  40540c:	27a50594 	addiu	a1,sp,1428
  405410:	1440006f 	bnez	v0,4055d0 <vfprintf+0x16a8>
  405414:	0280a821 	move	s5,s4
  405418:	081014f3 	j	4053cc <vfprintf+0x14a4>
  40541c:	2673fff0 	addiu	s3,s3,-16
  405420:	aeb30004 	sw	s3,4(s5)
  405424:	00739821 	addu	s3,v1,s3
  405428:	afb3059c 	sw	s3,1436(sp)
  40542c:	24420001 	addiu	v0,v0,1
  405430:	afa20598 	sw	v0,1432(sp)
  405434:	28420008 	slti	v0,v0,8
  405438:	54400011 	bnezl	v0,405480 <vfprintf+0x1558>
  40543c:	26b50008 	addiu	s5,s5,8
  405440:	02402021 	move	a0,s2
  405444:	0c100fbc 	jal	403ef0 <__sprint>
  405448:	27a50594 	addiu	a1,sp,1428
  40544c:	14400060 	bnez	v0,4055d0 <vfprintf+0x16a8>
  405450:	0280a821 	move	s5,s4
  405454:	08101521 	j	405484 <vfprintf+0x155c>
  405458:	27a205a0 	addiu	v0,sp,1440
  40545c:	24020001 	li	v0,1
  405460:	25290001 	addiu	t1,t1,1
  405464:	afbe0598 	sw	s8,1432(sp)
  405468:	2bde0008 	slti	s8,s8,8
  40546c:	aef30000 	sw	s3,0(s7)
  405470:	aee20004 	sw	v0,4(s7)
  405474:	13c0fff2 	beqz	s8,405440 <vfprintf+0x1518>
  405478:	afa9059c 	sw	t1,1436(sp)
  40547c:	26f50008 	addiu	s5,s7,8
  405480:	27a205a0 	addiu	v0,sp,1440
  405484:	8fa805e4 	lw	t0,1508(sp)
  405488:	aea20000 	sw	v0,0(s5)
  40548c:	8fa2059c 	lw	v0,1436(sp)
  405490:	aea80004 	sw	t0,4(s5)
  405494:	00481021 	addu	v0,v0,t0
  405498:	afa2059c 	sw	v0,1436(sp)
  40549c:	8fa20598 	lw	v0,1432(sp)
  4054a0:	24420001 	addiu	v0,v0,1
  4054a4:	afa20598 	sw	v0,1432(sp)
  4054a8:	28420008 	slti	v0,v0,8
  4054ac:	1040fea2 	beqz	v0,404f38 <vfprintf+0x1010>
  4054b0:	26a80008 	addiu	t0,s5,8
  4054b4:	32310004 	andi	s1,s1,0x4
  4054b8:	1620000d 	bnez	s1,4054f0 <vfprintf+0x15c8>
  4054bc:	8fa205c8 	lw	v0,1480(sp)
  4054c0:	8fa805c8 	lw	t0,1480(sp)
  4054c4:	8fa305d8 	lw	v1,1496(sp)
  4054c8:	0100b821 	move	s7,t0
  4054cc:	0068102a 	slt	v0,v1,t0
  4054d0:	8fa805d0 	lw	t0,1488(sp)
  4054d4:	0062b80a 	movz	s7,v1,v0
  4054d8:	8fa2059c 	lw	v0,1436(sp)
  4054dc:	01174021 	addu	t0,t0,s7
  4054e0:	10400033 	beqz	v0,4055b0 <vfprintf+0x1688>
  4054e4:	afa805d0 	sw	t0,1488(sp)
  4054e8:	08101568 	j	4055a0 <vfprintf+0x1678>
  4054ec:	02402021 	move	a0,s2
  4054f0:	8fa305d8 	lw	v1,1496(sp)
  4054f4:	00438823 	subu	s1,v0,v1
  4054f8:	1a20fff1 	blez	s1,4054c0 <vfprintf+0x1598>
  4054fc:	24130010 	li	s3,16
  405500:	2a240011 	slti	a0,s1,17
  405504:	8fa3059c 	lw	v1,1436(sp)
  405508:	14800014 	bnez	a0,40555c <vfprintf+0x1634>
  40550c:	8fa20598 	lw	v0,1432(sp)
  405510:	24420001 	addiu	v0,v0,1
  405514:	3c040041 	lui	a0,0x41
  405518:	2484e09c 	addiu	a0,a0,-8036
  40551c:	24630010 	addiu	v1,v1,16
  405520:	afa20598 	sw	v0,1432(sp)
  405524:	28420008 	slti	v0,v0,8
  405528:	ad040000 	sw	a0,0(t0)
  40552c:	ad130004 	sw	s3,4(t0)
  405530:	10400003 	beqz	v0,405540 <vfprintf+0x1618>
  405534:	afa3059c 	sw	v1,1436(sp)
  405538:	08101555 	j	405554 <vfprintf+0x162c>
  40553c:	25080008 	addiu	t0,t0,8
  405540:	02402021 	move	a0,s2
  405544:	0c100fbc 	jal	403ef0 <__sprint>
  405548:	27a50594 	addiu	a1,sp,1428
  40554c:	14400020 	bnez	v0,4055d0 <vfprintf+0x16a8>
  405550:	02804021 	move	t0,s4
  405554:	08101540 	j	405500 <vfprintf+0x15d8>
  405558:	2631fff0 	addiu	s1,s1,-16
  40555c:	24420001 	addiu	v0,v0,1
  405560:	3c050041 	lui	a1,0x41
  405564:	24a5e09c 	addiu	a1,a1,-8036
  405568:	ad110004 	sw	s1,4(t0)
  40556c:	afa20598 	sw	v0,1432(sp)
  405570:	00718821 	addu	s1,v1,s1
  405574:	28420008 	slti	v0,v0,8
  405578:	ad050000 	sw	a1,0(t0)
  40557c:	1440ffd0 	bnez	v0,4054c0 <vfprintf+0x1598>
  405580:	afb1059c 	sw	s1,1436(sp)
  405584:	02402021 	move	a0,s2
  405588:	0c100fbc 	jal	403ef0 <__sprint>
  40558c:	27a50594 	addiu	a1,sp,1428
  405590:	1040ffcc 	beqz	v0,4054c4 <vfprintf+0x159c>
  405594:	8fa805c8 	lw	t0,1480(sp)
  405598:	08101575 	j	4055d4 <vfprintf+0x16ac>
  40559c:	9642000c 	lhu	v0,12(s2)
  4055a0:	0c100fbc 	jal	403ef0 <__sprint>
  4055a4:	27a50594 	addiu	a1,sp,1428
  4055a8:	5440000a 	bnezl	v0,4055d4 <vfprintf+0x16ac>
  4055ac:	9642000c 	lhu	v0,12(s2)
  4055b0:	08101013 	j	40404c <vfprintf+0x124>
  4055b4:	afa00598 	sw	zero,1432(sp)
  4055b8:	8fa2059c 	lw	v0,1436(sp)
  4055bc:	50400005 	beqzl	v0,4055d4 <vfprintf+0x16ac>
  4055c0:	9642000c 	lhu	v0,12(s2)
  4055c4:	02402021 	move	a0,s2
  4055c8:	0c100fbc 	jal	403ef0 <__sprint>
  4055cc:	27a50594 	addiu	a1,sp,1428
  4055d0:	9642000c 	lhu	v0,12(s2)
  4055d4:	30420040 	andi	v0,v0,0x40
  4055d8:	14400002 	bnez	v0,4055e4 <vfprintf+0x16bc>
  4055dc:	2402ffff 	li	v0,-1
  4055e0:	8fa205d0 	lw	v0,1488(sp)
  4055e4:	8fbf0624 	lw	ra,1572(sp)
  4055e8:	8fbe0620 	lw	s8,1568(sp)
  4055ec:	8fb7061c 	lw	s7,1564(sp)
  4055f0:	8fb60618 	lw	s6,1560(sp)
  4055f4:	8fb50614 	lw	s5,1556(sp)
  4055f8:	8fb40610 	lw	s4,1552(sp)
  4055fc:	8fb3060c 	lw	s3,1548(sp)
  405600:	8fb20608 	lw	s2,1544(sp)
  405604:	8fb10604 	lw	s1,1540(sp)
  405608:	8fb00600 	lw	s0,1536(sp)
  40560c:	03e00008 	jr	ra
  405610:	27bd0628 	addiu	sp,sp,1576

00405614 <__umoddi3>:
  405614:	27bdffd8 	addiu	sp,sp,-40
  405618:	27a20018 	addiu	v0,sp,24
  40561c:	afa20010 	sw	v0,16(sp)
  405620:	afbf0024 	sw	ra,36(sp)
  405624:	0c102651 	jal	409944 <__qdivrem>
  405628:	00000000 	nop
  40562c:	8fbf0024 	lw	ra,36(sp)
  405630:	8fa20018 	lw	v0,24(sp)
  405634:	8fa3001c 	lw	v1,28(sp)
  405638:	03e00008 	jr	ra
  40563c:	27bd0028 	addiu	sp,sp,40

00405640 <__udivdi3>:
  405640:	27bdffe0 	addiu	sp,sp,-32
  405644:	afa00010 	sw	zero,16(sp)
  405648:	afbf001c 	sw	ra,28(sp)
  40564c:	0c102651 	jal	409944 <__qdivrem>
  405650:	00000000 	nop
  405654:	8fbf001c 	lw	ra,28(sp)
  405658:	03e00008 	jr	ra
  40565c:	27bd0020 	addiu	sp,sp,32
  405660:	29232840 	slti	v1,t1,10304
  405664:	6c727473 	0x6c727473
  405668:	732e6e65 	0x732e6e65
  40566c:	312e3809 	andi	t6,t1,0x3809
  405670:	65422820 	0x65422820
  405674:	6c656b72 	0x6c656b72
  405678:	20297965 	addi	t1,at,31077
  40567c:	2f342f36 	sltiu	s4,t9,12086
  405680:	00003339 	0x3339

00405684 <strlen>:
  405684:	24830001 	addiu	v1,a0,1
  405688:	80820000 	lb	v0,0(a0)
  40568c:	1440fffe 	bnez	v0,405688 <strlen+0x4>
  405690:	24840001 	addiu	a0,a0,1
  405694:	03e00008 	jr	ra
  405698:	00831023 	subu	v0,a0,v1

0040569c <__sfvwrite>:
  40569c:	8ca20008 	lw	v0,8(a1)
  4056a0:	27bdffc8 	addiu	sp,sp,-56
  4056a4:	afb50024 	sw	s5,36(sp)
  4056a8:	afbf0034 	sw	ra,52(sp)
  4056ac:	afbe0030 	sw	s8,48(sp)
  4056b0:	afb7002c 	sw	s7,44(sp)
  4056b4:	afb60028 	sw	s6,40(sp)
  4056b8:	afb40020 	sw	s4,32(sp)
  4056bc:	afb3001c 	sw	s3,28(sp)
  4056c0:	afb20018 	sw	s2,24(sp)
  4056c4:	afb10014 	sw	s1,20(sp)
  4056c8:	afb00010 	sw	s0,16(sp)
  4056cc:	14400003 	bnez	v0,4056dc <__sfvwrite+0x40>
  4056d0:	00a0a821 	move	s5,a1
  4056d4:	0810167a 	j	4059e8 <__sfvwrite+0x34c>
  4056d8:	00001021 	move	v0,zero
  4056dc:	9482000c 	lhu	v0,12(a0)
  4056e0:	30420008 	andi	v0,v0,0x8
  4056e4:	1040000d 	beqz	v0,40571c <__sfvwrite+0x80>
  4056e8:	00808021 	move	s0,a0
  4056ec:	8c820010 	lw	v0,16(a0)
  4056f0:	1040000a 	beqz	v0,40571c <__sfvwrite+0x80>
  4056f4:	00000000 	nop
  4056f8:	9602000c 	lhu	v0,12(s0)
  4056fc:	8eb40000 	lw	s4,0(s5)
  405700:	30430002 	andi	v1,v0,0x2
  405704:	8e920000 	lw	s2,0(s4)
  405708:	8e910004 	lw	s1,4(s4)
  40570c:	1060001d 	beqz	v1,405784 <__sfvwrite+0xe8>
  405710:	26940008 	addiu	s4,s4,8
  405714:	081015db 	j	40576c <__sfvwrite+0xd0>
  405718:	24130400 	li	s3,1024
  40571c:	0c1022ae 	jal	408ab8 <__swsetup>
  405720:	02002021 	move	a0,s0
  405724:	5040fff5 	beqzl	v0,4056fc <__sfvwrite+0x60>
  405728:	9602000c 	lhu	v0,12(s0)
  40572c:	0810167a 	j	4059e8 <__sfvwrite+0x34c>
  405730:	2402ffff 	li	v0,-1
  405734:	02601821 	move	v1,s3
  405738:	8e02002c 	lw	v0,44(s0)
  40573c:	8e04001c 	lw	a0,28(s0)
  405740:	0226180b 	movn	v1,s1,a2
  405744:	02402821 	move	a1,s2
  405748:	0040f809 	jalr	v0
  40574c:	00603021 	move	a2,v1
  405750:	184000a1 	blez	v0,4059d8 <__sfvwrite+0x33c>
  405754:	02429021 	addu	s2,s2,v0
  405758:	8ea30008 	lw	v1,8(s5)
  40575c:	02228823 	subu	s1,s1,v0
  405760:	00621023 	subu	v0,v1,v0
  405764:	1040ffdb 	beqz	v0,4056d4 <__sfvwrite+0x38>
  405768:	aea20008 	sw	v0,8(s5)
  40576c:	5620fff1 	bnezl	s1,405734 <__sfvwrite+0x98>
  405770:	2e260401 	sltiu	a2,s1,1025
  405774:	8e920000 	lw	s2,0(s4)
  405778:	8e910004 	lw	s1,4(s4)
  40577c:	081015db 	j	40576c <__sfvwrite+0xd0>
  405780:	26940008 	addiu	s4,s4,8
  405784:	30420001 	andi	v0,v0,0x1
  405788:	1440006f 	bnez	v0,405948 <__sfvwrite+0x2ac>
  40578c:	0000b021 	move	s6,zero
  405790:	56200005 	bnezl	s1,4057a8 <__sfvwrite+0x10c>
  405794:	9602000c 	lhu	v0,12(s0)
  405798:	8e920000 	lw	s2,0(s4)
  40579c:	8e910004 	lw	s1,4(s4)
  4057a0:	081015e4 	j	405790 <__sfvwrite+0xf4>
  4057a4:	26940008 	addiu	s4,s4,8
  4057a8:	8e130008 	lw	s3,8(s0)
  4057ac:	30420200 	andi	v0,v0,0x200
  4057b0:	1040000e 	beqz	v0,4057ec <__sfvwrite+0x150>
  4057b4:	8e040000 	lw	a0,0(s0)
  4057b8:	0233102b 	sltu	v0,s1,s3
  4057bc:	0222980b 	movn	s3,s1,v0
  4057c0:	02603021 	move	a2,s3
  4057c4:	0c10292c 	jal	40a4b0 <memcpy>
  4057c8:	02402821 	move	a1,s2
  4057cc:	8e020008 	lw	v0,8(s0)
  4057d0:	00531023 	subu	v0,v0,s3
  4057d4:	ae020008 	sw	v0,8(s0)
  4057d8:	8e020000 	lw	v0,0(s0)
  4057dc:	00539821 	addu	s3,v0,s3
  4057e0:	ae130000 	sw	s3,0(s0)
  4057e4:	08101622 	j	405888 <__sfvwrite+0x1ec>
  4057e8:	02209821 	move	s3,s1
  4057ec:	8e020010 	lw	v0,16(s0)
  4057f0:	0044102b 	sltu	v0,v0,a0
  4057f4:	50400010 	beqzl	v0,405838 <__sfvwrite+0x19c>
  4057f8:	8e060014 	lw	a2,20(s0)
  4057fc:	0271102b 	sltu	v0,s3,s1
  405800:	5040000d 	beqzl	v0,405838 <__sfvwrite+0x19c>
  405804:	8e060014 	lw	a2,20(s0)
  405808:	02402821 	move	a1,s2
  40580c:	0c10292c 	jal	40a4b0 <memcpy>
  405810:	02603021 	move	a2,s3
  405814:	8e020000 	lw	v0,0(s0)
  405818:	02002021 	move	a0,s0
  40581c:	00531021 	addu	v0,v0,s3
  405820:	0c102566 	jal	409598 <fflush>
  405824:	ae020000 	sw	v0,0(s0)
  405828:	50400018 	beqzl	v0,40588c <__sfvwrite+0x1f0>
  40582c:	8ea20008 	lw	v0,8(s5)
  405830:	08101677 	j	4059dc <__sfvwrite+0x340>
  405834:	9602000c 	lhu	v0,12(s0)
  405838:	0226102b 	sltu	v0,s1,a2
  40583c:	14400009 	bnez	v0,405864 <__sfvwrite+0x1c8>
  405840:	02402821 	move	a1,s2
  405844:	8e02002c 	lw	v0,44(s0)
  405848:	8e04001c 	lw	a0,28(s0)
  40584c:	0040f809 	jalr	v0
  405850:	02402821 	move	a1,s2
  405854:	1c40000c 	bgtz	v0,405888 <__sfvwrite+0x1ec>
  405858:	00409821 	move	s3,v0
  40585c:	08101677 	j	4059dc <__sfvwrite+0x340>
  405860:	9602000c 	lhu	v0,12(s0)
  405864:	0c10292c 	jal	40a4b0 <memcpy>
  405868:	02203021 	move	a2,s1
  40586c:	8e020008 	lw	v0,8(s0)
  405870:	02209821 	move	s3,s1
  405874:	00511023 	subu	v0,v0,s1
  405878:	ae020008 	sw	v0,8(s0)
  40587c:	8e020000 	lw	v0,0(s0)
  405880:	00511021 	addu	v0,v0,s1
  405884:	ae020000 	sw	v0,0(s0)
  405888:	8ea20008 	lw	v0,8(s5)
  40588c:	02539021 	addu	s2,s2,s3
  405890:	02338823 	subu	s1,s1,s3
  405894:	00539823 	subu	s3,v0,s3
  405898:	1660ffbd 	bnez	s3,405790 <__sfvwrite+0xf4>
  40589c:	aeb30008 	sw	s3,8(s5)
  4058a0:	0810167a 	j	4059e8 <__sfvwrite+0x34c>
  4058a4:	00001021 	move	v0,zero
  4058a8:	13c00029 	beqz	s8,405950 <__sfvwrite+0x2b4>
  4058ac:	02402021 	move	a0,s2
  4058b0:	0236b82b 	sltu	s7,s1,s6
  4058b4:	02201021 	move	v0,s1
  4058b8:	02d7100a 	movz	v0,s6,s7
  4058bc:	0040b821 	move	s7,v0
  4058c0:	8e040000 	lw	a0,0(s0)
  4058c4:	8e020010 	lw	v0,16(s0)
  4058c8:	8e130008 	lw	s3,8(s0)
  4058cc:	0044102b 	sltu	v0,v0,a0
  4058d0:	10400028 	beqz	v0,405974 <__sfvwrite+0x2d8>
  4058d4:	8e060014 	lw	a2,20(s0)
  4058d8:	02669821 	addu	s3,s3,a2
  4058dc:	0277102a 	slt	v0,s3,s7
  4058e0:	10400025 	beqz	v0,405978 <__sfvwrite+0x2dc>
  4058e4:	02e6102a 	slt	v0,s7,a2
  4058e8:	02402821 	move	a1,s2
  4058ec:	0c10292c 	jal	40a4b0 <memcpy>
  4058f0:	02603021 	move	a2,s3
  4058f4:	8e020000 	lw	v0,0(s0)
  4058f8:	02002021 	move	a0,s0
  4058fc:	00531021 	addu	v0,v0,s3
  405900:	0c102566 	jal	409598 <fflush>
  405904:	ae020000 	sw	v0,0(s0)
  405908:	54400034 	bnezl	v0,4059dc <__sfvwrite+0x340>
  40590c:	9602000c 	lhu	v0,12(s0)
  405910:	02d3b023 	subu	s6,s6,s3
  405914:	12c0002c 	beqz	s6,4059c8 <__sfvwrite+0x32c>
  405918:	00000000 	nop
  40591c:	8ea20008 	lw	v0,8(s5)
  405920:	02539021 	addu	s2,s2,s3
  405924:	02338823 	subu	s1,s1,s3
  405928:	00539823 	subu	s3,v0,s3
  40592c:	1260ff69 	beqz	s3,4056d4 <__sfvwrite+0x38>
  405930:	aeb30008 	sw	s3,8(s5)
  405934:	1620ffdc 	bnez	s1,4058a8 <__sfvwrite+0x20c>
  405938:	00000000 	nop
  40593c:	8e920000 	lw	s2,0(s4)
  405940:	8e910004 	lw	s1,4(s4)
  405944:	26940008 	addiu	s4,s4,8
  405948:	0810164d 	j	405934 <__sfvwrite+0x298>
  40594c:	0000f021 	move	s8,zero
  405950:	2405000a 	li	a1,10
  405954:	0c1022e9 	jal	408ba4 <memchr>
  405958:	02203021 	move	a2,s1
  40595c:	50400003 	beqzl	v0,40596c <__sfvwrite+0x2d0>
  405960:	26360001 	addiu	s6,s1,1
  405964:	24560001 	addiu	s6,v0,1
  405968:	02d2b023 	subu	s6,s6,s2
  40596c:	0810162c 	j	4058b0 <__sfvwrite+0x214>
  405970:	241e0001 	li	s8,1
  405974:	02e6102a 	slt	v0,s7,a2
  405978:	14400009 	bnez	v0,4059a0 <__sfvwrite+0x304>
  40597c:	02402821 	move	a1,s2
  405980:	8e02002c 	lw	v0,44(s0)
  405984:	8e04001c 	lw	a0,28(s0)
  405988:	0040f809 	jalr	v0
  40598c:	02402821 	move	a1,s2
  405990:	1c40ffdf 	bgtz	v0,405910 <__sfvwrite+0x274>
  405994:	00409821 	move	s3,v0
  405998:	08101677 	j	4059dc <__sfvwrite+0x340>
  40599c:	9602000c 	lhu	v0,12(s0)
  4059a0:	0c10292c 	jal	40a4b0 <memcpy>
  4059a4:	02e03021 	move	a2,s7
  4059a8:	8e020008 	lw	v0,8(s0)
  4059ac:	02e09821 	move	s3,s7
  4059b0:	00571023 	subu	v0,v0,s7
  4059b4:	ae020008 	sw	v0,8(s0)
  4059b8:	8e020000 	lw	v0,0(s0)
  4059bc:	00571021 	addu	v0,v0,s7
  4059c0:	08101644 	j	405910 <__sfvwrite+0x274>
  4059c4:	ae020000 	sw	v0,0(s0)
  4059c8:	0c102566 	jal	409598 <fflush>
  4059cc:	02002021 	move	a0,s0
  4059d0:	1040ffd2 	beqz	v0,40591c <__sfvwrite+0x280>
  4059d4:	0000f021 	move	s8,zero
  4059d8:	9602000c 	lhu	v0,12(s0)
  4059dc:	34420040 	ori	v0,v0,0x40
  4059e0:	a602000c 	sh	v0,12(s0)
  4059e4:	2402ffff 	li	v0,-1
  4059e8:	8fbf0034 	lw	ra,52(sp)
  4059ec:	8fbe0030 	lw	s8,48(sp)
  4059f0:	8fb7002c 	lw	s7,44(sp)
  4059f4:	8fb60028 	lw	s6,40(sp)
  4059f8:	8fb50024 	lw	s5,36(sp)
  4059fc:	8fb40020 	lw	s4,32(sp)
  405a00:	8fb3001c 	lw	s3,28(sp)
  405a04:	8fb20018 	lw	s2,24(sp)
  405a08:	8fb10014 	lw	s1,20(sp)
  405a0c:	8fb00010 	lw	s0,16(sp)
  405a10:	03e00008 	jr	ra
  405a14:	27bd0038 	addiu	sp,sp,56

00405a18 <__moddi3>:
  405a18:	27bdffd8 	addiu	sp,sp,-40
  405a1c:	afbf0024 	sw	ra,36(sp)
  405a20:	04a10007 	bgez	a1,405a40 <__moddi3+0x28>
  405a24:	afb00020 	sw	s0,32(sp)
  405a28:	00042023 	negu	a0,a0
  405a2c:	0004102b 	sltu	v0,zero,a0
  405a30:	00052823 	negu	a1,a1
  405a34:	00a22823 	subu	a1,a1,v0
  405a38:	08101691 	j	405a44 <__moddi3+0x2c>
  405a3c:	24100001 	li	s0,1
  405a40:	00008021 	move	s0,zero
  405a44:	04e10007 	bgez	a3,405a64 <__moddi3+0x4c>
  405a48:	27a20018 	addiu	v0,sp,24
  405a4c:	00063023 	negu	a2,a2
  405a50:	0006102b 	sltu	v0,zero,a2
  405a54:	00073823 	negu	a3,a3
  405a58:	00e23823 	subu	a3,a3,v0
  405a5c:	3a100001 	xori	s0,s0,0x1
  405a60:	27a20018 	addiu	v0,sp,24
  405a64:	0c102651 	jal	409944 <__qdivrem>
  405a68:	afa20010 	sw	v0,16(sp)
  405a6c:	8fa20018 	lw	v0,24(sp)
  405a70:	12000005 	beqz	s0,405a88 <__moddi3+0x70>
  405a74:	8fa3001c 	lw	v1,28(sp)
  405a78:	00021023 	negu	v0,v0
  405a7c:	0002202b 	sltu	a0,zero,v0
  405a80:	00031823 	negu	v1,v1
  405a84:	00641823 	subu	v1,v1,a0
  405a88:	8fbf0024 	lw	ra,36(sp)
  405a8c:	8fb00020 	lw	s0,32(sp)
  405a90:	03e00008 	jr	ra
  405a94:	27bd0028 	addiu	sp,sp,40

00405a98 <Bfree>:
  405a98:	10800008 	beqz	a0,405abc <Bfree+0x24>
  405a9c:	3c020041 	lui	v0,0x41
  405aa0:	8c830004 	lw	v1,4(a0)
  405aa4:	2442f0c8 	addiu	v0,v0,-3896
  405aa8:	00031880 	sll	v1,v1,0x2
  405aac:	00621021 	addu	v0,v1,v0
  405ab0:	8c430000 	lw	v1,0(v0)
  405ab4:	ac440000 	sw	a0,0(v0)
  405ab8:	ac830000 	sw	v1,0(a0)
  405abc:	03e00008 	jr	ra
  405ac0:	00000000 	nop

00405ac4 <hi0bits>:
  405ac4:	3c03ffff 	lui	v1,0xffff
  405ac8:	00831824 	and	v1,a0,v1
  405acc:	14600003 	bnez	v1,405adc <hi0bits+0x18>
  405ad0:	00001021 	move	v0,zero
  405ad4:	00042400 	sll	a0,a0,0x10
  405ad8:	24020010 	li	v0,16
  405adc:	3c03ff00 	lui	v1,0xff00
  405ae0:	00831824 	and	v1,a0,v1
  405ae4:	14600003 	bnez	v1,405af4 <hi0bits+0x30>
  405ae8:	3c03f000 	lui	v1,0xf000
  405aec:	24420008 	addiu	v0,v0,8
  405af0:	00042200 	sll	a0,a0,0x8
  405af4:	00831824 	and	v1,a0,v1
  405af8:	14600003 	bnez	v1,405b08 <hi0bits+0x44>
  405afc:	3c03c000 	lui	v1,0xc000
  405b00:	24420004 	addiu	v0,v0,4
  405b04:	00042100 	sll	a0,a0,0x4
  405b08:	00831824 	and	v1,a0,v1
  405b0c:	14600003 	bnez	v1,405b1c <hi0bits+0x58>
  405b10:	00000000 	nop
  405b14:	24420002 	addiu	v0,v0,2
  405b18:	00042080 	sll	a0,a0,0x2
  405b1c:	04800004 	bltz	a0,405b30 <hi0bits+0x6c>
  405b20:	24430001 	addiu	v1,v0,1
  405b24:	7c840780 	ext	a0,a0,0x1e,0x1
  405b28:	24020020 	li	v0,32
  405b2c:	0064100b 	movn	v0,v1,a0
  405b30:	03e00008 	jr	ra
  405b34:	00000000 	nop

00405b38 <lo0bits>:
  405b38:	8c830000 	lw	v1,0(a0)
  405b3c:	30620007 	andi	v0,v1,0x7
  405b40:	1040000e 	beqz	v0,405b7c <lo0bits+0x44>
  405b44:	3062ffff 	andi	v0,v1,0xffff
  405b48:	30650001 	andi	a1,v1,0x1
  405b4c:	14a00027 	bnez	a1,405bec <lo0bits+0xb4>
  405b50:	00001021 	move	v0,zero
  405b54:	30620002 	andi	v0,v1,0x2
  405b58:	50400005 	beqzl	v0,405b70 <lo0bits+0x38>
  405b5c:	00031882 	srl	v1,v1,0x2
  405b60:	00031842 	srl	v1,v1,0x1
  405b64:	ac830000 	sw	v1,0(a0)
  405b68:	03e00008 	jr	ra
  405b6c:	24020001 	li	v0,1
  405b70:	ac830000 	sw	v1,0(a0)
  405b74:	03e00008 	jr	ra
  405b78:	24020002 	li	v0,2
  405b7c:	14400003 	bnez	v0,405b8c <lo0bits+0x54>
  405b80:	00002821 	move	a1,zero
  405b84:	00031c02 	srl	v1,v1,0x10
  405b88:	24050010 	li	a1,16
  405b8c:	306200ff 	andi	v0,v1,0xff
  405b90:	14400004 	bnez	v0,405ba4 <lo0bits+0x6c>
  405b94:	3062000f 	andi	v0,v1,0xf
  405b98:	24a50008 	addiu	a1,a1,8
  405b9c:	00031a02 	srl	v1,v1,0x8
  405ba0:	3062000f 	andi	v0,v1,0xf
  405ba4:	14400004 	bnez	v0,405bb8 <lo0bits+0x80>
  405ba8:	30620003 	andi	v0,v1,0x3
  405bac:	24a50004 	addiu	a1,a1,4
  405bb0:	00031902 	srl	v1,v1,0x4
  405bb4:	30620003 	andi	v0,v1,0x3
  405bb8:	14400004 	bnez	v0,405bcc <lo0bits+0x94>
  405bbc:	30620001 	andi	v0,v1,0x1
  405bc0:	24a50002 	addiu	a1,a1,2
  405bc4:	00031882 	srl	v1,v1,0x2
  405bc8:	30620001 	andi	v0,v1,0x1
  405bcc:	54400006 	bnezl	v0,405be8 <lo0bits+0xb0>
  405bd0:	ac830000 	sw	v1,0(a0)
  405bd4:	00031842 	srl	v1,v1,0x1
  405bd8:	10600004 	beqz	v1,405bec <lo0bits+0xb4>
  405bdc:	24020020 	li	v0,32
  405be0:	24a50001 	addiu	a1,a1,1
  405be4:	ac830000 	sw	v1,0(a0)
  405be8:	00a01021 	move	v0,a1
  405bec:	03e00008 	jr	ra
  405bf0:	00000000 	nop

00405bf4 <cmp>:
  405bf4:	8c820010 	lw	v0,16(a0)
  405bf8:	8ca30010 	lw	v1,16(a1)
  405bfc:	00431023 	subu	v0,v0,v1
  405c00:	14400013 	bnez	v0,405c50 <cmp+0x5c>
  405c04:	00031880 	sll	v1,v1,0x2
  405c08:	24840014 	addiu	a0,a0,20
  405c0c:	24a50014 	addiu	a1,a1,20
  405c10:	00831021 	addu	v0,a0,v1
  405c14:	00a32821 	addu	a1,a1,v1
  405c18:	2442fffc 	addiu	v0,v0,-4
  405c1c:	24a5fffc 	addiu	a1,a1,-4
  405c20:	8c460000 	lw	a2,0(v0)
  405c24:	8ca30000 	lw	v1,0(a1)
  405c28:	50c30006 	beql	a2,v1,405c44 <cmp+0x50>
  405c2c:	0082182b 	sltu	v1,a0,v0
  405c30:	00c3182b 	sltu	v1,a2,v1
  405c34:	24040001 	li	a0,1
  405c38:	2402ffff 	li	v0,-1
  405c3c:	03e00008 	jr	ra
  405c40:	0083100a 	movz	v0,a0,v1
  405c44:	5460fff5 	bnezl	v1,405c1c <cmp+0x28>
  405c48:	2442fffc 	addiu	v0,v0,-4
  405c4c:	00001021 	move	v0,zero
  405c50:	03e00008 	jr	ra
  405c54:	00000000 	nop

00405c58 <ulp>:
  405c58:	27bdfff8 	addiu	sp,sp,-8
  405c5c:	afa5000c 	sw	a1,12(sp)
  405c60:	8fa2000c 	lw	v0,12(sp)
  405c64:	3c037ff0 	lui	v1,0x7ff0
  405c68:	00621024 	and	v0,v1,v0
  405c6c:	3c03fcc0 	lui	v1,0xfcc0
  405c70:	00431021 	addu	v0,v0,v1
  405c74:	1c400008 	bgtz	v0,405c98 <ulp+0x40>
  405c78:	afa40008 	sw	a0,8(sp)
  405c7c:	00021023 	negu	v0,v0
  405c80:	00021503 	sra	v0,v0,0x14
  405c84:	28430014 	slti	v1,v0,20
  405c88:	50600006 	beqzl	v1,405ca4 <ulp+0x4c>
  405c8c:	28440033 	slti	a0,v0,51
  405c90:	3c030008 	lui	v1,0x8
  405c94:	00431007 	srav	v0,v1,v0
  405c98:	afa20004 	sw	v0,4(sp)
  405c9c:	08101730 	j	405cc0 <ulp+0x68>
  405ca0:	afa00000 	sw	zero,0(sp)
  405ca4:	afa00004 	sw	zero,4(sp)
  405ca8:	10800004 	beqz	a0,405cbc <ulp+0x64>
  405cac:	24030001 	li	v1,1
  405cb0:	24040033 	li	a0,51
  405cb4:	00821023 	subu	v0,a0,v0
  405cb8:	00431804 	sllv	v1,v1,v0
  405cbc:	afa30000 	sw	v1,0(sp)
  405cc0:	8fa20000 	lw	v0,0(sp)
  405cc4:	8fa30004 	lw	v1,4(sp)
  405cc8:	03e00008 	jr	ra
  405ccc:	27bd0008 	addiu	sp,sp,8

00405cd0 <b2d>:
  405cd0:	8c870010 	lw	a3,16(a0)
  405cd4:	24890014 	addiu	t1,a0,20
  405cd8:	27bdffe0 	addiu	sp,sp,-32
  405cdc:	00073880 	sll	a3,a3,0x2
  405ce0:	01273821 	addu	a3,t1,a3
  405ce4:	8ce6fffc 	lw	a2,-4(a3)
  405ce8:	24e8fffc 	addiu	t0,a3,-4
  405cec:	afbf001c 	sw	ra,28(sp)
  405cf0:	0c1016b1 	jal	405ac4 <hi0bits>
  405cf4:	00c02021 	move	a0,a2
  405cf8:	24030020 	li	v1,32
  405cfc:	00621823 	subu	v1,v1,v0
  405d00:	aca30000 	sw	v1,0(a1)
  405d04:	2843000b 	slti	v1,v0,11
  405d08:	1060000f 	beqz	v1,405d48 <b2d+0x78>
  405d0c:	0128202b 	sltu	a0,t1,t0
  405d10:	2403000b 	li	v1,11
  405d14:	00621823 	subu	v1,v1,v0
  405d18:	00664006 	srlv	t0,a2,v1
  405d1c:	3c053ff0 	lui	a1,0x3ff0
  405d20:	01052825 	or	a1,t0,a1
  405d24:	afa50014 	sw	a1,20(sp)
  405d28:	10800002 	beqz	a0,405d34 <b2d+0x64>
  405d2c:	00002821 	move	a1,zero
  405d30:	8ce5fff8 	lw	a1,-8(a3)
  405d34:	24420015 	addiu	v0,v0,21
  405d38:	00651806 	srlv	v1,a1,v1
  405d3c:	00463004 	sllv	a2,a2,v0
  405d40:	0810176c 	j	405db0 <b2d+0xe0>
  405d44:	00661825 	or	v1,v1,a2
  405d48:	10800003 	beqz	a0,405d58 <b2d+0x88>
  405d4c:	00001821 	move	v1,zero
  405d50:	8ce3fff8 	lw	v1,-8(a3)
  405d54:	24e8fff8 	addiu	t0,a3,-8
  405d58:	2444fff5 	addiu	a0,v0,-11
  405d5c:	50800012 	beqzl	a0,405da8 <b2d+0xd8>
  405d60:	3c023ff0 	lui	v0,0x3ff0
  405d64:	2405002b 	li	a1,43
  405d68:	00a21023 	subu	v0,a1,v0
  405d6c:	00863004 	sllv	a2,a2,a0
  405d70:	3c053ff0 	lui	a1,0x3ff0
  405d74:	00c53025 	or	a2,a2,a1
  405d78:	00432806 	srlv	a1,v1,v0
  405d7c:	00c53025 	or	a2,a2,a1
  405d80:	0128482b 	sltu	t1,t1,t0
  405d84:	afa60014 	sw	a2,20(sp)
  405d88:	11200002 	beqz	t1,405d94 <b2d+0xc4>
  405d8c:	00002821 	move	a1,zero
  405d90:	8d05fffc 	lw	a1,-4(t0)
  405d94:	00451006 	srlv	v0,a1,v0
  405d98:	00831804 	sllv	v1,v1,a0
  405d9c:	00431025 	or	v0,v0,v1
  405da0:	0810176d 	j	405db4 <b2d+0xe4>
  405da4:	afa20010 	sw	v0,16(sp)
  405da8:	00c23025 	or	a2,a2,v0
  405dac:	afa60014 	sw	a2,20(sp)
  405db0:	afa30010 	sw	v1,16(sp)
  405db4:	8fbf001c 	lw	ra,28(sp)
  405db8:	8fa20010 	lw	v0,16(sp)
  405dbc:	8fa30014 	lw	v1,20(sp)
  405dc0:	03e00008 	jr	ra
  405dc4:	27bd0020 	addiu	sp,sp,32

00405dc8 <quorem>:
  405dc8:	8ca70010 	lw	a3,16(a1)
  405dcc:	8c830010 	lw	v1,16(a0)
  405dd0:	00805021 	move	t2,a0
  405dd4:	0067182a 	slt	v1,v1,a3
  405dd8:	14600067 	bnez	v1,405f78 <quorem+0x1b0>
  405ddc:	00001021 	move	v0,zero
  405de0:	24e7ffff 	addiu	a3,a3,-1
  405de4:	00071880 	sll	v1,a3,0x2
  405de8:	24a90014 	addiu	t1,a1,20
  405dec:	01236021 	addu	t4,t1,v1
  405df0:	24880014 	addiu	t0,a0,20
  405df4:	01031821 	addu	v1,t0,v1
  405df8:	8d8b0000 	lw	t3,0(t4)
  405dfc:	8c6d0000 	lw	t5,0(v1)
  405e00:	27bdffe8 	addiu	sp,sp,-24
  405e04:	256b0001 	addiu	t3,t3,1
  405e08:	01ab001b 	divu	zero,t5,t3
  405e0c:	016001f4 	teq	t3,zero,0x7
  405e10:	afbf0014 	sw	ra,20(sp)
  405e14:	afb00010 	sw	s0,16(sp)
  405e18:	00005812 	mflo	t3
  405e1c:	1160002b 	beqz	t3,405ecc <quorem+0x104>
  405e20:	00007012 	mflo	t6
  405e24:	01203021 	move	a2,t1
  405e28:	01002021 	move	a0,t0
  405e2c:	0000f821 	move	ra,zero
  405e30:	0000c021 	move	t8,zero
  405e34:	24c60004 	addiu	a2,a2,4
  405e38:	8ccffffc 	lw	t7,-4(a2)
  405e3c:	24840004 	addiu	a0,a0,4
  405e40:	31e2ffff 	andi	v0,t7,0xffff
  405e44:	7162c802 	mul	t9,t3,v0
  405e48:	033f1021 	addu	v0,t9,ra
  405e4c:	000fcc02 	srl	t9,t7,0x10
  405e50:	71797802 	mul	t7,t3,t9
  405e54:	0002fc02 	srl	ra,v0,0x10
  405e58:	3042ffff 	andi	v0,v0,0xffff
  405e5c:	03021023 	subu	v0,t8,v0
  405e60:	01ffc821 	addu	t9,t7,ra
  405e64:	8c8ffffc 	lw	t7,-4(a0)
  405e68:	0019fc02 	srl	ra,t9,0x10
  405e6c:	3339ffff 	andi	t9,t9,0xffff
  405e70:	31f0ffff 	andi	s0,t7,0xffff
  405e74:	00501021 	addu	v0,v0,s0
  405e78:	000f7c02 	srl	t7,t7,0x10
  405e7c:	0002c403 	sra	t8,v0,0x10
  405e80:	01f97823 	subu	t7,t7,t9
  405e84:	01f87821 	addu	t7,t7,t8
  405e88:	a482fffc 	sh	v0,-4(a0)
  405e8c:	0186102b 	sltu	v0,t4,a2
  405e90:	a48ffffe 	sh	t7,-2(a0)
  405e94:	1040ffe7 	beqz	v0,405e34 <quorem+0x6c>
  405e98:	000fc403 	sra	t8,t7,0x10
  405e9c:	15a0000b 	bnez	t5,405ecc <quorem+0x104>
  405ea0:	00000000 	nop
  405ea4:	2463fffc 	addiu	v1,v1,-4
  405ea8:	0103102b 	sltu	v0,t0,v1
  405eac:	54400003 	bnezl	v0,405ebc <quorem+0xf4>
  405eb0:	8c620000 	lw	v0,0(v1)
  405eb4:	081017b3 	j	405ecc <quorem+0x104>
  405eb8:	ad470010 	sw	a3,16(t2)
  405ebc:	54400003 	bnezl	v0,405ecc <quorem+0x104>
  405ec0:	ad470010 	sw	a3,16(t2)
  405ec4:	081017a9 	j	405ea4 <quorem+0xdc>
  405ec8:	24e7ffff 	addiu	a3,a3,-1
  405ecc:	0c1016fd 	jal	405bf4 <cmp>
  405ed0:	01402021 	move	a0,t2
  405ed4:	04400024 	bltz	v0,405f68 <quorem+0x1a0>
  405ed8:	01001821 	move	v1,t0
  405edc:	256e0001 	addiu	t6,t3,1
  405ee0:	00002821 	move	a1,zero
  405ee4:	25290004 	addiu	t1,t1,4
  405ee8:	8d26fffc 	lw	a2,-4(t1)
  405eec:	8c640000 	lw	a0,0(v1)
  405ef0:	24630004 	addiu	v1,v1,4
  405ef4:	30c2ffff 	andi	v0,a2,0xffff
  405ef8:	00a21023 	subu	v0,a1,v0
  405efc:	308bffff 	andi	t3,a0,0xffff
  405f00:	004b1021 	addu	v0,v0,t3
  405f04:	00042402 	srl	a0,a0,0x10
  405f08:	00063402 	srl	a2,a2,0x10
  405f0c:	00022c03 	sra	a1,v0,0x10
  405f10:	00862023 	subu	a0,a0,a2
  405f14:	00852021 	addu	a0,a0,a1
  405f18:	a462fffc 	sh	v0,-4(v1)
  405f1c:	0189102b 	sltu	v0,t4,t1
  405f20:	a464fffe 	sh	a0,-2(v1)
  405f24:	1040ffef 	beqz	v0,405ee4 <quorem+0x11c>
  405f28:	00042c03 	sra	a1,a0,0x10
  405f2c:	00071880 	sll	v1,a3,0x2
  405f30:	01031821 	addu	v1,t0,v1
  405f34:	8c620000 	lw	v0,0(v1)
  405f38:	1440000c 	bnez	v0,405f6c <quorem+0x1a4>
  405f3c:	8fbf0014 	lw	ra,20(sp)
  405f40:	2463fffc 	addiu	v1,v1,-4
  405f44:	0103102b 	sltu	v0,t0,v1
  405f48:	54400003 	bnezl	v0,405f58 <quorem+0x190>
  405f4c:	8c620000 	lw	v0,0(v1)
  405f50:	081017da 	j	405f68 <quorem+0x1a0>
  405f54:	ad470010 	sw	a3,16(t2)
  405f58:	54400003 	bnezl	v0,405f68 <quorem+0x1a0>
  405f5c:	ad470010 	sw	a3,16(t2)
  405f60:	081017d0 	j	405f40 <quorem+0x178>
  405f64:	24e7ffff 	addiu	a3,a3,-1
  405f68:	8fbf0014 	lw	ra,20(sp)
  405f6c:	8fb00010 	lw	s0,16(sp)
  405f70:	27bd0018 	addiu	sp,sp,24
  405f74:	01c01021 	move	v0,t6
  405f78:	03e00008 	jr	ra
  405f7c:	00000000 	nop

00405f80 <Balloc>:
  405f80:	3c030041 	lui	v1,0x41
  405f84:	00041080 	sll	v0,a0,0x2
  405f88:	2463f0c8 	addiu	v1,v1,-3896
  405f8c:	00431821 	addu	v1,v0,v1
  405f90:	8c620000 	lw	v0,0(v1)
  405f94:	27bdffe0 	addiu	sp,sp,-32
  405f98:	afb00014 	sw	s0,20(sp)
  405f9c:	afbf001c 	sw	ra,28(sp)
  405fa0:	afb10018 	sw	s1,24(sp)
  405fa4:	10400004 	beqz	v0,405fb8 <Balloc+0x38>
  405fa8:	00808021 	move	s0,a0
  405fac:	8c440000 	lw	a0,0(v0)
  405fb0:	081017f5 	j	405fd4 <Balloc+0x54>
  405fb4:	ac640000 	sw	a0,0(v1)
  405fb8:	24110001 	li	s1,1
  405fbc:	00918804 	sllv	s1,s1,a0
  405fc0:	26240005 	addiu	a0,s1,5
  405fc4:	0c102781 	jal	409e04 <malloc>
  405fc8:	00042080 	sll	a0,a0,0x2
  405fcc:	ac500004 	sw	s0,4(v0)
  405fd0:	ac510008 	sw	s1,8(v0)
  405fd4:	8fbf001c 	lw	ra,28(sp)
  405fd8:	8fb10018 	lw	s1,24(sp)
  405fdc:	8fb00014 	lw	s0,20(sp)
  405fe0:	ac400010 	sw	zero,16(v0)
  405fe4:	ac40000c 	sw	zero,12(v0)
  405fe8:	03e00008 	jr	ra
  405fec:	27bd0020 	addiu	sp,sp,32

00405ff0 <multadd>:
  405ff0:	27bdffd8 	addiu	sp,sp,-40
  405ff4:	afb10018 	sw	s1,24(sp)
  405ff8:	8c910010 	lw	s1,16(a0)
  405ffc:	afb2001c 	sw	s2,28(sp)
  406000:	afb00014 	sw	s0,20(sp)
  406004:	afbf0024 	sw	ra,36(sp)
  406008:	afb30020 	sw	s3,32(sp)
  40600c:	00808021 	move	s0,a0
  406010:	00c09021 	move	s2,a2
  406014:	24820014 	addiu	v0,a0,20
  406018:	00001821 	move	v1,zero
  40601c:	8c470000 	lw	a3,0(v0)
  406020:	24630001 	addiu	v1,v1,1
  406024:	24420004 	addiu	v0,v0,4
  406028:	30e4ffff 	andi	a0,a3,0xffff
  40602c:	70853002 	mul	a2,a0,a1
  406030:	00d22021 	addu	a0,a2,s2
  406034:	00073402 	srl	a2,a3,0x10
  406038:	70c53802 	mul	a3,a2,a1
  40603c:	00044402 	srl	t0,a0,0x10
  406040:	3084ffff 	andi	a0,a0,0xffff
  406044:	00e83021 	addu	a2,a3,t0
  406048:	00069402 	srl	s2,a2,0x10
  40604c:	00063400 	sll	a2,a2,0x10
  406050:	00c42021 	addu	a0,a2,a0
  406054:	ac44fffc 	sw	a0,-4(v0)
  406058:	0071202a 	slt	a0,v1,s1
  40605c:	5480fff0 	bnezl	a0,406020 <multadd+0x30>
  406060:	8c470000 	lw	a3,0(v0)
  406064:	12400019 	beqz	s2,4060cc <multadd+0xdc>
  406068:	8fbf0024 	lw	ra,36(sp)
  40606c:	8e020008 	lw	v0,8(s0)
  406070:	0222102a 	slt	v0,s1,v0
  406074:	1440000f 	bnez	v0,4060b4 <multadd+0xc4>
  406078:	26220004 	addiu	v0,s1,4
  40607c:	8e040004 	lw	a0,4(s0)
  406080:	0c1017e0 	jal	405f80 <Balloc>
  406084:	24840001 	addiu	a0,a0,1
  406088:	8e060010 	lw	a2,16(s0)
  40608c:	2605000c 	addiu	a1,s0,12
  406090:	2444000c 	addiu	a0,v0,12
  406094:	24c60002 	addiu	a2,a2,2
  406098:	00063080 	sll	a2,a2,0x2
  40609c:	0c10292c 	jal	40a4b0 <memcpy>
  4060a0:	00409821 	move	s3,v0
  4060a4:	0c1016a6 	jal	405a98 <Bfree>
  4060a8:	02002021 	move	a0,s0
  4060ac:	02608021 	move	s0,s3
  4060b0:	26220004 	addiu	v0,s1,4
  4060b4:	00021080 	sll	v0,v0,0x2
  4060b8:	02021021 	addu	v0,s0,v0
  4060bc:	26310001 	addiu	s1,s1,1
  4060c0:	ac520004 	sw	s2,4(v0)
  4060c4:	ae110010 	sw	s1,16(s0)
  4060c8:	8fbf0024 	lw	ra,36(sp)
  4060cc:	02001021 	move	v0,s0
  4060d0:	8fb30020 	lw	s3,32(sp)
  4060d4:	8fb2001c 	lw	s2,28(sp)
  4060d8:	8fb10018 	lw	s1,24(sp)
  4060dc:	8fb00014 	lw	s0,20(sp)
  4060e0:	03e00008 	jr	ra
  4060e4:	27bd0028 	addiu	sp,sp,40

004060e8 <d2b>:
  4060e8:	27bdffd8 	addiu	sp,sp,-40
  4060ec:	afa40028 	sw	a0,40(sp)
  4060f0:	24040001 	li	a0,1
  4060f4:	afb10020 	sw	s1,32(sp)
  4060f8:	afb0001c 	sw	s0,28(sp)
  4060fc:	afbf0024 	sw	ra,36(sp)
  406100:	afa5002c 	sw	a1,44(sp)
  406104:	00c08821 	move	s1,a2
  406108:	0c1017e0 	jal	405f80 <Balloc>
  40610c:	00e08021 	move	s0,a3
  406110:	8fa9002c 	lw	t1,44(sp)
  406114:	00404021 	move	t0,v0
  406118:	7d229800 	ext	v0,t1,0x0,0x14
  40611c:	7d29f000 	ext	t1,t1,0x0,0x1f
  406120:	afa9002c 	sw	t1,44(sp)
  406124:	00094d02 	srl	t1,t1,0x14
  406128:	11200004 	beqz	t1,40613c <d2b+0x54>
  40612c:	afa20010 	sw	v0,16(sp)
  406130:	3c030010 	lui	v1,0x10
  406134:	00431025 	or	v0,v0,v1
  406138:	afa20010 	sw	v0,16(sp)
  40613c:	8fa20028 	lw	v0,40(sp)
  406140:	10400015 	beqz	v0,406198 <d2b+0xb0>
  406144:	afa20014 	sw	v0,20(sp)
  406148:	0c1016ce 	jal	405b38 <lo0bits>
  40614c:	27a40014 	addiu	a0,sp,20
  406150:	10400009 	beqz	v0,406178 <d2b+0x90>
  406154:	8fa30014 	lw	v1,20(sp)
  406158:	8fa40010 	lw	a0,16(sp)
  40615c:	00022823 	negu	a1,v0
  406160:	00a42804 	sllv	a1,a0,a1
  406164:	00a31825 	or	v1,a1,v1
  406168:	00442006 	srlv	a0,a0,v0
  40616c:	ad030014 	sw	v1,20(t0)
  406170:	0810185f 	j	40617c <d2b+0x94>
  406174:	afa40010 	sw	a0,16(sp)
  406178:	ad030014 	sw	v1,20(t0)
  40617c:	8fa30010 	lw	v1,16(sp)
  406180:	24050002 	li	a1,2
  406184:	24040001 	li	a0,1
  406188:	0083280a 	movz	a1,a0,v1
  40618c:	ad030018 	sw	v1,24(t0)
  406190:	0810186e 	j	4061b8 <d2b+0xd0>
  406194:	ad050010 	sw	a1,16(t0)
  406198:	0c1016ce 	jal	405b38 <lo0bits>
  40619c:	27a40010 	addiu	a0,sp,16
  4061a0:	8fa30010 	lw	v1,16(sp)
  4061a4:	24420020 	addiu	v0,v0,32
  4061a8:	24050001 	li	a1,1
  4061ac:	ad030014 	sw	v1,20(t0)
  4061b0:	24030001 	li	v1,1
  4061b4:	ad030010 	sw	v1,16(t0)
  4061b8:	51200007 	beqzl	t1,4061d8 <d2b+0xf0>
  4061bc:	2442fbce 	addiu	v0,v0,-1074
  4061c0:	2529fbcd 	addiu	t1,t1,-1075
  4061c4:	01224821 	addu	t1,t1,v0
  4061c8:	24030035 	li	v1,53
  4061cc:	ae290000 	sw	t1,0(s1)
  4061d0:	0810187d 	j	4061f4 <d2b+0x10c>
  4061d4:	00621023 	subu	v0,v1,v0
  4061d8:	ae220000 	sw	v0,0(s1)
  4061dc:	00051080 	sll	v0,a1,0x2
  4061e0:	01021021 	addu	v0,t0,v0
  4061e4:	0c1016b1 	jal	405ac4 <hi0bits>
  4061e8:	8c440010 	lw	a0,16(v0)
  4061ec:	00052940 	sll	a1,a1,0x5
  4061f0:	00a21023 	subu	v0,a1,v0
  4061f4:	8fbf0024 	lw	ra,36(sp)
  4061f8:	ae020000 	sw	v0,0(s0)
  4061fc:	8fb10020 	lw	s1,32(sp)
  406200:	8fb0001c 	lw	s0,28(sp)
  406204:	01001021 	move	v0,t0
  406208:	03e00008 	jr	ra
  40620c:	27bd0028 	addiu	sp,sp,40

00406210 <mult>:
  406210:	8c830010 	lw	v1,16(a0)
  406214:	8ca20010 	lw	v0,16(a1)
  406218:	27bdffd8 	addiu	sp,sp,-40
  40621c:	afb20018 	sw	s2,24(sp)
  406220:	0062102a 	slt	v0,v1,v0
  406224:	afb00010 	sw	s0,16(sp)
  406228:	afbf0024 	sw	ra,36(sp)
  40622c:	afb40020 	sw	s4,32(sp)
  406230:	afb3001c 	sw	s3,28(sp)
  406234:	afb10014 	sw	s1,20(sp)
  406238:	00808021 	move	s0,a0
  40623c:	10400003 	beqz	v0,40624c <mult+0x3c>
  406240:	00a09021 	move	s2,a1
  406244:	00a08021 	move	s0,a1
  406248:	00809021 	move	s2,a0
  40624c:	8e140010 	lw	s4,16(s0)
  406250:	8e530010 	lw	s3,16(s2)
  406254:	8e020008 	lw	v0,8(s0)
  406258:	8e040004 	lw	a0,4(s0)
  40625c:	02938821 	addu	s1,s4,s3
  406260:	0051102a 	slt	v0,v0,s1
  406264:	0c1017e0 	jal	405f80 <Balloc>
  406268:	00822021 	addu	a0,a0,v0
  40626c:	24430014 	addiu	v1,v0,20
  406270:	00113080 	sll	a2,s1,0x2
  406274:	00663021 	addu	a2,v1,a2
  406278:	00602021 	move	a0,v1
  40627c:	0086282b 	sltu	a1,a0,a2
  406280:	50a00004 	beqzl	a1,406294 <mult+0x84>
  406284:	26100014 	addiu	s0,s0,20
  406288:	ac800000 	sw	zero,0(a0)
  40628c:	0810189f 	j	40627c <mult+0x6c>
  406290:	24840004 	addiu	a0,a0,4
  406294:	0014a080 	sll	s4,s4,0x2
  406298:	26450014 	addiu	a1,s2,20
  40629c:	00139880 	sll	s3,s3,0x2
  4062a0:	0214a021 	addu	s4,s0,s4
  4062a4:	00b39821 	addu	s3,a1,s3
  4062a8:	00b3202b 	sltu	a0,a1,s3
  4062ac:	1080003e 	beqz	a0,4063a8 <mult+0x198>
  4062b0:	00000000 	nop
  4062b4:	94a90000 	lhu	t1,0(a1)
  4062b8:	5120001a 	beqzl	t1,406324 <mult+0x114>
  4062bc:	94a90002 	lhu	t1,2(a1)
  4062c0:	00602021 	move	a0,v1
  4062c4:	02003821 	move	a3,s0
  4062c8:	00004021 	move	t0,zero
  4062cc:	8ceb0000 	lw	t3,0(a3)
  4062d0:	8c8c0000 	lw	t4,0(a0)
  4062d4:	24e70004 	addiu	a3,a3,4
  4062d8:	316dffff 	andi	t5,t3,0xffff
  4062dc:	71a97002 	mul	t6,t5,t1
  4062e0:	318affff 	andi	t2,t4,0xffff
  4062e4:	000b5c02 	srl	t3,t3,0x10
  4062e8:	000c6402 	srl	t4,t4,0x10
  4062ec:	24840004 	addiu	a0,a0,4
  4062f0:	01ca5021 	addu	t2,t6,t2
  4062f4:	01485021 	addu	t2,t2,t0
  4062f8:	71694002 	mul	t0,t3,t1
  4062fc:	a48afffc 	sh	t2,-4(a0)
  406300:	010c5821 	addu	t3,t0,t4
  406304:	000a4402 	srl	t0,t2,0x10
  406308:	01685821 	addu	t3,t3,t0
  40630c:	00f4502b 	sltu	t2,a3,s4
  406310:	a48bfffe 	sh	t3,-2(a0)
  406314:	1540ffed 	bnez	t2,4062cc <mult+0xbc>
  406318:	000b4402 	srl	t0,t3,0x10
  40631c:	ac880000 	sw	t0,0(a0)
  406320:	94a90002 	lhu	t1,2(a1)
  406324:	5120001a 	beqzl	t1,406390 <mult+0x180>
  406328:	24a50004 	addiu	a1,a1,4
  40632c:	8c670000 	lw	a3,0(v1)
  406330:	00602021 	move	a0,v1
  406334:	02004021 	move	t0,s0
  406338:	00005021 	move	t2,zero
  40633c:	8d0b0000 	lw	t3,0(t0)
  406340:	a4870000 	sh	a3,0(a0)
  406344:	948c0002 	lhu	t4,2(a0)
  406348:	316dffff 	andi	t5,t3,0xffff
  40634c:	71a97002 	mul	t6,t5,t1
  406350:	000b3c02 	srl	a3,t3,0x10
  406354:	24840004 	addiu	a0,a0,4
  406358:	25080004 	addiu	t0,t0,4
  40635c:	70e95802 	mul	t3,a3,t1
  406360:	01cc6021 	addu	t4,t6,t4
  406364:	018a5021 	addu	t2,t4,t2
  406368:	a48afffe 	sh	t2,-2(a0)
  40636c:	948c0000 	lhu	t4,0(a0)
  406370:	000a5402 	srl	t2,t2,0x10
  406374:	016c3821 	addu	a3,t3,t4
  406378:	00ea3821 	addu	a3,a3,t2
  40637c:	0114582b 	sltu	t3,t0,s4
  406380:	1560ffee 	bnez	t3,40633c <mult+0x12c>
  406384:	00075402 	srl	t2,a3,0x10
  406388:	ac870000 	sw	a3,0(a0)
  40638c:	24a50004 	addiu	a1,a1,4
  406390:	081018aa 	j	4062a8 <mult+0x98>
  406394:	24630004 	addiu	v1,v1,4
  406398:	8cc30000 	lw	v1,0(a2)
  40639c:	14600005 	bnez	v1,4063b4 <mult+0x1a4>
  4063a0:	8fbf0024 	lw	ra,36(sp)
  4063a4:	2631ffff 	addiu	s1,s1,-1
  4063a8:	5e20fffb 	bgtzl	s1,406398 <mult+0x188>
  4063ac:	24c6fffc 	addiu	a2,a2,-4
  4063b0:	8fbf0024 	lw	ra,36(sp)
  4063b4:	ac510010 	sw	s1,16(v0)
  4063b8:	8fb40020 	lw	s4,32(sp)
  4063bc:	8fb3001c 	lw	s3,28(sp)
  4063c0:	8fb20018 	lw	s2,24(sp)
  4063c4:	8fb10014 	lw	s1,20(sp)
  4063c8:	8fb00010 	lw	s0,16(sp)
  4063cc:	03e00008 	jr	ra
  4063d0:	27bd0028 	addiu	sp,sp,40

004063d4 <diff>:
  4063d4:	27bdffe0 	addiu	sp,sp,-32
  4063d8:	afb10014 	sw	s1,20(sp)
  4063dc:	afb00010 	sw	s0,16(sp)
  4063e0:	afbf001c 	sw	ra,28(sp)
  4063e4:	afb20018 	sw	s2,24(sp)
  4063e8:	00808021 	move	s0,a0
  4063ec:	0c1016fd 	jal	405bf4 <cmp>
  4063f0:	00a08821 	move	s1,a1
  4063f4:	14400007 	bnez	v0,406414 <diff+0x40>
  4063f8:	00000000 	nop
  4063fc:	0c1017e0 	jal	405f80 <Balloc>
  406400:	00002021 	move	a0,zero
  406404:	24030001 	li	v1,1
  406408:	ac430010 	sw	v1,16(v0)
  40640c:	08101940 	j	406500 <diff+0x12c>
  406410:	ac400014 	sw	zero,20(v0)
  406414:	04410005 	bgez	v0,40642c <diff+0x58>
  406418:	00009021 	move	s2,zero
  40641c:	02001021 	move	v0,s0
  406420:	24120001 	li	s2,1
  406424:	02208021 	move	s0,s1
  406428:	00408821 	move	s1,v0
  40642c:	0c1017e0 	jal	405f80 <Balloc>
  406430:	8e040004 	lw	a0,4(s0)
  406434:	8e050010 	lw	a1,16(s0)
  406438:	8e2c0010 	lw	t4,16(s1)
  40643c:	26040014 	addiu	a0,s0,20
  406440:	00055880 	sll	t3,a1,0x2
  406444:	26260014 	addiu	a2,s1,20
  406448:	000c6080 	sll	t4,t4,0x2
  40644c:	ac52000c 	sw	s2,12(v0)
  406450:	008b5821 	addu	t3,a0,t3
  406454:	00cc6021 	addu	t4,a2,t4
  406458:	24430014 	addiu	v1,v0,20
  40645c:	00003821 	move	a3,zero
  406460:	8c890000 	lw	t1,0(a0)
  406464:	8cca0000 	lw	t2,0(a2)
  406468:	24c60004 	addiu	a2,a2,4
  40646c:	3128ffff 	andi	t0,t1,0xffff
  406470:	01073821 	addu	a3,t0,a3
  406474:	314dffff 	andi	t5,t2,0xffff
  406478:	00ed4023 	subu	t0,a3,t5
  40647c:	00094c02 	srl	t1,t1,0x10
  406480:	000a5402 	srl	t2,t2,0x10
  406484:	00083c03 	sra	a3,t0,0x10
  406488:	012a4823 	subu	t1,t1,t2
  40648c:	01274821 	addu	t1,t1,a3
  406490:	a4680000 	sh	t0,0(v1)
  406494:	00cc402b 	sltu	t0,a2,t4
  406498:	a4690002 	sh	t1,2(v1)
  40649c:	24840004 	addiu	a0,a0,4
  4064a0:	00093c03 	sra	a3,t1,0x10
  4064a4:	1500ffee 	bnez	t0,406460 <diff+0x8c>
  4064a8:	24630004 	addiu	v1,v1,4
  4064ac:	008b302b 	sltu	a2,a0,t3
  4064b0:	50c0000e 	beqzl	a2,4064ec <diff+0x118>
  4064b4:	2463fffc 	addiu	v1,v1,-4
  4064b8:	8c890000 	lw	t1,0(a0)
  4064bc:	24630004 	addiu	v1,v1,4
  4064c0:	24840004 	addiu	a0,a0,4
  4064c4:	3126ffff 	andi	a2,t1,0xffff
  4064c8:	00c73021 	addu	a2,a2,a3
  4064cc:	00064403 	sra	t0,a2,0x10
  4064d0:	00094c02 	srl	t1,t1,0x10
  4064d4:	01094021 	addu	t0,t0,t1
  4064d8:	a468fffe 	sh	t0,-2(v1)
  4064dc:	a466fffc 	sh	a2,-4(v1)
  4064e0:	0810192b 	j	4064ac <diff+0xd8>
  4064e4:	00083c03 	sra	a3,t0,0x10
  4064e8:	2463fffc 	addiu	v1,v1,-4
  4064ec:	8c640000 	lw	a0,0(v1)
  4064f0:	54800003 	bnezl	a0,406500 <diff+0x12c>
  4064f4:	ac450010 	sw	a1,16(v0)
  4064f8:	0810193a 	j	4064e8 <diff+0x114>
  4064fc:	24a5ffff 	addiu	a1,a1,-1
  406500:	8fbf001c 	lw	ra,28(sp)
  406504:	8fb20018 	lw	s2,24(sp)
  406508:	8fb10014 	lw	s1,20(sp)
  40650c:	8fb00010 	lw	s0,16(sp)
  406510:	03e00008 	jr	ra
  406514:	27bd0020 	addiu	sp,sp,32

00406518 <lshift>:
  406518:	27bdffd0 	addiu	sp,sp,-48
  40651c:	afb00018 	sw	s0,24(sp)
  406520:	00808021 	move	s0,a0
  406524:	afb30024 	sw	s3,36(sp)
  406528:	8e130010 	lw	s3,16(s0)
  40652c:	afb20020 	sw	s2,32(sp)
  406530:	8c840004 	lw	a0,4(a0)
  406534:	00059143 	sra	s2,a1,0x5
  406538:	8e020008 	lw	v0,8(s0)
  40653c:	02539821 	addu	s3,s2,s3
  406540:	afb40028 	sw	s4,40(sp)
  406544:	afb1001c 	sw	s1,28(sp)
  406548:	afbf002c 	sw	ra,44(sp)
  40654c:	00a0a021 	move	s4,a1
  406550:	26710001 	addiu	s1,s3,1
  406554:	0051182a 	slt	v1,v0,s1
  406558:	10600003 	beqz	v1,406568 <lshift+0x50>
  40655c:	00021040 	sll	v0,v0,0x1
  406560:	08101955 	j	406554 <lshift+0x3c>
  406564:	24840001 	addiu	a0,a0,1
  406568:	0c1017e0 	jal	405f80 <Balloc>
  40656c:	00000000 	nop
  406570:	24450014 	addiu	a1,v0,20
  406574:	00001821 	move	v1,zero
  406578:	0072202a 	slt	a0,v1,s2
  40657c:	10800005 	beqz	a0,406594 <lshift+0x7c>
  406580:	00032080 	sll	a0,v1,0x2
  406584:	00a42021 	addu	a0,a1,a0
  406588:	ac800000 	sw	zero,0(a0)
  40658c:	0810195e 	j	406578 <lshift+0x60>
  406590:	24630001 	addiu	v1,v1,1
  406594:	2a440000 	slti	a0,s2,0
  406598:	8e070010 	lw	a3,16(s0)
  40659c:	0004900b 	movn	s2,zero,a0
  4065a0:	00122080 	sll	a0,s2,0x2
  4065a4:	00a42021 	addu	a0,a1,a0
  4065a8:	26030014 	addiu	v1,s0,20
  4065ac:	00073880 	sll	a3,a3,0x2
  4065b0:	3285001f 	andi	a1,s4,0x1f
  4065b4:	10a00014 	beqz	a1,406608 <lshift+0xf0>
  4065b8:	00673821 	addu	a3,v1,a3
  4065bc:	24090020 	li	t1,32
  4065c0:	01254823 	subu	t1,t1,a1
  4065c4:	00003021 	move	a2,zero
  4065c8:	8c6a0000 	lw	t2,0(v1)
  4065cc:	24630004 	addiu	v1,v1,4
  4065d0:	24880004 	addiu	t0,a0,4
  4065d4:	00aa5004 	sllv	t2,t2,a1
  4065d8:	00ca3025 	or	a2,a2,t2
  4065dc:	ac860000 	sw	a2,0(a0)
  4065e0:	8c66fffc 	lw	a2,-4(v1)
  4065e4:	0067502b 	sltu	t2,v1,a3
  4065e8:	11400003 	beqz	t2,4065f8 <lshift+0xe0>
  4065ec:	01263006 	srlv	a2,a2,t1
  4065f0:	08101972 	j	4065c8 <lshift+0xb0>
  4065f4:	01002021 	move	a0,t0
  4065f8:	26730002 	addiu	s3,s3,2
  4065fc:	ac860004 	sw	a2,4(a0)
  406600:	08101989 	j	406624 <lshift+0x10c>
  406604:	0266880b 	movn	s1,s3,a2
  406608:	24630004 	addiu	v1,v1,4
  40660c:	8c65fffc 	lw	a1,-4(v1)
  406610:	24840004 	addiu	a0,a0,4
  406614:	ac85fffc 	sw	a1,-4(a0)
  406618:	0067282b 	sltu	a1,v1,a3
  40661c:	14a0fffb 	bnez	a1,40660c <lshift+0xf4>
  406620:	24630004 	addiu	v1,v1,4
  406624:	2631ffff 	addiu	s1,s1,-1
  406628:	ac510010 	sw	s1,16(v0)
  40662c:	02002021 	move	a0,s0
  406630:	0c1016a6 	jal	405a98 <Bfree>
  406634:	afa20010 	sw	v0,16(sp)
  406638:	8fbf002c 	lw	ra,44(sp)
  40663c:	8fa20010 	lw	v0,16(sp)
  406640:	8fb40028 	lw	s4,40(sp)
  406644:	8fb30024 	lw	s3,36(sp)
  406648:	8fb20020 	lw	s2,32(sp)
  40664c:	8fb1001c 	lw	s1,28(sp)
  406650:	8fb00018 	lw	s0,24(sp)
  406654:	03e00008 	jr	ra
  406658:	27bd0030 	addiu	sp,sp,48

0040665c <pow5mult>:
  40665c:	27bdffe0 	addiu	sp,sp,-32
  406660:	30a20003 	andi	v0,a1,0x3
  406664:	afb20018 	sw	s2,24(sp)
  406668:	afb10014 	sw	s1,20(sp)
  40666c:	afbf001c 	sw	ra,28(sp)
  406670:	afb00010 	sw	s0,16(sp)
  406674:	00808821 	move	s1,a0
  406678:	1040000a 	beqz	v0,4066a4 <pow5mult+0x48>
  40667c:	00a09021 	move	s2,a1
  406680:	2442ffff 	addiu	v0,v0,-1
  406684:	3c030041 	lui	v1,0x41
  406688:	2463d258 	addiu	v1,v1,-11688
  40668c:	00021080 	sll	v0,v0,0x2
  406690:	00431021 	addu	v0,v0,v1
  406694:	8c450000 	lw	a1,0(v0)
  406698:	0c1017fc 	jal	405ff0 <multadd>
  40669c:	00003021 	move	a2,zero
  4066a0:	00408821 	move	s1,v0
  4066a4:	00129083 	sra	s2,s2,0x2
  4066a8:	12400024 	beqz	s2,40673c <pow5mult+0xe0>
  4066ac:	8f908e50 	lw	s0,-29104(gp)
  4066b0:	16000013 	bnez	s0,406700 <pow5mult+0xa4>
  4066b4:	32420001 	andi	v0,s2,0x1
  4066b8:	0c1017e0 	jal	405f80 <Balloc>
  4066bc:	24040001 	li	a0,1
  4066c0:	00408021 	move	s0,v0
  4066c4:	24020271 	li	v0,625
  4066c8:	ae020014 	sw	v0,20(s0)
  4066cc:	24020001 	li	v0,1
  4066d0:	ae020010 	sw	v0,16(s0)
  4066d4:	af908e50 	sw	s0,-29104(gp)
  4066d8:	081019bf 	j	4066fc <pow5mult+0xa0>
  4066dc:	ae000000 	sw	zero,0(s0)
  4066e0:	00129043 	sra	s2,s2,0x1
  4066e4:	12400016 	beqz	s2,406740 <pow5mult+0xe4>
  4066e8:	8fbf001c 	lw	ra,28(sp)
  4066ec:	8e020000 	lw	v0,0(s0)
  4066f0:	1040000d 	beqz	v0,406728 <pow5mult+0xcc>
  4066f4:	02002021 	move	a0,s0
  4066f8:	00408021 	move	s0,v0
  4066fc:	32420001 	andi	v0,s2,0x1
  406700:	5040fff8 	beqzl	v0,4066e4 <pow5mult+0x88>
  406704:	00129043 	sra	s2,s2,0x1
  406708:	02202021 	move	a0,s1
  40670c:	0c101884 	jal	406210 <mult>
  406710:	02002821 	move	a1,s0
  406714:	02202021 	move	a0,s1
  406718:	0c1016a6 	jal	405a98 <Bfree>
  40671c:	00402821 	move	a1,v0
  406720:	081019b8 	j	4066e0 <pow5mult+0x84>
  406724:	00a08821 	move	s1,a1
  406728:	0c101884 	jal	406210 <mult>
  40672c:	02002821 	move	a1,s0
  406730:	ae020000 	sw	v0,0(s0)
  406734:	081019be 	j	4066f8 <pow5mult+0x9c>
  406738:	ac400000 	sw	zero,0(v0)
  40673c:	8fbf001c 	lw	ra,28(sp)
  406740:	02201021 	move	v0,s1
  406744:	8fb20018 	lw	s2,24(sp)
  406748:	8fb10014 	lw	s1,20(sp)
  40674c:	8fb00010 	lw	s0,16(sp)
  406750:	03e00008 	jr	ra
  406754:	27bd0020 	addiu	sp,sp,32

00406758 <strtod>:
  406758:	27bdff60 	addiu	sp,sp,-160
  40675c:	2403002b 	li	v1,43
  406760:	afb5008c 	sw	s5,140(sp)
  406764:	afb40088 	sw	s4,136(sp)
  406768:	afa500a4 	sw	a1,164(sp)
  40676c:	0080a021 	move	s4,a0
  406770:	0080a821 	move	s5,a0
  406774:	afbf009c 	sw	ra,156(sp)
  406778:	afbe0098 	sw	s8,152(sp)
  40677c:	afb70094 	sw	s7,148(sp)
  406780:	afb60090 	sw	s6,144(sp)
  406784:	afb30084 	sw	s3,132(sp)
  406788:	afb20080 	sw	s2,128(sp)
  40678c:	afb1007c 	sw	s1,124(sp)
  406790:	afb00078 	sw	s0,120(sp)
  406794:	afa00028 	sw	zero,40(sp)
  406798:	afa0002c 	sw	zero,44(sp)
  40679c:	2404002d 	li	a0,45
  4067a0:	24050020 	li	a1,32
  4067a4:	92a20000 	lbu	v0,0(s5)
  4067a8:	2c46000e 	sltiu	a2,v0,14
  4067ac:	10c00007 	beqz	a2,4067cc <strtod+0x74>
  4067b0:	2c460009 	sltiu	a2,v0,9
  4067b4:	50c0fffb 	beqzl	a2,4067a4 <strtod+0x4c>
  4067b8:	26b50001 	addiu	s5,s5,1
  4067bc:	104003d3 	beqz	v0,40770c <strtod+0xfb4>
  4067c0:	afa00050 	sw	zero,80(sp)
  4067c4:	08101a02 	j	406808 <strtod+0xb0>
  4067c8:	92a30000 	lbu	v1,0(s5)
  4067cc:	50430008 	beql	v0,v1,4067f0 <strtod+0x98>
  4067d0:	afa00050 	sw	zero,80(sp)
  4067d4:	10440005 	beq	v0,a0,4067ec <strtod+0x94>
  4067d8:	240a0001 	li	t2,1
  4067dc:	54450009 	bnel	v0,a1,406804 <strtod+0xac>
  4067e0:	afa00050 	sw	zero,80(sp)
  4067e4:	081019e9 	j	4067a4 <strtod+0x4c>
  4067e8:	26b50001 	addiu	s5,s5,1
  4067ec:	afaa0050 	sw	t2,80(sp)
  4067f0:	92a20001 	lbu	v0,1(s5)
  4067f4:	14400003 	bnez	v0,406804 <strtod+0xac>
  4067f8:	26b50001 	addiu	s5,s5,1
  4067fc:	08101dc4 	j	407710 <strtod+0xfb8>
  406800:	8faa00a4 	lw	t2,164(sp)
  406804:	92a30000 	lbu	v1,0(s5)
  406808:	24020030 	li	v0,48
  40680c:	14620009 	bne	v1,v0,406834 <strtod+0xdc>
  406810:	00004021 	move	t0,zero
  406814:	24030030 	li	v1,48
  406818:	26b50001 	addiu	s5,s5,1
  40681c:	92a20000 	lbu	v0,0(s5)
  406820:	5043fffe 	beql	v0,v1,40681c <strtod+0xc4>
  406824:	26b50001 	addiu	s5,s5,1
  406828:	504003b8 	beqzl	v0,40770c <strtod+0xfb4>
  40682c:	02a0a021 	move	s4,s5
  406830:	24080001 	li	t0,1
  406834:	02a01021 	move	v0,s5
  406838:	0000b821 	move	s7,zero
  40683c:	0000f021 	move	s8,zero
  406840:	00009821 	move	s3,zero
  406844:	2404000a 	li	a0,10
  406848:	90430000 	lbu	v1,0(v0)
  40684c:	28650030 	slti	a1,v1,48
  406850:	14a00011 	bnez	a1,406898 <strtod+0x140>
  406854:	2865003a 	slti	a1,v1,58
  406858:	10a00053 	beqz	a1,4069a8 <strtod+0x250>
  40685c:	2a650009 	slti	a1,s3,9
  406860:	10a00005 	beqz	a1,406878 <strtod+0x120>
  406864:	2a650010 	slti	a1,s3,16
  406868:	73c42802 	mul	a1,s8,a0
  40686c:	00a3f021 	addu	s8,a1,v1
  406870:	08101a23 	j	40688c <strtod+0x134>
  406874:	27deffd0 	addiu	s8,s8,-48
  406878:	50a00005 	beqzl	a1,406890 <strtod+0x138>
  40687c:	26730001 	addiu	s3,s3,1
  406880:	72e42802 	mul	a1,s7,a0
  406884:	00a3b821 	addu	s7,a1,v1
  406888:	26f7ffd0 	addiu	s7,s7,-48
  40688c:	26730001 	addiu	s3,s3,1
  406890:	08101a12 	j	406848 <strtod+0xf0>
  406894:	24420001 	addiu	v0,v0,1
  406898:	2405002e 	li	a1,46
  40689c:	00402021 	move	a0,v0
  4068a0:	14650041 	bne	v1,a1,4069a8 <strtod+0x250>
  4068a4:	02609021 	move	s2,s3
  4068a8:	24420001 	addiu	v0,v0,1
  4068ac:	16600036 	bnez	s3,406988 <strtod+0x230>
  4068b0:	90830001 	lbu	v1,1(a0)
  4068b4:	00002821 	move	a1,zero
  4068b8:	24040030 	li	a0,48
  4068bc:	54640005 	bnel	v1,a0,4068d4 <strtod+0x17c>
  4068c0:	2464ffcf 	addiu	a0,v1,-49
  4068c4:	24420001 	addiu	v0,v0,1
  4068c8:	24a50001 	addiu	a1,a1,1
  4068cc:	08101a2f 	j	4068bc <strtod+0x164>
  4068d0:	90430000 	lbu	v1,0(v0)
  4068d4:	2c840009 	sltiu	a0,a0,9
  4068d8:	50800036 	beqzl	a0,4069b4 <strtod+0x25c>
  4068dc:	00009821 	move	s3,zero
  4068e0:	0040a821 	move	s5,v0
  4068e4:	00003021 	move	a2,zero
  4068e8:	2463ffd0 	addiu	v1,v1,-48
  4068ec:	10600022 	beqz	v1,406978 <strtod+0x220>
  4068f0:	24c40001 	addiu	a0,a2,1
  4068f4:	00a42821 	addu	a1,a1,a0
  4068f8:	26470001 	addiu	a3,s2,1
  4068fc:	2409000a 	li	t1,10
  406900:	00f25023 	subu	t2,a3,s2
  406904:	0144502a 	slt	t2,t2,a0
  406908:	1140000a 	beqz	t2,406934 <strtod+0x1dc>
  40690c:	24eaffff 	addiu	t2,a3,-1
  406910:	294a0009 	slti	t2,t2,9
  406914:	11400003 	beqz	t2,406924 <strtod+0x1cc>
  406918:	72e95002 	mul	t2,s7,t1
  40691c:	08101a4b 	j	40692c <strtod+0x1d4>
  406920:	73c9f002 	mul	s8,s8,t1
  406924:	28eb0011 	slti	t3,a3,17
  406928:	014bb80b 	movn	s7,t2,t3
  40692c:	08101a40 	j	406900 <strtod+0x1a8>
  406930:	24e70001 	addiu	a3,a3,1
  406934:	28c40000 	slti	a0,a2,0
  406938:	0004300b 	movn	a2,zero,a0
  40693c:	02463021 	addu	a2,s2,a2
  406940:	24d20001 	addiu	s2,a2,1
  406944:	28c60009 	slti	a2,a2,9
  406948:	50c00006 	beqzl	a2,406964 <strtod+0x20c>
  40694c:	2a460011 	slti	a2,s2,17
  406950:	2404000a 	li	a0,10
  406954:	73c43002 	mul	a2,s8,a0
  406958:	00002021 	move	a0,zero
  40695c:	08101a5e 	j	406978 <strtod+0x220>
  406960:	00c3f021 	addu	s8,a2,v1
  406964:	10c00004 	beqz	a2,406978 <strtod+0x220>
  406968:	00002021 	move	a0,zero
  40696c:	2406000a 	li	a2,10
  406970:	72e63802 	mul	a3,s7,a2
  406974:	00e3b821 	addu	s7,a3,v1
  406978:	90430001 	lbu	v1,1(v0)
  40697c:	00803021 	move	a2,a0
  406980:	08101a64 	j	406990 <strtod+0x238>
  406984:	24420001 	addiu	v0,v0,1
  406988:	00003021 	move	a2,zero
  40698c:	00002821 	move	a1,zero
  406990:	2464ffd0 	addiu	a0,v1,-48
  406994:	2c84000a 	sltiu	a0,a0,10
  406998:	5480ffd4 	bnezl	a0,4068ec <strtod+0x194>
  40699c:	2463ffd0 	addiu	v1,v1,-48
  4069a0:	08101a70 	j	4069c0 <strtod+0x268>
  4069a4:	306300df 	andi	v1,v1,0xdf
  4069a8:	02609021 	move	s2,s3
  4069ac:	08101a6e 	j	4069b8 <strtod+0x260>
  4069b0:	00003021 	move	a2,zero
  4069b4:	00a03021 	move	a2,a1
  4069b8:	00002821 	move	a1,zero
  4069bc:	306300df 	andi	v1,v1,0xdf
  4069c0:	24040045 	li	a0,69
  4069c4:	14640033 	bne	v1,a0,406a94 <strtod+0x33c>
  4069c8:	00401821 	move	v1,v0
  4069cc:	02461825 	or	v1,s2,a2
  4069d0:	00681825 	or	v1,v1,t0
  4069d4:	1060034e 	beqz	v1,407710 <strtod+0xfb8>
  4069d8:	8faa00a4 	lw	t2,164(sp)
  4069dc:	90430001 	lbu	v1,1(v0)
  4069e0:	2404002b 	li	a0,43
  4069e4:	10640007 	beq	v1,a0,406a04 <strtod+0x2ac>
  4069e8:	00002021 	move	a0,zero
  4069ec:	2404002d 	li	a0,45
  4069f0:	50640004 	beql	v1,a0,406a04 <strtod+0x2ac>
  4069f4:	24040001 	li	a0,1
  4069f8:	24540001 	addiu	s4,v0,1
  4069fc:	08101a83 	j	406a0c <strtod+0x2b4>
  406a00:	00002021 	move	a0,zero
  406a04:	90430002 	lbu	v1,2(v0)
  406a08:	24540002 	addiu	s4,v0,2
  406a0c:	2467ffd0 	addiu	a3,v1,-48
  406a10:	2ce7000a 	sltiu	a3,a3,10
  406a14:	50e00021 	beqzl	a3,406a9c <strtod+0x344>
  406a18:	0040a021 	move	s4,v0
  406a1c:	24070030 	li	a3,48
  406a20:	54670004 	bnel	v1,a3,406a34 <strtod+0x2dc>
  406a24:	2467ffcf 	addiu	a3,v1,-49
  406a28:	26940001 	addiu	s4,s4,1
  406a2c:	08101a88 	j	406a20 <strtod+0x2c8>
  406a30:	92830000 	lbu	v1,0(s4)
  406a34:	2ce70009 	sltiu	a3,a3,9
  406a38:	02804821 	move	t1,s4
  406a3c:	10e00018 	beqz	a3,406aa0 <strtod+0x348>
  406a40:	0000b021 	move	s6,zero
  406a44:	2463ffd0 	addiu	v1,v1,-48
  406a48:	240b000a 	li	t3,10
  406a4c:	26940001 	addiu	s4,s4,1
  406a50:	92870000 	lbu	a3,0(s4)
  406a54:	24eaffd0 	addiu	t2,a3,-48
  406a58:	2d4a000a 	sltiu	t2,t2,10
  406a5c:	11400004 	beqz	t2,406a70 <strtod+0x318>
  406a60:	706b5002 	mul	t2,v1,t3
  406a64:	01471821 	addu	v1,t2,a3
  406a68:	08101a93 	j	406a4c <strtod+0x2f4>
  406a6c:	2463ffd0 	addiu	v1,v1,-48
  406a70:	02893823 	subu	a3,s4,t1
  406a74:	28e70009 	slti	a3,a3,9
  406a78:	10e00003 	beqz	a3,406a88 <strtod+0x330>
  406a7c:	24164e1f 	li	s6,19999
  406a80:	28674e20 	slti	a3,v1,20000
  406a84:	0067b00b 	movn	s6,v1,a3
  406a88:	00161823 	negu	v1,s6
  406a8c:	08101aa8 	j	406aa0 <strtod+0x348>
  406a90:	0064b00b 	movn	s6,v1,a0
  406a94:	02801021 	move	v0,s4
  406a98:	0060a021 	move	s4,v1
  406a9c:	0000b021 	move	s6,zero
  406aa0:	56400004 	bnezl	s2,406ab4 <strtod+0x35c>
  406aa4:	2a420011 	slti	v0,s2,17
  406aa8:	00c83025 	or	a2,a2,t0
  406aac:	08101dc3 	j	40770c <strtod+0xfb4>
  406ab0:	0046a00a 	movz	s4,v0,a2
  406ab4:	24100010 	li	s0,16
  406ab8:	0242800b 	movn	s0,s2,v0
  406abc:	03c02021 	move	a0,s8
  406ac0:	0c103181 	jal	40c604 <__floatunsidf>
  406ac4:	02c5b023 	subu	s6,s6,a1
  406ac8:	2a04000a 	slti	a0,s0,10
  406acc:	0253980a 	movz	s3,s2,s3
  406ad0:	afa20028 	sw	v0,40(sp)
  406ad4:	14800018 	bnez	a0,406b38 <strtod+0x3e0>
  406ad8:	afa3002c 	sw	v1,44(sp)
  406adc:	2606fff7 	addiu	a2,s0,-9
  406ae0:	3c040041 	lui	a0,0x41
  406ae4:	2484d2b8 	addiu	a0,a0,-11592
  406ae8:	000630c0 	sll	a2,a2,0x3
  406aec:	00c43021 	addu	a2,a2,a0
  406af0:	8cc70004 	lw	a3,4(a2)
  406af4:	8cc60000 	lw	a2,0(a2)
  406af8:	00602821 	move	a1,v1
  406afc:	0c102e1c 	jal	40b870 <__muldf3>
  406b00:	00402021 	move	a0,v0
  406b04:	02e02021 	move	a0,s7
  406b08:	afa20064 	sw	v0,100(sp)
  406b0c:	0c103181 	jal	40c604 <__floatunsidf>
  406b10:	afa30068 	sw	v1,104(sp)
  406b14:	8fa60064 	lw	a2,100(sp)
  406b18:	8fa70068 	lw	a3,104(sp)
  406b1c:	00c02021 	move	a0,a2
  406b20:	00e02821 	move	a1,a3
  406b24:	00403021 	move	a2,v0
  406b28:	0c1029cc 	jal	40a730 <__adddf3>
  406b2c:	00603821 	move	a3,v1
  406b30:	afa20028 	sw	v0,40(sp)
  406b34:	afa3002c 	sw	v1,44(sp)
  406b38:	2a420010 	slti	v0,s2,16
  406b3c:	50400039 	beqzl	v0,406c24 <strtod+0x4cc>
  406b40:	02508023 	subu	s0,s2,s0
  406b44:	12c002f2 	beqz	s6,407710 <strtod+0xfb8>
  406b48:	8faa00a4 	lw	t2,164(sp)
  406b4c:	1ac00027 	blez	s6,406bec <strtod+0x494>
  406b50:	2ac20017 	slti	v0,s6,23
  406b54:	1040000a 	beqz	v0,406b80 <strtod+0x428>
  406b58:	24020025 	li	v0,37
