
rcorder:     file format elf32-tradlittlemips


Disassembly of section .text:

00400000 <main>:
  400000:	27bdffc8 	addiu	sp,sp,-56
  400004:	afb40024 	sw	s4,36(sp)
  400008:	afb30020 	sw	s3,32(sp)
  40000c:	3c140041 	lui	s4,0x41
  400010:	3c130041 	lui	s3,0x41
  400014:	afb2001c 	sw	s2,28(sp)
  400018:	afb10018 	sw	s1,24(sp)
  40001c:	afb00014 	sw	s0,20(sp)
  400020:	afbf0034 	sw	ra,52(sp)
  400024:	afb70030 	sw	s7,48(sp)
  400028:	afb6002c 	sw	s6,44(sp)
  40002c:	afb50028 	sw	s5,40(sp)
  400030:	00808821 	move	s1,a0
  400034:	00a08021 	move	s0,a1
  400038:	2673abb4 	addiu	s3,s3,-21580
  40003c:	2412ffff 	li	s2,-1
  400040:	2694ab8c 	addiu	s4,s4,-21620
  400044:	2415006b 	li	s5,107
  400048:	24160073 	li	s6,115
  40004c:	24170064 	li	s7,100
  400050:	02202021 	move	a0,s1
  400054:	02002821 	move	a1,s0
  400058:	0c10046a 	jal	4011a8 <getopt>
  40005c:	02603021 	move	a2,s3
  400060:	50520010 	beql	v0,s2,4000a4 <main+0xa4>
  400064:	8f82801c 	lw	v0,-32740(gp)
  400068:	10550009 	beq	v0,s5,400090 <main+0x90>
  40006c:	27848ec0 	addiu	a0,gp,-28992
  400070:	10560007 	beq	v0,s6,400090 <main+0x90>
  400074:	27848ec4 	addiu	a0,gp,-28988
  400078:	1457fff6 	bne	v0,s7,400054 <main+0x54>
  40007c:	02202021 	move	a0,s1
  400080:	0c10060d 	jal	401834 <warnx>
  400084:	02802021 	move	a0,s4
  400088:	08100012 	j	400048 <main+0x48>
  40008c:	2415006b 	li	s5,107
  400090:	8f858edc 	lw	a1,-28964(gp)
  400094:	0c1001a2 	jal	400688 <strnode_add>
  400098:	00003021 	move	a2,zero
  40009c:	08100012 	j	400048 <main+0x48>
  4000a0:	2415006b 	li	s5,107
  4000a4:	02228823 	subu	s1,s1,v0
  4000a8:	00021080 	sll	v0,v0,0x2
  4000ac:	02028021 	addu	s0,s0,v0
  4000b0:	af918ed4 	sw	s1,-28972(gp)
  4000b4:	0c10019a 	jal	400668 <initialize>
  4000b8:	af908ed0 	sw	s0,-28976(gp)
  4000bc:	0c1003a0 	jal	400e80 <crunch_all_files>
  4000c0:	00000000 	nop
  4000c4:	0c10045e 	jal	401178 <generate_ordering>
  4000c8:	00000000 	nop
  4000cc:	0c101c27 	jal	40709c <exit>
  4000d0:	8f848ebc 	lw	a0,-28996(gp)

004000d4 <__start>:
  4000d4:	3c1c0041 	lui	gp,0x41
  4000d8:	279c4160 	addiu	gp,gp,16736
  4000dc:	8fb00000 	lw	s0,0(sp)
  4000e0:	27b10004 	addiu	s1,sp,4
  4000e4:	26320004 	addiu	s2,s1,4
  4000e8:	00101080 	sll	v0,s0,0x2
  4000ec:	02429021 	addu	s2,s2,v0
  4000f0:	af928eb8 	sw	s2,-29000(gp)
  4000f4:	27bdffe8 	addiu	sp,sp,-24
  4000f8:	afa00014 	sw	zero,20(sp)
  4000fc:	8e240000 	lw	a0,0(s1)
  400100:	00000000 	nop
  400104:	10800007 	beqz	a0,400124 <__start+0x50>
  400108:	00809821 	move	s3,a0
  40010c:	0c100618 	jal	401860 <strrchr>
  400110:	2405002f 	li	a1,47
  400114:	14400002 	bnez	v0,400120 <__start+0x4c>
  400118:	24420001 	addiu	v0,v0,1
  40011c:	02601021 	move	v0,s3
  400120:	af828010 	sw	v0,-32752(gp)
  400124:	02002021 	move	a0,s0
  400128:	02202821 	move	a1,s1
  40012c:	0c100000 	jal	400000 <main>
  400130:	02403021 	move	a2,s2
  400134:	0c101c27 	jal	40709c <exit>
  400138:	00402021 	move	a0,v0
  40013c:	0000000d 	break

00400140 <moncontrol>:
  400140:	03e00008 	jr	ra
  400144:	00000000 	nop

00400148 <_mcount>:
  400148:	27bd0008 	addiu	sp,sp,8
  40014c:	03e00008 	jr	ra
  400150:	0020f821 	move	ra,at

00400154 <enomem>:
  400154:	3c050041 	lui	a1,0x41
  400158:	24040002 	li	a0,2
  40015c:	081005bc 	j	4016f0 <errx>
  400160:	24a5aa10 	addiu	a1,a1,-22000

00400164 <emalloc>:
  400164:	27bdffe0 	addiu	sp,sp,-32
  400168:	afbf001c 	sw	ra,28(sp)
  40016c:	0c102069 	jal	4081a4 <malloc>
  400170:	00000000 	nop
  400174:	14400005 	bnez	v0,40018c <emalloc+0x28>
  400178:	8fbf001c 	lw	ra,28(sp)
  40017c:	0c100055 	jal	400154 <enomem>
  400180:	afa20010 	sw	v0,16(sp)
  400184:	8fa20010 	lw	v0,16(sp)
  400188:	8fbf001c 	lw	ra,28(sp)
  40018c:	03e00008 	jr	ra
  400190:	27bd0020 	addiu	sp,sp,32

00400194 <estrdup>:
  400194:	27bdffe0 	addiu	sp,sp,-32
  400198:	afbf001c 	sw	ra,28(sp)
  40019c:	0c100634 	jal	4018d0 <strdup>
  4001a0:	00000000 	nop
  4001a4:	14400005 	bnez	v0,4001bc <estrdup+0x28>
  4001a8:	8fbf001c 	lw	ra,28(sp)
  4001ac:	0c100055 	jal	400154 <enomem>
  4001b0:	afa20010 	sw	v0,16(sp)
  4001b4:	8fa20010 	lw	v0,16(sp)
  4001b8:	8fbf001c 	lw	ra,28(sp)
  4001bc:	03e00008 	jr	ra
  4001c0:	27bd0020 	addiu	sp,sp,32

004001c4 <erealloc>:
  4001c4:	27bdffe0 	addiu	sp,sp,-32
  4001c8:	afbf001c 	sw	ra,28(sp)
  4001cc:	0c1020e7 	jal	40839c <realloc>
  4001d0:	00000000 	nop
  4001d4:	14400005 	bnez	v0,4001ec <erealloc+0x28>
  4001d8:	8fbf001c 	lw	ra,28(sp)
  4001dc:	0c100055 	jal	400154 <enomem>
  4001e0:	afa20010 	sw	v0,16(sp)
  4001e4:	8fa20010 	lw	v0,16(sp)
  4001e8:	8fbf001c 	lw	ra,28(sp)
  4001ec:	03e00008 	jr	ra
  4001f0:	27bd0020 	addiu	sp,sp,32

004001f4 <ecalloc>:
  4001f4:	27bdffe0 	addiu	sp,sp,-32
  4001f8:	afbf001c 	sw	ra,28(sp)
  4001fc:	0c1007ec 	jal	401fb0 <calloc>
  400200:	00000000 	nop
  400204:	14400005 	bnez	v0,40021c <ecalloc+0x28>
  400208:	8fbf001c 	lw	ra,28(sp)
  40020c:	0c100055 	jal	400154 <enomem>
  400210:	afa20010 	sw	v0,16(sp)
  400214:	8fa20010 	lw	v0,16(sp)
  400218:	8fbf001c 	lw	ra,28(sp)
  40021c:	03e00008 	jr	ra
  400220:	27bd0020 	addiu	sp,sp,32

00400224 <Hash_InitTable>:
  400224:	27bdffe0 	addiu	sp,sp,-32
  400228:	afb10018 	sw	s1,24(sp)
  40022c:	afbf001c 	sw	ra,28(sp)
  400230:	afb00014 	sw	s0,20(sp)
  400234:	18a00007 	blez	a1,400254 <Hash_InitTable+0x30>
  400238:	00808821 	move	s1,a0
  40023c:	24100002 	li	s0,2
  400240:	0205102a 	slt	v0,s0,a1
  400244:	10400005 	beqz	v0,40025c <Hash_InitTable+0x38>
  400248:	2602ffff 	addiu	v0,s0,-1
  40024c:	08100090 	j	400240 <Hash_InitTable+0x1c>
  400250:	00108040 	sll	s0,s0,0x1
  400254:	24100010 	li	s0,16
  400258:	2602ffff 	addiu	v0,s0,-1
  40025c:	ae200008 	sw	zero,8(s1)
  400260:	ae300004 	sw	s0,4(s1)
  400264:	ae22000c 	sw	v0,12(s1)
  400268:	0c100059 	jal	400164 <emalloc>
  40026c:	00102080 	sll	a0,s0,0x2
  400270:	ae220000 	sw	v0,0(s1)
  400274:	2610ffff 	addiu	s0,s0,-1
  400278:	06000003 	bltz	s0,400288 <Hash_InitTable+0x64>
  40027c:	24420004 	addiu	v0,v0,4
  400280:	0810009d 	j	400274 <Hash_InitTable+0x50>
  400284:	ac40fffc 	sw	zero,-4(v0)
  400288:	8fbf001c 	lw	ra,28(sp)
  40028c:	8fb10018 	lw	s1,24(sp)
  400290:	8fb00014 	lw	s0,20(sp)
  400294:	03e00008 	jr	ra
  400298:	27bd0020 	addiu	sp,sp,32

0040029c <Hash_DeleteTable>:
  40029c:	27bdffd8 	addiu	sp,sp,-40
  4002a0:	afb2001c 	sw	s2,28(sp)
  4002a4:	afb10018 	sw	s1,24(sp)
  4002a8:	8c920000 	lw	s2,0(a0)
  4002ac:	8c910004 	lw	s1,4(a0)
  4002b0:	afb00014 	sw	s0,20(sp)
  4002b4:	afbf0024 	sw	ra,36(sp)
  4002b8:	afb30020 	sw	s3,32(sp)
  4002bc:	00808021 	move	s0,a0
  4002c0:	2631ffff 	addiu	s1,s1,-1
  4002c4:	06200008 	bltz	s1,4002e8 <Hash_DeleteTable+0x4c>
  4002c8:	26520004 	addiu	s2,s2,4
  4002cc:	8e44fffc 	lw	a0,-4(s2)
  4002d0:	5080fffc 	beqzl	a0,4002c4 <Hash_DeleteTable+0x28>
  4002d4:	2631ffff 	addiu	s1,s1,-1
  4002d8:	0c1020d8 	jal	408360 <free>
  4002dc:	8c930000 	lw	s3,0(a0)
  4002e0:	081000b4 	j	4002d0 <Hash_DeleteTable+0x34>
  4002e4:	02602021 	move	a0,s3
  4002e8:	0c1020d8 	jal	408360 <free>
  4002ec:	8e040000 	lw	a0,0(s0)
  4002f0:	8fbf0024 	lw	ra,36(sp)
  4002f4:	8fb30020 	lw	s3,32(sp)
  4002f8:	8fb2001c 	lw	s2,28(sp)
  4002fc:	8fb10018 	lw	s1,24(sp)
  400300:	ae000000 	sw	zero,0(s0)
  400304:	8fb00014 	lw	s0,20(sp)
  400308:	03e00008 	jr	ra
  40030c:	27bd0028 	addiu	sp,sp,40

00400310 <Hash_FindEntry>:
  400310:	27bdffe0 	addiu	sp,sp,-32
  400314:	00a01021 	move	v0,a1
  400318:	afb20018 	sw	s2,24(sp)
  40031c:	afb10014 	sw	s1,20(sp)
  400320:	afbf001c 	sw	ra,28(sp)
  400324:	afb00010 	sw	s0,16(sp)
  400328:	00a09021 	move	s2,a1
  40032c:	00008821 	move	s1,zero
  400330:	90430000 	lbu	v1,0(v0)
  400334:	10600005 	beqz	v1,40034c <Hash_FindEntry+0x3c>
  400338:	00112940 	sll	a1,s1,0x5
  40033c:	00b18823 	subu	s1,a1,s1
  400340:	24420001 	addiu	v0,v0,1
  400344:	081000cc 	j	400330 <Hash_FindEntry+0x20>
  400348:	02238821 	addu	s1,s1,v1
  40034c:	8c82000c 	lw	v0,12(a0)
  400350:	8c830000 	lw	v1,0(a0)
  400354:	02221024 	and	v0,s1,v0
  400358:	00021080 	sll	v0,v0,0x2
  40035c:	00621021 	addu	v0,v1,v0
  400360:	8c500000 	lw	s0,0(v0)
  400364:	1200000b 	beqz	s0,400394 <Hash_FindEntry+0x84>
  400368:	00001021 	move	v0,zero
  40036c:	8e020008 	lw	v0,8(s0)
  400370:	5451fffc 	bnel	v0,s1,400364 <Hash_FindEntry+0x54>
  400374:	8e100000 	lw	s0,0(s0)
  400378:	2604000c 	addiu	a0,s0,12
  40037c:	0c101f03 	jal	407c0c <strcmp>
  400380:	02402821 	move	a1,s2
  400384:	10400003 	beqz	v0,400394 <Hash_FindEntry+0x84>
  400388:	02001021 	move	v0,s0
  40038c:	081000d9 	j	400364 <Hash_FindEntry+0x54>
  400390:	8e100000 	lw	s0,0(s0)
  400394:	8fbf001c 	lw	ra,28(sp)
  400398:	8fb20018 	lw	s2,24(sp)
  40039c:	8fb10014 	lw	s1,20(sp)
  4003a0:	8fb00010 	lw	s0,16(sp)
  4003a4:	03e00008 	jr	ra
  4003a8:	27bd0020 	addiu	sp,sp,32

004003ac <Hash_CreateEntry>:
  4003ac:	27bdffc8 	addiu	sp,sp,-56
  4003b0:	afb60028 	sw	s6,40(sp)
  4003b4:	afb50024 	sw	s5,36(sp)
  4003b8:	afb40020 	sw	s4,32(sp)
  4003bc:	afb20018 	sw	s2,24(sp)
  4003c0:	afb00010 	sw	s0,16(sp)
  4003c4:	afbf0034 	sw	ra,52(sp)
  4003c8:	afbe0030 	sw	s8,48(sp)
  4003cc:	afb7002c 	sw	s7,44(sp)
  4003d0:	afb3001c 	sw	s3,28(sp)
  4003d4:	afb10014 	sw	s1,20(sp)
  4003d8:	00808021 	move	s0,a0
  4003dc:	00a0a821 	move	s5,a1
  4003e0:	00c0a021 	move	s4,a2
  4003e4:	00a0b021 	move	s6,a1
  4003e8:	00009021 	move	s2,zero
  4003ec:	92c20000 	lbu	v0,0(s6)
  4003f0:	10400005 	beqz	v0,400408 <Hash_CreateEntry+0x5c>
  4003f4:	00121940 	sll	v1,s2,0x5
  4003f8:	00729023 	subu	s2,v1,s2
  4003fc:	26d60001 	addiu	s6,s6,1
  400400:	081000fb 	j	4003ec <Hash_CreateEntry+0x40>
  400404:	02429021 	addu	s2,s2,v0
  400408:	8e02000c 	lw	v0,12(s0)
  40040c:	8e170000 	lw	s7,0(s0)
  400410:	02d5b023 	subu	s6,s6,s5
  400414:	02421024 	and	v0,s2,v0
  400418:	00021080 	sll	v0,v0,0x2
  40041c:	02e21021 	addu	v0,s7,v0
  400420:	8c510000 	lw	s1,0(v0)
  400424:	5220000d 	beqzl	s1,40045c <Hash_CreateEntry+0xb0>
  400428:	8e110004 	lw	s1,4(s0)
  40042c:	8e220008 	lw	v0,8(s1)
  400430:	5452fffc 	bnel	v0,s2,400424 <Hash_CreateEntry+0x78>
  400434:	8e310000 	lw	s1,0(s1)
  400438:	2624000c 	addiu	a0,s1,12
  40043c:	0c101f03 	jal	407c0c <strcmp>
  400440:	02a02821 	move	a1,s5
  400444:	5440fff7 	bnezl	v0,400424 <Hash_CreateEntry+0x78>
  400448:	8e310000 	lw	s1,0(s1)
  40044c:	5680003c 	bnezl	s4,400540 <Hash_CreateEntry+0x194>
  400450:	ae800000 	sw	zero,0(s4)
  400454:	08100151 	j	400544 <Hash_CreateEntry+0x198>
  400458:	8fbf0034 	lw	ra,52(sp)
  40045c:	8e020008 	lw	v0,8(s0)
  400460:	001120c0 	sll	a0,s1,0x3
  400464:	0044102a 	slt	v0,v0,a0
  400468:	1440001f 	bnez	v0,4004e8 <Hash_CreateEntry+0x13c>
  40046c:	00119840 	sll	s3,s1,0x1
  400470:	267effff 	addiu	s8,s3,-1
  400474:	ae130004 	sw	s3,4(s0)
  400478:	0c100059 	jal	400164 <emalloc>
  40047c:	ae1e000c 	sw	s8,12(s0)
  400480:	ae020000 	sw	v0,0(s0)
  400484:	2673ffff 	addiu	s3,s3,-1
  400488:	06600003 	bltz	s3,400498 <Hash_CreateEntry+0xec>
  40048c:	24420004 	addiu	v0,v0,4
  400490:	08100121 	j	400484 <Hash_CreateEntry+0xd8>
  400494:	ac40fffc 	sw	zero,-4(v0)
  400498:	02e01821 	move	v1,s7
  40049c:	2631ffff 	addiu	s1,s1,-1
  4004a0:	0620000f 	bltz	s1,4004e0 <Hash_CreateEntry+0x134>
  4004a4:	24630004 	addiu	v1,v1,4
  4004a8:	8c62fffc 	lw	v0,-4(v1)
  4004ac:	5040fffc 	beqzl	v0,4004a0 <Hash_CreateEntry+0xf4>
  4004b0:	2631ffff 	addiu	s1,s1,-1
  4004b4:	8c440008 	lw	a0,8(v0)
  4004b8:	8e060000 	lw	a2,0(s0)
  4004bc:	8c450000 	lw	a1,0(v0)
  4004c0:	03c42024 	and	a0,s8,a0
  4004c4:	00042080 	sll	a0,a0,0x2
  4004c8:	00c42021 	addu	a0,a2,a0
  4004cc:	8c860000 	lw	a2,0(a0)
  4004d0:	ac460000 	sw	a2,0(v0)
  4004d4:	ac820000 	sw	v0,0(a0)
  4004d8:	0810012b 	j	4004ac <Hash_CreateEntry+0x100>
  4004dc:	00a01021 	move	v0,a1
  4004e0:	0c1020d8 	jal	408360 <free>
  4004e4:	02e02021 	move	a0,s7
  4004e8:	0c100059 	jal	400164 <emalloc>
  4004ec:	26c40010 	addiu	a0,s6,16
  4004f0:	00408821 	move	s1,v0
  4004f4:	8e02000c 	lw	v0,12(s0)
  4004f8:	8e030000 	lw	v1,0(s0)
  4004fc:	2624000c 	addiu	a0,s1,12
  400500:	02421024 	and	v0,s2,v0
  400504:	00021080 	sll	v0,v0,0x2
  400508:	00621021 	addu	v0,v1,v0
  40050c:	8c430000 	lw	v1,0(v0)
  400510:	02a02821 	move	a1,s5
  400514:	ae230000 	sw	v1,0(s1)
  400518:	ac510000 	sw	s1,0(v0)
  40051c:	ae200004 	sw	zero,4(s1)
  400520:	0c1006c2 	jal	401b08 <strcpy>
  400524:	ae320008 	sw	s2,8(s1)
  400528:	8e020008 	lw	v0,8(s0)
  40052c:	24420001 	addiu	v0,v0,1
  400530:	12800003 	beqz	s4,400540 <Hash_CreateEntry+0x194>
  400534:	ae020008 	sw	v0,8(s0)
  400538:	24020001 	li	v0,1
  40053c:	ae820000 	sw	v0,0(s4)
  400540:	8fbf0034 	lw	ra,52(sp)
  400544:	02201021 	move	v0,s1
  400548:	8fbe0030 	lw	s8,48(sp)
  40054c:	8fb7002c 	lw	s7,44(sp)
  400550:	8fb60028 	lw	s6,40(sp)
  400554:	8fb50024 	lw	s5,36(sp)
  400558:	8fb40020 	lw	s4,32(sp)
  40055c:	8fb3001c 	lw	s3,28(sp)
  400560:	8fb20018 	lw	s2,24(sp)
  400564:	8fb10014 	lw	s1,20(sp)
  400568:	8fb00010 	lw	s0,16(sp)
  40056c:	03e00008 	jr	ra
  400570:	27bd0038 	addiu	sp,sp,56

00400574 <Hash_DeleteEntry>:
  400574:	10a00021 	beqz	a1,4005fc <Hash_DeleteEntry+0x88>
  400578:	00000000 	nop
  40057c:	8ca20008 	lw	v0,8(a1)
  400580:	8c83000c 	lw	v1,12(a0)
  400584:	27bdffe8 	addiu	sp,sp,-24
  400588:	afb00010 	sw	s0,16(sp)
  40058c:	00621824 	and	v1,v1,v0
  400590:	8c820000 	lw	v0,0(a0)
  400594:	00031880 	sll	v1,v1,0x2
  400598:	afbf0014 	sw	ra,20(sp)
  40059c:	00808021 	move	s0,a0
  4005a0:	00431821 	addu	v1,v0,v1
  4005a4:	8c620000 	lw	v0,0(v1)
  4005a8:	5040000e 	beqzl	v0,4005e4 <Hash_DeleteEntry+0x70>
  4005ac:	3c050041 	lui	a1,0x41
  4005b0:	5445fffc 	bnel	v0,a1,4005a4 <Hash_DeleteEntry+0x30>
  4005b4:	00401821 	move	v1,v0
  4005b8:	8ca20000 	lw	v0,0(a1)
  4005bc:	00a02021 	move	a0,a1
  4005c0:	0c1020d8 	jal	408360 <free>
  4005c4:	ac620000 	sw	v0,0(v1)
  4005c8:	8e020008 	lw	v0,8(s0)
  4005cc:	8fbf0014 	lw	ra,20(sp)
  4005d0:	2442ffff 	addiu	v0,v0,-1
  4005d4:	ae020008 	sw	v0,8(s0)
  4005d8:	8fb00010 	lw	s0,16(sp)
  4005dc:	0810017f 	j	4005fc <Hash_DeleteEntry+0x88>
  4005e0:	27bd0018 	addiu	sp,sp,24
  4005e4:	24040002 	li	a0,2
  4005e8:	24a5aa28 	addiu	a1,a1,-21976
  4005ec:	0c101ecd 	jal	407b34 <write>
  4005f0:	2406001d 	li	a2,29
  4005f4:	0c101b60 	jal	406d80 <abort>
  4005f8:	00000000 	nop
  4005fc:	03e00008 	jr	ra
  400600:	00000000 	nop

00400604 <Hash_EnumNext>:
  400604:	8c820008 	lw	v0,8(a0)
  400608:	10400002 	beqz	v0,400614 <Hash_EnumNext+0x10>
  40060c:	8c830000 	lw	v1,0(a0)
  400610:	8c420000 	lw	v0,0(v0)
  400614:	1440000b 	bnez	v0,400644 <Hash_EnumNext+0x40>
  400618:	00000000 	nop
  40061c:	8c820004 	lw	v0,4(a0)
  400620:	8c650004 	lw	a1,4(v1)
  400624:	0045282a 	slt	a1,v0,a1
  400628:	10a00008 	beqz	a1,40064c <Hash_EnumNext+0x48>
  40062c:	24460001 	addiu	a2,v0,1
  400630:	8c650000 	lw	a1,0(v1)
  400634:	00021080 	sll	v0,v0,0x2
  400638:	ac860004 	sw	a2,4(a0)
  40063c:	08100184 	j	400610 <Hash_EnumNext+0xc>
  400640:	00a21021 	addu	v0,a1,v0
  400644:	03e00008 	jr	ra
  400648:	ac820008 	sw	v0,8(a0)
  40064c:	03e00008 	jr	ra
  400650:	00001021 	move	v0,zero

00400654 <Hash_EnumFirst>:
  400654:	aca40000 	sw	a0,0(a1)
  400658:	aca00004 	sw	zero,4(a1)
  40065c:	aca00008 	sw	zero,8(a1)
  400660:	08100181 	j	400604 <Hash_EnumNext>
  400664:	00a02021 	move	a0,a1

00400668 <initialize>:
  400668:	8f858ed4 	lw	a1,-28972(gp)
  40066c:	3c020041 	lui	v0,0x41
  400670:	3c040041 	lui	a0,0x41
  400674:	2442d7e0 	addiu	v0,v0,-10272
  400678:	2484d7d0 	addiu	a0,a0,-10288
  40067c:	af828ecc 	sw	v0,-28980(gp)
  400680:	08100089 	j	400224 <Hash_InitTable>
  400684:	af848ed8 	sw	a0,-28968(gp)

00400688 <strnode_add>:
  400688:	27bdffd8 	addiu	sp,sp,-40
  40068c:	afb1001c 	sw	s1,28(sp)
  400690:	00808821 	move	s1,a0
  400694:	00a02021 	move	a0,a1
  400698:	afbf0024 	sw	ra,36(sp)
  40069c:	afa50010 	sw	a1,16(sp)
  4006a0:	afb20020 	sw	s2,32(sp)
  4006a4:	afb00018 	sw	s0,24(sp)
  4006a8:	0c100e71 	jal	4039c4 <strlen>
  4006ac:	00c09021 	move	s2,a2
  4006b0:	0c100059 	jal	400164 <emalloc>
  4006b4:	2444000c 	addiu	a0,v0,12
  4006b8:	8fa50010 	lw	a1,16(sp)
  4006bc:	ac520000 	sw	s2,0(v0)
  4006c0:	24440008 	addiu	a0,v0,8
  4006c4:	0c1006c2 	jal	401b08 <strcpy>
  4006c8:	00408021 	move	s0,v0
  4006cc:	8e220000 	lw	v0,0(s1)
  4006d0:	8fbf0024 	lw	ra,36(sp)
  4006d4:	8fb20020 	lw	s2,32(sp)
  4006d8:	ae020004 	sw	v0,4(s0)
  4006dc:	ae300000 	sw	s0,0(s1)
  4006e0:	8fb1001c 	lw	s1,28(sp)
  4006e4:	8fb00018 	lw	s0,24(sp)
  4006e8:	03e00008 	jr	ra
  4006ec:	27bd0028 	addiu	sp,sp,40

004006f0 <filenode_new>:
  4006f0:	27bdffe0 	addiu	sp,sp,-32
  4006f4:	afb10018 	sw	s1,24(sp)
  4006f8:	00808821 	move	s1,a0
  4006fc:	2404001c 	li	a0,28
  400700:	afbf001c 	sw	ra,28(sp)
  400704:	0c100059 	jal	400164 <emalloc>
  400708:	afb00014 	sw	s0,20(sp)
  40070c:	00402021 	move	a0,v0
  400710:	00002821 	move	a1,zero
  400714:	2406001c 	li	a2,28
  400718:	0c1007ff 	jal	401ffc <memset>
  40071c:	00408021 	move	s0,v0
  400720:	0c100065 	jal	400194 <estrdup>
  400724:	02202021 	move	a0,s1
  400728:	ae020000 	sw	v0,0(s0)
  40072c:	8f828ecc 	lw	v0,-28980(gp)
  400730:	ae000010 	sw	zero,16(s0)
  400734:	ae000014 	sw	zero,20(s0)
  400738:	8c430008 	lw	v1,8(v0)
  40073c:	ae000018 	sw	zero,24(s0)
  400740:	ae000004 	sw	zero,4(s0)
  400744:	10600002 	beqz	v1,400750 <filenode_new+0x60>
  400748:	ae030008 	sw	v1,8(s0)
  40074c:	ac70000c 	sw	s0,12(v1)
  400750:	8fbf001c 	lw	ra,28(sp)
  400754:	ae02000c 	sw	v0,12(s0)
  400758:	8fb10018 	lw	s1,24(sp)
  40075c:	ac500008 	sw	s0,8(v0)
  400760:	02001021 	move	v0,s0
  400764:	8fb00014 	lw	s0,20(sp)
  400768:	03e00008 	jr	ra
  40076c:	27bd0020 	addiu	sp,sp,32

00400770 <add_require>:
  400770:	27bdffd8 	addiu	sp,sp,-40
  400774:	afb0001c 	sw	s0,28(sp)
  400778:	00808021 	move	s0,a0
  40077c:	8f848ed8 	lw	a0,-28968(gp)
  400780:	afb10020 	sw	s1,32(sp)
  400784:	afbf0024 	sw	ra,36(sp)
  400788:	0c1000eb 	jal	4003ac <Hash_CreateEntry>
  40078c:	27a60010 	addiu	a2,sp,16
  400790:	00408821 	move	s1,v0
  400794:	8fa20010 	lw	v0,16(sp)
  400798:	54400001 	bnezl	v0,4007a0 <add_require+0x30>
  40079c:	ae200004 	sw	zero,4(s1)
  4007a0:	0c100059 	jal	400164 <emalloc>
  4007a4:	24040008 	li	a0,8
  4007a8:	8e030010 	lw	v1,16(s0)
  4007ac:	8fbf0024 	lw	ra,36(sp)
  4007b0:	ac510000 	sw	s1,0(v0)
  4007b4:	ac430004 	sw	v1,4(v0)
  4007b8:	8fb10020 	lw	s1,32(sp)
  4007bc:	ae020010 	sw	v0,16(s0)
  4007c0:	8fb0001c 	lw	s0,28(sp)
  4007c4:	03e00008 	jr	ra
  4007c8:	27bd0028 	addiu	sp,sp,40

004007cc <add_provide>:
  4007cc:	27bdffd8 	addiu	sp,sp,-40
  4007d0:	afb20020 	sw	s2,32(sp)
  4007d4:	00809021 	move	s2,a0
  4007d8:	8f848ed8 	lw	a0,-28968(gp)
  4007dc:	afb1001c 	sw	s1,28(sp)
  4007e0:	afb00018 	sw	s0,24(sp)
  4007e4:	afbf0024 	sw	ra,36(sp)
  4007e8:	0c1000eb 	jal	4003ac <Hash_CreateEntry>
  4007ec:	27a60010 	addiu	a2,sp,16
  4007f0:	8c500004 	lw	s0,4(v0)
  4007f4:	1600000b 	bnez	s0,400824 <add_provide+0x58>
  4007f8:	00408821 	move	s1,v0
  4007fc:	0c100059 	jal	400164 <emalloc>
  400800:	24040014 	li	a0,20
  400804:	00408021 	move	s0,v0
  400808:	24020001 	li	v0,1
  40080c:	ae020000 	sw	v0,0(s0)
  400810:	ae000004 	sw	zero,4(s0)
  400814:	ae000008 	sw	zero,8(s0)
  400818:	ae00000c 	sw	zero,12(s0)
  40081c:	ae000010 	sw	zero,16(s0)
  400820:	ae300004 	sw	s0,4(s1)
  400824:	0c100059 	jal	400164 <emalloc>
  400828:	24040014 	li	a0,20
  40082c:	00408821 	move	s1,v0
  400830:	ac400000 	sw	zero,0(v0)
  400834:	ac400004 	sw	zero,4(v0)
  400838:	ac520008 	sw	s2,8(v0)
  40083c:	8e02000c 	lw	v0,12(s0)
  400840:	ae300010 	sw	s0,16(s1)
  400844:	ae22000c 	sw	v0,12(s1)
  400848:	ae11000c 	sw	s1,12(s0)
  40084c:	8e22000c 	lw	v0,12(s1)
  400850:	54400001 	bnezl	v0,400858 <add_provide+0x8c>
  400854:	ac510010 	sw	s1,16(v0)
  400858:	0c100059 	jal	400164 <emalloc>
  40085c:	24040008 	li	a0,8
  400860:	8e430014 	lw	v1,20(s2)
  400864:	8fbf0024 	lw	ra,36(sp)
  400868:	ac510000 	sw	s1,0(v0)
  40086c:	ac430004 	sw	v1,4(v0)
  400870:	8fb1001c 	lw	s1,28(sp)
  400874:	8fb00018 	lw	s0,24(sp)
  400878:	ae420014 	sw	v0,20(s2)
  40087c:	8fb20020 	lw	s2,32(sp)
  400880:	03e00008 	jr	ra
  400884:	27bd0028 	addiu	sp,sp,40

00400888 <add_before>:
  400888:	27bdffd8 	addiu	sp,sp,-40
  40088c:	afb10020 	sw	s1,32(sp)
  400890:	00808821 	move	s1,a0
  400894:	00a02021 	move	a0,a1
  400898:	afbf0024 	sw	ra,36(sp)
  40089c:	afa50010 	sw	a1,16(sp)
  4008a0:	0c100e71 	jal	4039c4 <strlen>
  4008a4:	afb0001c 	sw	s0,28(sp)
  4008a8:	0c100059 	jal	400164 <emalloc>
  4008ac:	2444000c 	addiu	a0,v0,12
  4008b0:	8fa50010 	lw	a1,16(sp)
  4008b4:	ac510000 	sw	s1,0(v0)
  4008b8:	24440008 	addiu	a0,v0,8
  4008bc:	0c1006c2 	jal	401b08 <strcpy>
  4008c0:	00408021 	move	s0,v0
  4008c4:	8f828ec8 	lw	v0,-28984(gp)
  4008c8:	8fbf0024 	lw	ra,36(sp)
  4008cc:	8fb10020 	lw	s1,32(sp)
  4008d0:	ae020004 	sw	v0,4(s0)
  4008d4:	af908ec8 	sw	s0,-28984(gp)
  4008d8:	8fb0001c 	lw	s0,28(sp)
  4008dc:	03e00008 	jr	ra
  4008e0:	27bd0028 	addiu	sp,sp,40

004008e4 <add_keyword>:
  4008e4:	00803021 	move	a2,a0
  4008e8:	081001a2 	j	400688 <strnode_add>
  4008ec:	24840018 	addiu	a0,a0,24

004008f0 <parse_require>:
  4008f0:	27bdffe0 	addiu	sp,sp,-32
  4008f4:	afb00014 	sw	s0,20(sp)
  4008f8:	3c100041 	lui	s0,0x41
  4008fc:	afb10018 	sw	s1,24(sp)
  400900:	afbf001c 	sw	ra,28(sp)
  400904:	00808821 	move	s1,a0
  400908:	afa50024 	sw	a1,36(sp)
  40090c:	2610aa48 	addiu	s0,s0,-21944
  400910:	27a40024 	addiu	a0,sp,36
  400914:	0c100688 	jal	401a20 <strsep>
  400918:	02002821 	move	a1,s0
  40091c:	10400009 	beqz	v0,400944 <parse_require+0x54>
  400920:	8fbf001c 	lw	ra,28(sp)
  400924:	90430000 	lbu	v1,0(v0)
  400928:	5060fffa 	beqzl	v1,400914 <parse_require+0x24>
  40092c:	27a40024 	addiu	a0,sp,36
  400930:	02202021 	move	a0,s1
  400934:	0c1001dc 	jal	400770 <add_require>
  400938:	00402821 	move	a1,v0
  40093c:	08100245 	j	400914 <parse_require+0x24>
  400940:	27a40024 	addiu	a0,sp,36
  400944:	8fb10018 	lw	s1,24(sp)
  400948:	8fb00014 	lw	s0,20(sp)
  40094c:	03e00008 	jr	ra
  400950:	27bd0020 	addiu	sp,sp,32

00400954 <parse_provide>:
  400954:	27bdffe0 	addiu	sp,sp,-32
  400958:	afb00014 	sw	s0,20(sp)
  40095c:	3c100041 	lui	s0,0x41
  400960:	afb10018 	sw	s1,24(sp)
  400964:	afbf001c 	sw	ra,28(sp)
  400968:	00808821 	move	s1,a0
  40096c:	afa50024 	sw	a1,36(sp)
  400970:	2610aa48 	addiu	s0,s0,-21944
  400974:	27a40024 	addiu	a0,sp,36
  400978:	0c100688 	jal	401a20 <strsep>
  40097c:	02002821 	move	a1,s0
  400980:	10400009 	beqz	v0,4009a8 <parse_provide+0x54>
  400984:	8fbf001c 	lw	ra,28(sp)
  400988:	90430000 	lbu	v1,0(v0)
  40098c:	5060fffa 	beqzl	v1,400978 <parse_provide+0x24>
  400990:	27a40024 	addiu	a0,sp,36
  400994:	02202021 	move	a0,s1
  400998:	0c1001f3 	jal	4007cc <add_provide>
  40099c:	00402821 	move	a1,v0
  4009a0:	0810025e 	j	400978 <parse_provide+0x24>
  4009a4:	27a40024 	addiu	a0,sp,36
  4009a8:	8fb10018 	lw	s1,24(sp)
  4009ac:	8fb00014 	lw	s0,20(sp)
  4009b0:	03e00008 	jr	ra
  4009b4:	27bd0020 	addiu	sp,sp,32

004009b8 <parse_before>:
  4009b8:	27bdffe0 	addiu	sp,sp,-32
  4009bc:	afb00014 	sw	s0,20(sp)
  4009c0:	3c100041 	lui	s0,0x41
  4009c4:	afb10018 	sw	s1,24(sp)
  4009c8:	afbf001c 	sw	ra,28(sp)
  4009cc:	00808821 	move	s1,a0
  4009d0:	afa50024 	sw	a1,36(sp)
  4009d4:	2610aa48 	addiu	s0,s0,-21944
  4009d8:	27a40024 	addiu	a0,sp,36
  4009dc:	0c100688 	jal	401a20 <strsep>
  4009e0:	02002821 	move	a1,s0
  4009e4:	10400009 	beqz	v0,400a0c <parse_before+0x54>
  4009e8:	8fbf001c 	lw	ra,28(sp)
  4009ec:	90430000 	lbu	v1,0(v0)
  4009f0:	5060fffa 	beqzl	v1,4009dc <parse_before+0x24>
  4009f4:	27a40024 	addiu	a0,sp,36
  4009f8:	02202021 	move	a0,s1
  4009fc:	0c100222 	jal	400888 <add_before>
  400a00:	00402821 	move	a1,v0
  400a04:	08100277 	j	4009dc <parse_before+0x24>
  400a08:	27a40024 	addiu	a0,sp,36
  400a0c:	8fb10018 	lw	s1,24(sp)
  400a10:	8fb00014 	lw	s0,20(sp)
  400a14:	03e00008 	jr	ra
  400a18:	27bd0020 	addiu	sp,sp,32

00400a1c <parse_keywords>:
  400a1c:	27bdffe0 	addiu	sp,sp,-32
  400a20:	afb00014 	sw	s0,20(sp)
  400a24:	3c100041 	lui	s0,0x41
  400a28:	afb10018 	sw	s1,24(sp)
  400a2c:	afbf001c 	sw	ra,28(sp)
  400a30:	00808821 	move	s1,a0
  400a34:	afa50024 	sw	a1,36(sp)
  400a38:	2610aa48 	addiu	s0,s0,-21944
  400a3c:	27a40024 	addiu	a0,sp,36
  400a40:	0c100688 	jal	401a20 <strsep>
  400a44:	02002821 	move	a1,s0
  400a48:	10400009 	beqz	v0,400a70 <parse_keywords+0x54>
  400a4c:	8fbf001c 	lw	ra,28(sp)
  400a50:	90430000 	lbu	v1,0(v0)
  400a54:	5060fffa 	beqzl	v1,400a40 <parse_keywords+0x24>
  400a58:	27a40024 	addiu	a0,sp,36
  400a5c:	02202021 	move	a0,s1
  400a60:	0c100239 	jal	4008e4 <add_keyword>
  400a64:	00402821 	move	a1,v0
  400a68:	08100290 	j	400a40 <parse_keywords+0x24>
  400a6c:	27a40024 	addiu	a0,sp,36
  400a70:	8fb10018 	lw	s1,24(sp)
  400a74:	8fb00014 	lw	s0,20(sp)
  400a78:	03e00008 	jr	ra
  400a7c:	27bd0020 	addiu	sp,sp,32

00400a80 <crunch_file>:
  400a80:	3c050041 	lui	a1,0x41
  400a84:	27bdff70 	addiu	sp,sp,-144
  400a88:	24a5ace0 	addiu	a1,a1,-21280
  400a8c:	afb20078 	sw	s2,120(sp)
  400a90:	afb00070 	sw	s0,112(sp)
  400a94:	afbf008c 	sw	ra,140(sp)
  400a98:	afb60088 	sw	s6,136(sp)
  400a9c:	afb50084 	sw	s5,132(sp)
  400aa0:	afb40080 	sw	s4,128(sp)
  400aa4:	afb3007c 	sw	s3,124(sp)
  400aa8:	afb10074 	sw	s1,116(sp)
  400aac:	0c1006ef 	jal	401bbc <fopen>
  400ab0:	00808021 	move	s0,a0
  400ab4:	14400007 	bnez	v0,400ad4 <crunch_file+0x54>
  400ab8:	00409021 	move	s2,v0
  400abc:	3c040041 	lui	a0,0x41
  400ac0:	2484aa4c 	addiu	a0,a0,-21940
  400ac4:	0c1005e8 	jal	4017a0 <warn>
  400ac8:	02002821 	move	a1,s0
  400acc:	08100320 	j	400c80 <crunch_file+0x200>
  400ad0:	8fbf008c 	lw	ra,140(sp)
  400ad4:	8444000e 	lh	a0,14(v0)
  400ad8:	0c101f1a 	jal	407c68 <fstat>
  400adc:	27a50010 	addiu	a1,sp,16
  400ae0:	2403ffff 	li	v1,-1
  400ae4:	14430007 	bne	v0,v1,400b04 <crunch_file+0x84>
  400ae8:	97a30018 	lhu	v1,24(sp)
  400aec:	3c040041 	lui	a0,0x41
  400af0:	2484aa60 	addiu	a0,a0,-21920
  400af4:	0c1005e8 	jal	4017a0 <warn>
  400af8:	02002821 	move	a1,s0
  400afc:	08100309 	j	400c24 <crunch_file+0x1a4>
  400b00:	00000000 	nop
  400b04:	34028000 	li	v0,0x8000
  400b08:	3063f000 	andi	v1,v1,0xf000
  400b0c:	14620045 	bne	v1,v0,400c24 <crunch_file+0x1a4>
  400b10:	00000000 	nop
  400b14:	0c1001bc 	jal	4006f0 <filenode_new>
  400b18:	02002021 	move	a0,s0
  400b1c:	3c140041 	lui	s4,0x41
  400b20:	3c150041 	lui	s5,0x41
  400b24:	00409821 	move	s3,v0
  400b28:	00008821 	move	s1,zero
  400b2c:	2694aa74 	addiu	s4,s4,-21900
  400b30:	26b5aa80 	addiu	s5,s5,-21888
  400b34:	3c160041 	lui	s6,0x41
  400b38:	02402021 	move	a0,s2
  400b3c:	0c100520 	jal	401480 <fgetln>
  400b40:	00002821 	move	a1,zero
  400b44:	10400037 	beqz	v0,400c24 <crunch_file+0x1a4>
  400b48:	00408021 	move	s0,v0
  400b4c:	02802021 	move	a0,s4
  400b50:	02002821 	move	a1,s0
  400b54:	0c10075b 	jal	401d6c <strncmp>
  400b58:	2406000a 	li	a2,10
  400b5c:	10400043 	beqz	v0,400c6c <crunch_file+0x1ec>
  400b60:	2405000a 	li	a1,10
  400b64:	02a02021 	move	a0,s5
  400b68:	02002821 	move	a1,s0
  400b6c:	0c10075b 	jal	401d6c <strncmp>
  400b70:	2406000b 	li	a2,11
  400b74:	1040003d 	beqz	v0,400c6c <crunch_file+0x1ec>
  400b78:	2405000b 	li	a1,11
  400b7c:	26c4aa8c 	addiu	a0,s6,-21876
  400b80:	02002821 	move	a1,s0
  400b84:	0c10075b 	jal	401d6c <strncmp>
  400b88:	2406000a 	li	a2,10
  400b8c:	10400029 	beqz	v0,400c34 <crunch_file+0x1b4>
  400b90:	2405000a 	li	a1,10
  400b94:	3c040041 	lui	a0,0x41
  400b98:	2484aa98 	addiu	a0,a0,-21864
  400b9c:	02002821 	move	a1,s0
  400ba0:	0c10075b 	jal	401d6c <strncmp>
  400ba4:	2406000b 	li	a2,11
  400ba8:	10400022 	beqz	v0,400c34 <crunch_file+0x1b4>
  400bac:	2405000b 	li	a1,11
  400bb0:	3c040041 	lui	a0,0x41
  400bb4:	2484aaa4 	addiu	a0,a0,-21852
  400bb8:	02002821 	move	a1,s0
  400bbc:	0c10075b 	jal	401d6c <strncmp>
  400bc0:	24060009 	li	a2,9
  400bc4:	10400020 	beqz	v0,400c48 <crunch_file+0x1c8>
  400bc8:	02602021 	move	a0,s3
  400bcc:	3c040041 	lui	a0,0x41
  400bd0:	2484aab0 	addiu	a0,a0,-21840
  400bd4:	02002821 	move	a1,s0
  400bd8:	0c10075b 	jal	401d6c <strncmp>
  400bdc:	2406000a 	li	a2,10
  400be0:	1040001d 	beqz	v0,400c58 <crunch_file+0x1d8>
  400be4:	2405000a 	li	a1,10
  400be8:	3c040041 	lui	a0,0x41
  400bec:	2484aabc 	addiu	a0,a0,-21828
  400bf0:	02002821 	move	a1,s0
  400bf4:	0c10075b 	jal	401d6c <strncmp>
  400bf8:	2406000b 	li	a2,11
  400bfc:	10400016 	beqz	v0,400c58 <crunch_file+0x1d8>
  400c00:	2405000b 	li	a1,11
  400c04:	3a230001 	xori	v1,s1,0x1
  400c08:	24020002 	li	v0,2
  400c0c:	0043880a 	movz	s1,v0,v1
  400c10:	0c1020d8 	jal	408360 <free>
  400c14:	02002021 	move	a0,s0
  400c18:	24020002 	li	v0,2
  400c1c:	1622ffc7 	bne	s1,v0,400b3c <crunch_file+0xbc>
  400c20:	02402021 	move	a0,s2
  400c24:	0c100725 	jal	401c94 <fclose>
  400c28:	02402021 	move	a0,s2
  400c2c:	08100320 	j	400c80 <crunch_file+0x200>
  400c30:	8fbf008c 	lw	ra,140(sp)
  400c34:	02602021 	move	a0,s3
  400c38:	0c100255 	jal	400954 <parse_provide>
  400c3c:	02052821 	addu	a1,s0,a1
  400c40:	08100304 	j	400c10 <crunch_file+0x190>
  400c44:	24110001 	li	s1,1
  400c48:	0c10026e 	jal	4009b8 <parse_before>
  400c4c:	26050009 	addiu	a1,s0,9
  400c50:	08100304 	j	400c10 <crunch_file+0x190>
  400c54:	24110001 	li	s1,1
  400c58:	02602021 	move	a0,s3
  400c5c:	0c100287 	jal	400a1c <parse_keywords>
  400c60:	02052821 	addu	a1,s0,a1
  400c64:	08100304 	j	400c10 <crunch_file+0x190>
  400c68:	24110001 	li	s1,1
  400c6c:	02602021 	move	a0,s3
  400c70:	0c10023c 	jal	4008f0 <parse_require>
  400c74:	02052821 	addu	a1,s0,a1
  400c78:	08100304 	j	400c10 <crunch_file+0x190>
  400c7c:	24110001 	li	s1,1
  400c80:	8fb60088 	lw	s6,136(sp)
  400c84:	8fb50084 	lw	s5,132(sp)
  400c88:	8fb40080 	lw	s4,128(sp)
  400c8c:	8fb3007c 	lw	s3,124(sp)
  400c90:	8fb20078 	lw	s2,120(sp)
  400c94:	8fb10074 	lw	s1,116(sp)
  400c98:	8fb00070 	lw	s0,112(sp)
  400c9c:	03e00008 	jr	ra
  400ca0:	27bd0090 	addiu	sp,sp,144

00400ca4 <make_fake_provision>:
  400ca4:	27bdffb0 	addiu	sp,sp,-80
  400ca8:	afb0003c 	sw	s0,60(sp)
  400cac:	3c100041 	lui	s0,0x41
  400cb0:	afb20044 	sw	s2,68(sp)
  400cb4:	afbf004c 	sw	ra,76(sp)
  400cb8:	afb30048 	sw	s3,72(sp)
  400cbc:	afb10040 	sw	s1,64(sp)
  400cc0:	00809021 	move	s2,a0
  400cc4:	2610aac8 	addiu	s0,s0,-21816
  400cc8:	8f878ea0 	lw	a3,-29024(gp)
  400ccc:	27a40010 	addiu	a0,sp,16
  400cd0:	2405001e 	li	a1,30
  400cd4:	24e20001 	addiu	v0,a3,1
  400cd8:	02003021 	move	a2,s0
  400cdc:	0c1006d8 	jal	401b60 <snprintf>
  400ce0:	af828ea0 	sw	v0,-29024(gp)
  400ce4:	8f848ed8 	lw	a0,-28968(gp)
  400ce8:	27a50010 	addiu	a1,sp,16
  400cec:	0c1000eb 	jal	4003ac <Hash_CreateEntry>
  400cf0:	27a60030 	addiu	a2,sp,48
  400cf4:	00409821 	move	s3,v0
  400cf8:	8fa20030 	lw	v0,48(sp)
  400cfc:	1040fff3 	beqz	v0,400ccc <make_fake_provision+0x28>
  400d00:	8f878ea0 	lw	a3,-29024(gp)
  400d04:	0c100059 	jal	400164 <emalloc>
  400d08:	24040014 	li	a0,20
  400d0c:	00408821 	move	s1,v0
  400d10:	24020001 	li	v0,1
  400d14:	ae220000 	sw	v0,0(s1)
  400d18:	ae200004 	sw	zero,4(s1)
  400d1c:	ae200008 	sw	zero,8(s1)
  400d20:	ae20000c 	sw	zero,12(s1)
  400d24:	ae200010 	sw	zero,16(s1)
  400d28:	24040014 	li	a0,20
  400d2c:	0c100059 	jal	400164 <emalloc>
  400d30:	ae710004 	sw	s1,4(s3)
  400d34:	00408021 	move	s0,v0
  400d38:	ac400000 	sw	zero,0(v0)
  400d3c:	ac400004 	sw	zero,4(v0)
  400d40:	ac520008 	sw	s2,8(v0)
  400d44:	8e22000c 	lw	v0,12(s1)
  400d48:	ae110010 	sw	s1,16(s0)
  400d4c:	ae02000c 	sw	v0,12(s0)
  400d50:	ae30000c 	sw	s0,12(s1)
  400d54:	8e02000c 	lw	v0,12(s0)
  400d58:	54400001 	bnezl	v0,400d60 <make_fake_provision+0xbc>
  400d5c:	ac500010 	sw	s0,16(v0)
  400d60:	0c100059 	jal	400164 <emalloc>
  400d64:	24040008 	li	a0,8
  400d68:	8e430014 	lw	v1,20(s2)
  400d6c:	8fbf004c 	lw	ra,76(sp)
  400d70:	ac500000 	sw	s0,0(v0)
  400d74:	ac430004 	sw	v1,4(v0)
  400d78:	8fb10040 	lw	s1,64(sp)
  400d7c:	ae420014 	sw	v0,20(s2)
  400d80:	8fb0003c 	lw	s0,60(sp)
  400d84:	02601021 	move	v0,s3
  400d88:	8fb20044 	lw	s2,68(sp)
  400d8c:	8fb30048 	lw	s3,72(sp)
  400d90:	03e00008 	jr	ra
  400d94:	27bd0050 	addiu	sp,sp,80

00400d98 <insert_before>:
  400d98:	27bdffd0 	addiu	sp,sp,-48
  400d9c:	afb20020 	sw	s2,32(sp)
  400da0:	3c120041 	lui	s2,0x41
  400da4:	afb1001c 	sw	s1,28(sp)
  400da8:	afbf002c 	sw	ra,44(sp)
  400dac:	afb40028 	sw	s4,40(sp)
  400db0:	afb30024 	sw	s3,36(sp)
  400db4:	afb00018 	sw	s0,24(sp)
  400db8:	24110001 	li	s1,1
  400dbc:	2652aad8 	addiu	s2,s2,-21800
  400dc0:	8f828ec8 	lw	v0,-28984(gp)
  400dc4:	10400027 	beqz	v0,400e64 <insert_before+0xcc>
  400dc8:	8fbf002c 	lw	ra,44(sp)
  400dcc:	8c440000 	lw	a0,0(v0)
  400dd0:	0c100329 	jal	400ca4 <make_fake_provision>
  400dd4:	8c530004 	lw	s3,4(v0)
  400dd8:	8f858ec8 	lw	a1,-28984(gp)
  400ddc:	8f848ed8 	lw	a0,-28968(gp)
  400de0:	27a60010 	addiu	a2,sp,16
  400de4:	24a50008 	addiu	a1,a1,8
  400de8:	0c1000eb 	jal	4003ac <Hash_CreateEntry>
  400dec:	0040a021 	move	s4,v0
  400df0:	00408021 	move	s0,v0
  400df4:	8fa20010 	lw	v0,16(sp)
  400df8:	54510008 	bnel	v0,s1,400e1c <insert_before+0x84>
  400dfc:	8e100004 	lw	s0,4(s0)
  400e00:	8f868ec8 	lw	a2,-28984(gp)
  400e04:	02402021 	move	a0,s2
  400e08:	8cc20000 	lw	v0,0(a2)
  400e0c:	24c60008 	addiu	a2,a2,8
  400e10:	0c10060d 	jal	401834 <warnx>
  400e14:	8c450000 	lw	a1,0(v0)
  400e18:	8e100004 	lw	s0,4(s0)
  400e1c:	1200000d 	beqz	s0,400e54 <insert_before+0xbc>
  400e20:	00000000 	nop
  400e24:	8e020000 	lw	v0,0(s0)
  400e28:	5440fffc 	bnezl	v0,400e1c <insert_before+0x84>
  400e2c:	8e10000c 	lw	s0,12(s0)
  400e30:	0c100059 	jal	400164 <emalloc>
  400e34:	24040008 	li	a0,8
  400e38:	8e030008 	lw	v1,8(s0)
  400e3c:	ac540000 	sw	s4,0(v0)
  400e40:	8c640010 	lw	a0,16(v1)
  400e44:	ac440004 	sw	a0,4(v0)
  400e48:	ac620010 	sw	v0,16(v1)
  400e4c:	08100387 	j	400e1c <insert_before+0x84>
  400e50:	8e10000c 	lw	s0,12(s0)
  400e54:	0c1020d8 	jal	408360 <free>
  400e58:	8f848ec8 	lw	a0,-28984(gp)
  400e5c:	08100370 	j	400dc0 <insert_before+0x28>
  400e60:	af938ec8 	sw	s3,-28984(gp)
  400e64:	8fb40028 	lw	s4,40(sp)
  400e68:	8fb30024 	lw	s3,36(sp)
  400e6c:	8fb20020 	lw	s2,32(sp)
  400e70:	8fb1001c 	lw	s1,28(sp)
  400e74:	8fb00018 	lw	s0,24(sp)
  400e78:	03e00008 	jr	ra
  400e7c:	27bd0030 	addiu	sp,sp,48

00400e80 <crunch_all_files>:
  400e80:	27bdffe8 	addiu	sp,sp,-24
  400e84:	afb00010 	sw	s0,16(sp)
  400e88:	afbf0014 	sw	ra,20(sp)
  400e8c:	00008021 	move	s0,zero
  400e90:	8f828ed4 	lw	v0,-28972(gp)
  400e94:	0202102a 	slt	v0,s0,v0
  400e98:	10400008 	beqz	v0,400ebc <crunch_all_files+0x3c>
  400e9c:	8f838ed0 	lw	v1,-28976(gp)
  400ea0:	00101080 	sll	v0,s0,0x2
  400ea4:	26100001 	addiu	s0,s0,1
  400ea8:	00621021 	addu	v0,v1,v0
  400eac:	0c1002a0 	jal	400a80 <crunch_file>
  400eb0:	8c440000 	lw	a0,0(v0)
  400eb4:	081003a5 	j	400e94 <crunch_all_files+0x14>
  400eb8:	8f828ed4 	lw	v0,-28972(gp)
  400ebc:	8fbf0014 	lw	ra,20(sp)
  400ec0:	8fb00010 	lw	s0,16(sp)
  400ec4:	08100366 	j	400d98 <insert_before>
  400ec8:	27bd0018 	addiu	sp,sp,24

00400ecc <skip_ok>:
  400ecc:	27bdffd8 	addiu	sp,sp,-40
  400ed0:	afb00014 	sw	s0,20(sp)
  400ed4:	8f908ec4 	lw	s0,-28988(gp)
  400ed8:	afb2001c 	sw	s2,28(sp)
  400edc:	afbf0024 	sw	ra,36(sp)
  400ee0:	afb30020 	sw	s3,32(sp)
  400ee4:	afb10018 	sw	s1,24(sp)
  400ee8:	00809021 	move	s2,a0
  400eec:	1200000c 	beqz	s0,400f20 <skip_ok+0x54>
  400ef0:	26130008 	addiu	s3,s0,8
  400ef4:	8e510018 	lw	s1,24(s2)
  400ef8:	12200007 	beqz	s1,400f18 <skip_ok+0x4c>
  400efc:	26240008 	addiu	a0,s1,8
  400f00:	0c101f03 	jal	407c0c <strcmp>
  400f04:	02602821 	move	a1,s3
  400f08:	10400007 	beqz	v0,400f28 <skip_ok+0x5c>
  400f0c:	8fbf0024 	lw	ra,36(sp)
  400f10:	081003be 	j	400ef8 <skip_ok+0x2c>
  400f14:	8e310004 	lw	s1,4(s1)
  400f18:	081003bb 	j	400eec <skip_ok+0x20>
  400f1c:	8e100004 	lw	s0,4(s0)
  400f20:	24020001 	li	v0,1
  400f24:	8fbf0024 	lw	ra,36(sp)
  400f28:	8fb30020 	lw	s3,32(sp)
  400f2c:	8fb2001c 	lw	s2,28(sp)
  400f30:	8fb10018 	lw	s1,24(sp)
  400f34:	8fb00014 	lw	s0,20(sp)
  400f38:	03e00008 	jr	ra
  400f3c:	27bd0028 	addiu	sp,sp,40

00400f40 <keep_ok>:
  400f40:	27bdffd8 	addiu	sp,sp,-40
  400f44:	afb20018 	sw	s2,24(sp)
  400f48:	8f928ec0 	lw	s2,-28992(gp)
  400f4c:	afb3001c 	sw	s3,28(sp)
  400f50:	afb00010 	sw	s0,16(sp)
  400f54:	afbf0024 	sw	ra,36(sp)
  400f58:	afb40020 	sw	s4,32(sp)
  400f5c:	afb10014 	sw	s1,20(sp)
  400f60:	00809821 	move	s3,a0
  400f64:	02408021 	move	s0,s2
  400f68:	1200000c 	beqz	s0,400f9c <keep_ok+0x5c>
  400f6c:	26140008 	addiu	s4,s0,8
  400f70:	8e710018 	lw	s1,24(s3)
  400f74:	12200007 	beqz	s1,400f94 <keep_ok+0x54>
  400f78:	26240008 	addiu	a0,s1,8
  400f7c:	0c101f03 	jal	407c0c <strcmp>
  400f80:	02802821 	move	a1,s4
  400f84:	10400006 	beqz	v0,400fa0 <keep_ok+0x60>
  400f88:	24020001 	li	v0,1
  400f8c:	081003dd 	j	400f74 <keep_ok+0x34>
  400f90:	8e310004 	lw	s1,4(s1)
  400f94:	081003da 	j	400f68 <keep_ok+0x28>
  400f98:	8e100004 	lw	s0,4(s0)
  400f9c:	2e420001 	sltiu	v0,s2,1
  400fa0:	8fbf0024 	lw	ra,36(sp)
  400fa4:	8fb40020 	lw	s4,32(sp)
  400fa8:	8fb3001c 	lw	s3,28(sp)
  400fac:	8fb20018 	lw	s2,24(sp)
  400fb0:	8fb10014 	lw	s1,20(sp)
  400fb4:	8fb00010 	lw	s0,16(sp)
  400fb8:	03e00008 	jr	ra
  400fbc:	27bd0028 	addiu	sp,sp,40

00400fc0 <do_file>:
  400fc0:	27bdffd8 	addiu	sp,sp,-40
  400fc4:	afb10018 	sw	s1,24(sp)
  400fc8:	8c910004 	lw	s1,4(a0)
  400fcc:	24020001 	li	v0,1
  400fd0:	afb2001c 	sw	s2,28(sp)
  400fd4:	afb00014 	sw	s0,20(sp)
  400fd8:	afbf0024 	sw	ra,36(sp)
  400fdc:	afb30020 	sw	s3,32(sp)
  400fe0:	00808021 	move	s0,a0
  400fe4:	16220007 	bne	s1,v0,401004 <do_file+0x44>
  400fe8:	00009021 	move	s2,zero
  400fec:	8e050000 	lw	a1,0(s0)
  400ff0:	3c040041 	lui	a0,0x41
  400ff4:	0c10060d 	jal	401834 <warnx>
  400ff8:	2484ab04 	addiu	a0,a0,-21756
  400ffc:	24120001 	li	s2,1
  401000:	af918ebc 	sw	s1,-28996(gp)
  401004:	8e110010 	lw	s1,16(s0)
  401008:	24020001 	li	v0,1
  40100c:	ae020004 	sw	v0,4(s0)
  401010:	52200006 	beqzl	s1,40102c <do_file+0x6c>
  401014:	8e110014 	lw	s1,20(s0)
  401018:	8e050000 	lw	a1,0(s0)
  40101c:	0c100437 	jal	4010dc <satisfy_req>
  401020:	02202021 	move	a0,s1
  401024:	08100404 	j	401010 <do_file+0x50>
  401028:	8e310004 	lw	s1,4(s1)
  40102c:	ae000010 	sw	zero,16(s0)
  401030:	12200010 	beqz	s1,401074 <do_file+0xb4>
  401034:	00000000 	nop
  401038:	8e240000 	lw	a0,0(s1)
  40103c:	8c82000c 	lw	v0,12(a0)
  401040:	10400003 	beqz	v0,401050 <do_file+0x90>
  401044:	8c830010 	lw	v1,16(a0)
  401048:	ac430010 	sw	v1,16(v0)
  40104c:	8c830010 	lw	v1,16(a0)
  401050:	54600001 	bnezl	v1,401058 <do_file+0x98>
  401054:	ac62000c 	sw	v0,12(v1)
  401058:	0c1020d8 	jal	408360 <free>
  40105c:	00000000 	nop
  401060:	8e330004 	lw	s3,4(s1)
  401064:	0c1020d8 	jal	408360 <free>
  401068:	02202021 	move	a0,s1
  40106c:	0810040c 	j	401030 <do_file+0x70>
  401070:	02608821 	move	s1,s3
  401074:	1640000b 	bnez	s2,4010a4 <do_file+0xe4>
  401078:	ae000014 	sw	zero,20(s0)
  40107c:	0c1003b3 	jal	400ecc <skip_ok>
  401080:	02002021 	move	a0,s0
  401084:	50400008 	beqzl	v0,4010a8 <do_file+0xe8>
  401088:	8e020008 	lw	v0,8(s0)
  40108c:	0c1003d0 	jal	400f40 <keep_ok>
  401090:	02002021 	move	a0,s0
  401094:	50400004 	beqzl	v0,4010a8 <do_file+0xe8>
  401098:	8e020008 	lw	v0,8(s0)
  40109c:	0c1004ea 	jal	4013a8 <puts>
  4010a0:	8e040000 	lw	a0,0(s0)
  4010a4:	8e020008 	lw	v0,8(s0)
  4010a8:	10400003 	beqz	v0,4010b8 <do_file+0xf8>
  4010ac:	8e03000c 	lw	v1,12(s0)
  4010b0:	ac43000c 	sw	v1,12(v0)
  4010b4:	8e03000c 	lw	v1,12(s0)
  4010b8:	54600001 	bnezl	v1,4010c0 <do_file+0x100>
  4010bc:	ac620008 	sw	v0,8(v1)
  4010c0:	8fbf0024 	lw	ra,36(sp)
  4010c4:	8fb30020 	lw	s3,32(sp)
  4010c8:	8fb2001c 	lw	s2,28(sp)
  4010cc:	8fb10018 	lw	s1,24(sp)
  4010d0:	8fb00014 	lw	s0,20(sp)
  4010d4:	03e00008 	jr	ra
  4010d8:	27bd0028 	addiu	sp,sp,40

004010dc <satisfy_req>:
  4010dc:	00a03021 	move	a2,a1
  4010e0:	8c850000 	lw	a1,0(a0)
  4010e4:	27bdffe0 	addiu	sp,sp,-32
  4010e8:	afb00014 	sw	s0,20(sp)
  4010ec:	8cb00004 	lw	s0,4(a1)
  4010f0:	afbf001c 	sw	ra,28(sp)
  4010f4:	16000008 	bnez	s0,401118 <satisfy_req+0x3c>
  4010f8:	afb10018 	sw	s1,24(sp)
  4010fc:	3c040041 	lui	a0,0x41
  401100:	2484ab28 	addiu	a0,a0,-21720
  401104:	0c10060d 	jal	401834 <warnx>
  401108:	24a5000c 	addiu	a1,a1,12
  40110c:	24020001 	li	v0,1
  401110:	08100459 	j	401164 <satisfy_req+0x88>
  401114:	af828ebc 	sw	v0,-28996(gp)
  401118:	8e03000c 	lw	v1,12(s0)
  40111c:	10600011 	beqz	v1,401164 <satisfy_req+0x88>
  401120:	24030001 	li	v1,1
  401124:	8e110004 	lw	s1,4(s0)
  401128:	56230007 	bnel	s1,v1,401148 <satisfy_req+0x6c>
  40112c:	ae030004 	sw	v1,4(s0)
  401130:	3c040041 	lui	a0,0x41
  401134:	2484ab58 	addiu	a0,a0,-21672
  401138:	0c10060d 	jal	401834 <warnx>
  40113c:	24a5000c 	addiu	a1,a1,12
  401140:	08100459 	j	401164 <satisfy_req+0x88>
  401144:	af918ebc 	sw	s1,-28996(gp)
  401148:	8e02000c 	lw	v0,12(s0)
  40114c:	10400006 	beqz	v0,401168 <satisfy_req+0x8c>
  401150:	8fbf001c 	lw	ra,28(sp)
  401154:	0c1003f0 	jal	400fc0 <do_file>
  401158:	8c440008 	lw	a0,8(v0)
  40115c:	08100453 	j	40114c <satisfy_req+0x70>
  401160:	8e02000c 	lw	v0,12(s0)
  401164:	8fbf001c 	lw	ra,28(sp)
  401168:	8fb10018 	lw	s1,24(sp)
  40116c:	8fb00014 	lw	s0,20(sp)
  401170:	03e00008 	jr	ra
  401174:	27bd0020 	addiu	sp,sp,32

00401178 <generate_ordering>:
  401178:	27bdffe8 	addiu	sp,sp,-24
  40117c:	afbf0014 	sw	ra,20(sp)
  401180:	8f828ecc 	lw	v0,-28980(gp)
  401184:	8c440008 	lw	a0,8(v0)
  401188:	10800005 	beqz	a0,4011a0 <generate_ordering+0x28>
  40118c:	8fbf0014 	lw	ra,20(sp)
  401190:	0c1003f0 	jal	400fc0 <do_file>
  401194:	00000000 	nop
  401198:	08100461 	j	401184 <generate_ordering+0xc>
  40119c:	8f828ecc 	lw	v0,-28980(gp)
  4011a0:	03e00008 	jr	ra
  4011a4:	27bd0018 	addiu	sp,sp,24

004011a8 <getopt>:
  4011a8:	8f828ee0 	lw	v0,-28960(gp)
  4011ac:	27bdffc8 	addiu	sp,sp,-56
  4011b0:	afb30028 	sw	s3,40(sp)
  4011b4:	afb20024 	sw	s2,36(sp)
  4011b8:	afb10020 	sw	s1,32(sp)
  4011bc:	afbf0034 	sw	ra,52(sp)
  4011c0:	afb50030 	sw	s5,48(sp)
  4011c4:	afb4002c 	sw	s4,44(sp)
  4011c8:	afb0001c 	sw	s0,28(sp)
  4011cc:	00809821 	move	s3,a0
  4011d0:	00a09021 	move	s2,a1
  4011d4:	14400005 	bnez	v0,4011ec <getopt+0x44>
  4011d8:	00c08821 	move	s1,a2
  4011dc:	8f828018 	lw	v0,-32744(gp)
  4011e0:	90420000 	lbu	v0,0(v0)
  4011e4:	14400019 	bnez	v0,40124c <getopt+0xa4>
  4011e8:	8f908018 	lw	s0,-32744(gp)
  4011ec:	8f83801c 	lw	v1,-32740(gp)
  4011f0:	0073102a 	slt	v0,v1,s3
  4011f4:	10400010 	beqz	v0,401238 <getopt+0x90>
  4011f8:	af808ee0 	sw	zero,-28960(gp)
  4011fc:	00031080 	sll	v0,v1,0x2
  401200:	02421021 	addu	v0,s2,v0
  401204:	8c420000 	lw	v0,0(v0)
  401208:	2405002d 	li	a1,45
  40120c:	90440000 	lbu	a0,0(v0)
  401210:	14850009 	bne	a0,a1,401238 <getopt+0x90>
  401214:	af828018 	sw	v0,-32744(gp)
  401218:	90450001 	lbu	a1,1(v0)
  40121c:	10a0000b 	beqz	a1,40124c <getopt+0xa4>
  401220:	8f908018 	lw	s0,-32744(gp)
  401224:	24420001 	addiu	v0,v0,1
  401228:	14a40007 	bne	a1,a0,401248 <getopt+0xa0>
  40122c:	af828018 	sw	v0,-32744(gp)
  401230:	24630001 	addiu	v1,v1,1
  401234:	af83801c 	sw	v1,-32740(gp)
  401238:	3c020041 	lui	v0,0x41
  40123c:	2442ac04 	addiu	v0,v0,-21500
  401240:	081004e0 	j	401380 <getopt+0x1d8>
  401244:	af828018 	sw	v0,-32744(gp)
  401248:	8f908018 	lw	s0,-32744(gp)
  40124c:	2415003a 	li	s5,58
  401250:	92070000 	lbu	a3,0(s0)
  401254:	26140001 	addiu	s4,s0,1
  401258:	af948018 	sw	s4,-32744(gp)
  40125c:	10f5000a 	beq	a3,s5,401288 <getopt+0xe0>
  401260:	af878ee4 	sw	a3,-28956(gp)
  401264:	00e02821 	move	a1,a3
  401268:	02202021 	move	a0,s1
  40126c:	0c1006cc 	jal	401b30 <strchr>
  401270:	afa70010 	sw	a3,16(sp)
  401274:	14400015 	bnez	v0,4012cc <getopt+0x124>
  401278:	8fa70010 	lw	a3,16(sp)
  40127c:	2402002d 	li	v0,45
  401280:	10e20040 	beq	a3,v0,401384 <getopt+0x1dc>
  401284:	2402ffff 	li	v0,-1
  401288:	92020001 	lbu	v0,1(s0)
  40128c:	14400005 	bnez	v0,4012a4 <getopt+0xfc>
  401290:	8f828020 	lw	v0,-32736(gp)
  401294:	8f82801c 	lw	v0,-32740(gp)
  401298:	24420001 	addiu	v0,v0,1
  40129c:	af82801c 	sw	v0,-32740(gp)
  4012a0:	8f828020 	lw	v0,-32736(gp)
  4012a4:	10400037 	beqz	v0,401384 <getopt+0x1dc>
  4012a8:	2402003f 	li	v0,63
  4012ac:	92230000 	lbu	v1,0(s1)
  4012b0:	2402003a 	li	v0,58
  4012b4:	10620026 	beq	v1,v0,401350 <getopt+0x1a8>
  4012b8:	3c040041 	lui	a0,0x41
  4012bc:	3c050041 	lui	a1,0x41
  4012c0:	2484c0f8 	addiu	a0,a0,-16136
  4012c4:	081004d2 	j	401348 <getopt+0x1a0>
  4012c8:	24a5abbc 	addiu	a1,a1,-21572
  4012cc:	90420001 	lbu	v0,1(v0)
  4012d0:	50550007 	beql	v0,s5,4012f0 <getopt+0x148>
  4012d4:	92020001 	lbu	v0,1(s0)
  4012d8:	af808edc 	sw	zero,-28964(gp)
  4012dc:	92020001 	lbu	v0,1(s0)
  4012e0:	54400028 	bnezl	v0,401384 <getopt+0x1dc>
  4012e4:	8f828ee4 	lw	v0,-28956(gp)
  4012e8:	081004dc 	j	401370 <getopt+0x1c8>
  4012ec:	8f82801c 	lw	v0,-32740(gp)
  4012f0:	3c030041 	lui	v1,0x41
  4012f4:	10400003 	beqz	v0,401304 <getopt+0x15c>
  4012f8:	2463ac04 	addiu	v1,v1,-21500
  4012fc:	081004da 	j	401368 <getopt+0x1c0>
  401300:	af948edc 	sw	s4,-28964(gp)
  401304:	8f82801c 	lw	v0,-32740(gp)
  401308:	24420001 	addiu	v0,v0,1
  40130c:	0053982a 	slt	s3,v0,s3
  401310:	16600011 	bnez	s3,401358 <getopt+0x1b0>
  401314:	af82801c 	sw	v0,-32740(gp)
  401318:	af838018 	sw	v1,-32744(gp)
  40131c:	92230000 	lbu	v1,0(s1)
  401320:	2402003a 	li	v0,58
  401324:	10620018 	beq	v1,v0,401388 <getopt+0x1e0>
  401328:	8fbf0034 	lw	ra,52(sp)
  40132c:	8f828020 	lw	v0,-32736(gp)
  401330:	50400015 	beqzl	v0,401388 <getopt+0x1e0>
  401334:	2402003f 	li	v0,63
  401338:	3c040041 	lui	a0,0x41
  40133c:	3c050041 	lui	a1,0x41
  401340:	2484c0f8 	addiu	a0,a0,-16136
  401344:	24a5abd8 	addiu	a1,a1,-21544
  401348:	0c10083e 	jal	4020f8 <fprintf>
  40134c:	8f868010 	lw	a2,-32752(gp)
  401350:	081004e1 	j	401384 <getopt+0x1dc>
  401354:	2402003f 	li	v0,63
  401358:	00021080 	sll	v0,v0,0x2
  40135c:	02429021 	addu	s2,s2,v0
  401360:	8e420000 	lw	v0,0(s2)
  401364:	af828edc 	sw	v0,-28964(gp)
  401368:	af838018 	sw	v1,-32744(gp)
  40136c:	8f82801c 	lw	v0,-32740(gp)
  401370:	24420001 	addiu	v0,v0,1
  401374:	af82801c 	sw	v0,-32740(gp)
  401378:	081004e1 	j	401384 <getopt+0x1dc>
  40137c:	8f828ee4 	lw	v0,-28956(gp)
  401380:	2402ffff 	li	v0,-1
  401384:	8fbf0034 	lw	ra,52(sp)
  401388:	8fb50030 	lw	s5,48(sp)
  40138c:	8fb4002c 	lw	s4,44(sp)
  401390:	8fb30028 	lw	s3,40(sp)
  401394:	8fb20024 	lw	s2,36(sp)
  401398:	8fb10020 	lw	s1,32(sp)
  40139c:	8fb0001c 	lw	s0,28(sp)
  4013a0:	03e00008 	jr	ra
  4013a4:	27bd0038 	addiu	sp,sp,56

004013a8 <puts>:
  4013a8:	27bdffc8 	addiu	sp,sp,-56
  4013ac:	afbf0034 	sw	ra,52(sp)
  4013b0:	afb00030 	sw	s0,48(sp)
  4013b4:	0c100e71 	jal	4039c4 <strlen>
  4013b8:	00808021 	move	s0,a0
  4013bc:	afa20014 	sw	v0,20(sp)
  4013c0:	3c030041 	lui	v1,0x41
  4013c4:	24420001 	addiu	v0,v0,1
  4013c8:	afa20028 	sw	v0,40(sp)
  4013cc:	2463abd4 	addiu	v1,v1,-21548
  4013d0:	27a20010 	addiu	v0,sp,16
  4013d4:	3c040041 	lui	a0,0x41
  4013d8:	afa30018 	sw	v1,24(sp)
  4013dc:	afa20020 	sw	v0,32(sp)
  4013e0:	24030001 	li	v1,1
  4013e4:	24020002 	li	v0,2
  4013e8:	2484c0a0 	addiu	a0,a0,-16224
  4013ec:	27a50020 	addiu	a1,sp,32
  4013f0:	afb00010 	sw	s0,16(sp)
  4013f4:	afa3001c 	sw	v1,28(sp)
  4013f8:	0c100e77 	jal	4039dc <__sfvwrite>
  4013fc:	afa20024 	sw	v0,36(sp)
  401400:	8fbf0034 	lw	ra,52(sp)
  401404:	2403ffff 	li	v1,-1
  401408:	2404000a 	li	a0,10
  40140c:	0082180a 	movz	v1,a0,v0
  401410:	8fb00030 	lw	s0,48(sp)
  401414:	00601021 	move	v0,v1
  401418:	03e00008 	jr	ra
  40141c:	27bd0038 	addiu	sp,sp,56

00401420 <__slbexpand>:
  401420:	8c820048 	lw	v0,72(a0)
  401424:	27bdffe0 	addiu	sp,sp,-32
  401428:	afb20018 	sw	s2,24(sp)
  40142c:	0045102b 	sltu	v0,v0,a1
  401430:	afb10014 	sw	s1,20(sp)
  401434:	afb00010 	sw	s0,16(sp)
  401438:	afbf001c 	sw	ra,28(sp)
  40143c:	00808021 	move	s0,a0
  401440:	00a09021 	move	s2,a1
  401444:	10400007 	beqz	v0,401464 <__slbexpand+0x44>
  401448:	00008821 	move	s1,zero
  40144c:	0c1020e7 	jal	40839c <realloc>
  401450:	8c840044 	lw	a0,68(a0)
  401454:	50400003 	beqzl	v0,401464 <__slbexpand+0x44>
  401458:	2411ffff 	li	s1,-1
  40145c:	ae020044 	sw	v0,68(s0)
  401460:	ae120048 	sw	s2,72(s0)
  401464:	8fbf001c 	lw	ra,28(sp)
  401468:	02201021 	move	v0,s1
  40146c:	8fb20018 	lw	s2,24(sp)
  401470:	8fb10014 	lw	s1,20(sp)
  401474:	8fb00010 	lw	s0,16(sp)
  401478:	03e00008 	jr	ra
  40147c:	27bd0020 	addiu	sp,sp,32

00401480 <fgetln>:
  401480:	8c820004 	lw	v0,4(a0)
  401484:	27bdffd0 	addiu	sp,sp,-48
  401488:	afb2001c 	sw	s2,28(sp)
  40148c:	afb00014 	sw	s0,20(sp)
  401490:	afbf002c 	sw	ra,44(sp)
  401494:	afb50028 	sw	s5,40(sp)
  401498:	afb40024 	sw	s4,36(sp)
  40149c:	afb30020 	sw	s3,32(sp)
  4014a0:	afb10018 	sw	s1,24(sp)
  4014a4:	00808021 	move	s0,a0
  4014a8:	1c400005 	bgtz	v0,4014c0 <fgetln+0x40>
  4014ac:	00a09021 	move	s2,a1
  4014b0:	0c100795 	jal	401e54 <__srefill>
  4014b4:	00000000 	nop
  4014b8:	54400040 	bnezl	v0,4015bc <fgetln+0x13c>
  4014bc:	ae400000 	sw	zero,0(s2)
  4014c0:	8e130000 	lw	s3,0(s0)
  4014c4:	8e110004 	lw	s1,4(s0)
  4014c8:	2405000a 	li	a1,10
  4014cc:	02602021 	move	a0,s3
  4014d0:	0c101bb9 	jal	406ee4 <memchr>
  4014d4:	02203021 	move	a2,s1
  4014d8:	1040000c 	beqz	v0,40150c <fgetln+0x8c>
  4014dc:	24420001 	addiu	v0,v0,1
  4014e0:	9604000c 	lhu	a0,12(s0)
  4014e4:	00531823 	subu	v1,v0,s3
  4014e8:	ae430000 	sw	v1,0(s2)
  4014ec:	34842000 	ori	a0,a0,0x2000
  4014f0:	a604000c 	sh	a0,12(s0)
  4014f4:	8e040004 	lw	a0,4(s0)
  4014f8:	ae020000 	sw	v0,0(s0)
  4014fc:	02601021 	move	v0,s3
  401500:	00831823 	subu	v1,a0,v1
  401504:	08100570 	j	4015c0 <fgetln+0x140>
  401508:	ae030004 	sw	v1,4(s0)
  40150c:	00009821 	move	s3,zero
  401510:	02002021 	move	a0,s0
  401514:	0c100508 	jal	401420 <__slbexpand>
  401518:	26250050 	addiu	a1,s1,80
  40151c:	14400026 	bnez	v0,4015b8 <fgetln+0x138>
  401520:	02333023 	subu	a2,s1,s3
  401524:	8e040044 	lw	a0,68(s0)
  401528:	8e050000 	lw	a1,0(s0)
  40152c:	0c102214 	jal	408850 <memcpy>
  401530:	00932021 	addu	a0,a0,s3
  401534:	0c100795 	jal	401e54 <__srefill>
  401538:	02002021 	move	a0,s0
  40153c:	1440001b 	bnez	v0,4015ac <fgetln+0x12c>
  401540:	2405000a 	li	a1,10
  401544:	8e130000 	lw	s3,0(s0)
  401548:	8e140004 	lw	s4,4(s0)
  40154c:	02602021 	move	a0,s3
  401550:	0c101bb9 	jal	406ee4 <memchr>
  401554:	02803021 	move	a2,s4
  401558:	14400004 	bnez	v0,40156c <fgetln+0xec>
  40155c:	24550001 	addiu	s5,v0,1
  401560:	02209821 	move	s3,s1
  401564:	08100544 	j	401510 <fgetln+0x90>
  401568:	02348821 	addu	s1,s1,s4
  40156c:	02b39823 	subu	s3,s5,s3
  401570:	0271a021 	addu	s4,s3,s1
  401574:	02002021 	move	a0,s0
  401578:	0c100508 	jal	401420 <__slbexpand>
  40157c:	02802821 	move	a1,s4
  401580:	1440000d 	bnez	v0,4015b8 <fgetln+0x138>
  401584:	02603021 	move	a2,s3
  401588:	8e040044 	lw	a0,68(s0)
  40158c:	8e050000 	lw	a1,0(s0)
  401590:	0c102214 	jal	408850 <memcpy>
  401594:	00912021 	addu	a0,a0,s1
  401598:	8e020004 	lw	v0,4(s0)
  40159c:	ae150000 	sw	s5,0(s0)
  4015a0:	02808821 	move	s1,s4
  4015a4:	00539823 	subu	s3,v0,s3
  4015a8:	ae130004 	sw	s3,4(s0)
  4015ac:	ae510000 	sw	s1,0(s2)
  4015b0:	08100570 	j	4015c0 <fgetln+0x140>
  4015b4:	8e020044 	lw	v0,68(s0)
  4015b8:	ae400000 	sw	zero,0(s2)
  4015bc:	00001021 	move	v0,zero
  4015c0:	8fbf002c 	lw	ra,44(sp)
  4015c4:	8fb50028 	lw	s5,40(sp)
  4015c8:	8fb40024 	lw	s4,36(sp)
  4015cc:	8fb30020 	lw	s3,32(sp)
  4015d0:	8fb2001c 	lw	s2,28(sp)
  4015d4:	8fb10018 	lw	s1,24(sp)
  4015d8:	8fb00014 	lw	s0,20(sp)
  4015dc:	03e00008 	jr	ra
  4015e0:	27bd0030 	addiu	sp,sp,48

004015e4 <verr>:
  4015e4:	27bdffd8 	addiu	sp,sp,-40
  4015e8:	afb40020 	sw	s4,32(sp)
  4015ec:	00c0a021 	move	s4,a2
  4015f0:	8f868010 	lw	a2,-32752(gp)
  4015f4:	afb10014 	sw	s1,20(sp)
  4015f8:	afb00010 	sw	s0,16(sp)
  4015fc:	00a08821 	move	s1,a1
  401600:	3c100041 	lui	s0,0x41
  401604:	3c050041 	lui	a1,0x41
  401608:	afb20018 	sw	s2,24(sp)
  40160c:	24a5ac00 	addiu	a1,a1,-21504
  401610:	00809021 	move	s2,a0
  401614:	2604c0f8 	addiu	a0,s0,-16136
  401618:	afb3001c 	sw	s3,28(sp)
  40161c:	afbf0024 	sw	ra,36(sp)
  401620:	0c10083e 	jal	4020f8 <fprintf>
  401624:	8f938ee8 	lw	s3,-28952(gp)
  401628:	12200008 	beqz	s1,40164c <verr+0x68>
  40162c:	02202821 	move	a1,s1
  401630:	2604c0f8 	addiu	a0,s0,-16136
  401634:	0c10089a 	jal	402268 <vfprintf>
  401638:	02803021 	move	a2,s4
  40163c:	3c040041 	lui	a0,0x41
  401640:	2484ac08 	addiu	a0,a0,-21496
  401644:	0c10082b 	jal	4020ac <fputs>
  401648:	2605c0f8 	addiu	a1,s0,-16136
  40164c:	0c10069d 	jal	401a74 <strerror>
  401650:	02602021 	move	a0,s3
  401654:	3c050041 	lui	a1,0x41
  401658:	2604c0f8 	addiu	a0,s0,-16136
  40165c:	24a5ac0c 	addiu	a1,a1,-21492
  401660:	0c10083e 	jal	4020f8 <fprintf>
  401664:	00403021 	move	a2,v0
  401668:	0c101c27 	jal	40709c <exit>
  40166c:	02402021 	move	a0,s2

00401670 <err>:
  401670:	27bdffe8 	addiu	sp,sp,-24
  401674:	afa60020 	sw	a2,32(sp)
  401678:	27a60020 	addiu	a2,sp,32
  40167c:	afbf0014 	sw	ra,20(sp)
  401680:	afa70024 	sw	a3,36(sp)
  401684:	0c100579 	jal	4015e4 <verr>
  401688:	afa5001c 	sw	a1,28(sp)

0040168c <verrx>:
  40168c:	27bdffd8 	addiu	sp,sp,-40
  401690:	afb30020 	sw	s3,32(sp)
  401694:	00c09821 	move	s3,a2
  401698:	8f868010 	lw	a2,-32752(gp)
  40169c:	afb10018 	sw	s1,24(sp)
  4016a0:	afb00014 	sw	s0,20(sp)
  4016a4:	00a08821 	move	s1,a1
  4016a8:	3c100041 	lui	s0,0x41
  4016ac:	3c050041 	lui	a1,0x41
  4016b0:	afb2001c 	sw	s2,28(sp)
  4016b4:	24a5ac00 	addiu	a1,a1,-21504
  4016b8:	00809021 	move	s2,a0
  4016bc:	afbf0024 	sw	ra,36(sp)
  4016c0:	0c10083e 	jal	4020f8 <fprintf>
  4016c4:	2604c0f8 	addiu	a0,s0,-16136
  4016c8:	12200004 	beqz	s1,4016dc <verrx+0x50>
  4016cc:	02202821 	move	a1,s1
  4016d0:	2604c0f8 	addiu	a0,s0,-16136
  4016d4:	0c10089a 	jal	402268 <vfprintf>
  4016d8:	02603021 	move	a2,s3
  4016dc:	2404000a 	li	a0,10
  4016e0:	0c100621 	jal	401884 <fputc>
  4016e4:	2605c0f8 	addiu	a1,s0,-16136
  4016e8:	0c101c27 	jal	40709c <exit>
  4016ec:	02402021 	move	a0,s2

004016f0 <errx>:
  4016f0:	27bdffe8 	addiu	sp,sp,-24
  4016f4:	afa60020 	sw	a2,32(sp)
  4016f8:	27a60020 	addiu	a2,sp,32
  4016fc:	afbf0014 	sw	ra,20(sp)
  401700:	afa70024 	sw	a3,36(sp)
  401704:	0c1005a3 	jal	40168c <verrx>
  401708:	afa5001c 	sw	a1,28(sp)

0040170c <vwarn>:
  40170c:	27bdffd8 	addiu	sp,sp,-40
  401710:	8f868010 	lw	a2,-32752(gp)
  401714:	afb30020 	sw	s3,32(sp)
  401718:	afb00014 	sw	s0,20(sp)
  40171c:	00a09821 	move	s3,a1
  401720:	3c100041 	lui	s0,0x41
  401724:	3c050041 	lui	a1,0x41
  401728:	afb10018 	sw	s1,24(sp)
  40172c:	24a5ac00 	addiu	a1,a1,-21504
  401730:	00808821 	move	s1,a0
  401734:	2604c0f8 	addiu	a0,s0,-16136
  401738:	afb2001c 	sw	s2,28(sp)
  40173c:	afbf0024 	sw	ra,36(sp)
  401740:	0c10083e 	jal	4020f8 <fprintf>
  401744:	8f928ee8 	lw	s2,-28952(gp)
  401748:	12200008 	beqz	s1,40176c <vwarn+0x60>
  40174c:	2604c0f8 	addiu	a0,s0,-16136
  401750:	02202821 	move	a1,s1
  401754:	0c10089a 	jal	402268 <vfprintf>
  401758:	02603021 	move	a2,s3
  40175c:	3c040041 	lui	a0,0x41
  401760:	2484ac08 	addiu	a0,a0,-21496
  401764:	0c10082b 	jal	4020ac <fputs>
  401768:	2605c0f8 	addiu	a1,s0,-16136
  40176c:	0c10069d 	jal	401a74 <strerror>
  401770:	02402021 	move	a0,s2
  401774:	8fbf0024 	lw	ra,36(sp)
  401778:	8fb30020 	lw	s3,32(sp)
  40177c:	8fb2001c 	lw	s2,28(sp)
  401780:	8fb10018 	lw	s1,24(sp)
  401784:	2604c0f8 	addiu	a0,s0,-16136
  401788:	8fb00014 	lw	s0,20(sp)
  40178c:	3c050041 	lui	a1,0x41
  401790:	24a5ac0c 	addiu	a1,a1,-21492
  401794:	00403021 	move	a2,v0
  401798:	0810083e 	j	4020f8 <fprintf>
  40179c:	27bd0028 	addiu	sp,sp,40

004017a0 <warn>:
  4017a0:	27bdffe8 	addiu	sp,sp,-24
  4017a4:	afa5001c 	sw	a1,28(sp)
  4017a8:	27a5001c 	addiu	a1,sp,28
  4017ac:	afbf0014 	sw	ra,20(sp)
  4017b0:	afa60020 	sw	a2,32(sp)
  4017b4:	afa70024 	sw	a3,36(sp)
  4017b8:	0c1005c3 	jal	40170c <vwarn>
  4017bc:	afa40018 	sw	a0,24(sp)
  4017c0:	8fbf0014 	lw	ra,20(sp)
  4017c4:	03e00008 	jr	ra
  4017c8:	27bd0018 	addiu	sp,sp,24

004017cc <vwarnx>:
  4017cc:	27bdffe0 	addiu	sp,sp,-32
  4017d0:	8f868010 	lw	a2,-32752(gp)
  4017d4:	afb20018 	sw	s2,24(sp)
  4017d8:	afb00010 	sw	s0,16(sp)
  4017dc:	00a09021 	move	s2,a1
  4017e0:	3c100041 	lui	s0,0x41
  4017e4:	3c050041 	lui	a1,0x41
  4017e8:	afb10014 	sw	s1,20(sp)
  4017ec:	24a5ac00 	addiu	a1,a1,-21504
  4017f0:	00808821 	move	s1,a0
  4017f4:	afbf001c 	sw	ra,28(sp)
  4017f8:	0c10083e 	jal	4020f8 <fprintf>
  4017fc:	2604c0f8 	addiu	a0,s0,-16136
  401800:	12200004 	beqz	s1,401814 <vwarnx+0x48>
  401804:	2604c0f8 	addiu	a0,s0,-16136
  401808:	02202821 	move	a1,s1
  40180c:	0c10089a 	jal	402268 <vfprintf>
  401810:	02403021 	move	a2,s2
  401814:	8fbf001c 	lw	ra,28(sp)
  401818:	8fb20018 	lw	s2,24(sp)
  40181c:	8fb10014 	lw	s1,20(sp)
  401820:	2605c0f8 	addiu	a1,s0,-16136
  401824:	8fb00010 	lw	s0,16(sp)
  401828:	2404000a 	li	a0,10
  40182c:	08100621 	j	401884 <fputc>
  401830:	27bd0020 	addiu	sp,sp,32

00401834 <warnx>:
  401834:	27bdffe8 	addiu	sp,sp,-24
  401838:	afa5001c 	sw	a1,28(sp)
  40183c:	27a5001c 	addiu	a1,sp,28
  401840:	afbf0014 	sw	ra,20(sp)
  401844:	afa60020 	sw	a2,32(sp)
  401848:	afa70024 	sw	a3,36(sp)
  40184c:	0c1005f3 	jal	4017cc <vwarnx>
  401850:	afa40018 	sw	a0,24(sp)
  401854:	8fbf0014 	lw	ra,20(sp)
  401858:	03e00008 	jr	ra
  40185c:	27bd0018 	addiu	sp,sp,24

00401860 <strrchr>:
  401860:	00001021 	move	v0,zero
  401864:	90830000 	lbu	v1,0(a0)
  401868:	00653026 	xor	a2,v1,a1
  40186c:	10600003 	beqz	v1,40187c <strrchr+0x1c>
  401870:	0086100a 	movz	v0,a0,a2
  401874:	08100619 	j	401864 <strrchr+0x4>
  401878:	24840001 	addiu	a0,a0,1
  40187c:	03e00008 	jr	ra
  401880:	00000000 	nop

00401884 <fputc>:
  401884:	8ca20008 	lw	v0,8(a1)
  401888:	2442ffff 	addiu	v0,v0,-1
  40188c:	04410008 	bgez	v0,4018b0 <fputc+0x2c>
  401890:	aca20008 	sw	v0,8(a1)
  401894:	8ca30018 	lw	v1,24(a1)
  401898:	0043102a 	slt	v0,v0,v1
  40189c:	1440000a 	bnez	v0,4018c8 <fputc+0x44>
  4018a0:	308300ff 	andi	v1,a0,0xff
  4018a4:	2402000a 	li	v0,10
  4018a8:	10620007 	beq	v1,v0,4018c8 <fputc+0x44>
  4018ac:	00000000 	nop
  4018b0:	8ca20000 	lw	v0,0(a1)
  4018b4:	24430001 	addiu	v1,v0,1
  4018b8:	aca30000 	sw	v1,0(a1)
  4018bc:	a0440000 	sb	a0,0(v0)
  4018c0:	03e00008 	jr	ra
  4018c4:	308200ff 	andi	v0,a0,0xff
  4018c8:	0810064b 	j	40192c <__swbuf>
  4018cc:	00000000 	nop

004018d0 <strdup>:
  4018d0:	27bdffe0 	addiu	sp,sp,-32
  4018d4:	afbf001c 	sw	ra,28(sp)
  4018d8:	afb20018 	sw	s2,24(sp)
  4018dc:	afb10014 	sw	s1,20(sp)
  4018e0:	afb00010 	sw	s0,16(sp)
  4018e4:	0c100e71 	jal	4039c4 <strlen>
  4018e8:	00809021 	move	s2,a0
  4018ec:	24510001 	addiu	s1,v0,1
  4018f0:	0c102069 	jal	4081a4 <malloc>
  4018f4:	02202021 	move	a0,s1
  4018f8:	10400005 	beqz	v0,401910 <strdup+0x40>
  4018fc:	00408021 	move	s0,v0
  401900:	02402021 	move	a0,s2
  401904:	00402821 	move	a1,v0
  401908:	0c10217b 	jal	4085ec <bcopy>
  40190c:	02203021 	move	a2,s1
  401910:	8fbf001c 	lw	ra,28(sp)
  401914:	02001021 	move	v0,s0
  401918:	8fb20018 	lw	s2,24(sp)
  40191c:	8fb10014 	lw	s1,20(sp)
  401920:	8fb00010 	lw	s0,16(sp)
  401924:	03e00008 	jr	ra
  401928:	27bd0020 	addiu	sp,sp,32

0040192c <__swbuf>:
  40192c:	8ca20018 	lw	v0,24(a1)
  401930:	27bdffe0 	addiu	sp,sp,-32
  401934:	afb10018 	sw	s1,24(sp)
  401938:	aca20008 	sw	v0,8(a1)
  40193c:	94a2000c 	lhu	v0,12(a1)
  401940:	afb00014 	sw	s0,20(sp)
  401944:	afbf001c 	sw	ra,28(sp)
  401948:	30420008 	andi	v0,v0,0x8
  40194c:	00808821 	move	s1,a0
  401950:	1040000d 	beqz	v0,401988 <__swbuf+0x5c>
  401954:	00a08021 	move	s0,a1
  401958:	8ca20010 	lw	v0,16(a1)
  40195c:	1040000a 	beqz	v0,401988 <__swbuf+0x5c>
  401960:	00000000 	nop
  401964:	8e030000 	lw	v1,0(s0)
  401968:	8e020010 	lw	v0,16(s0)
  40196c:	00621023 	subu	v0,v1,v0
  401970:	8e030014 	lw	v1,20(s0)
  401974:	0043182a 	slt	v1,v0,v1
  401978:	1460000d 	bnez	v1,4019b0 <__swbuf+0x84>
  40197c:	323100ff 	andi	s1,s1,0xff
  401980:	08100668 	j	4019a0 <__swbuf+0x74>
  401984:	00000000 	nop
  401988:	0c101b7e 	jal	406df8 <__swsetup>
  40198c:	02002021 	move	a0,s0
  401990:	5040fff5 	beqzl	v0,401968 <__swbuf+0x3c>
  401994:	8e030000 	lw	v1,0(s0)
  401998:	08100683 	j	401a0c <__swbuf+0xe0>
  40199c:	2402ffff 	li	v0,-1
  4019a0:	0c101e36 	jal	4078d8 <fflush>
  4019a4:	02002021 	move	a0,s0
  4019a8:	54400018 	bnezl	v0,401a0c <__swbuf+0xe0>
  4019ac:	2402ffff 	li	v0,-1
  4019b0:	8e030008 	lw	v1,8(s0)
  4019b4:	24420001 	addiu	v0,v0,1
  4019b8:	2463ffff 	addiu	v1,v1,-1
  4019bc:	ae030008 	sw	v1,8(s0)
  4019c0:	8e030000 	lw	v1,0(s0)
  4019c4:	24640001 	addiu	a0,v1,1
  4019c8:	ae040000 	sw	a0,0(s0)
  4019cc:	a0710000 	sb	s1,0(v1)
  4019d0:	8e030014 	lw	v1,20(s0)
  4019d4:	10430008 	beq	v0,v1,4019f8 <__swbuf+0xcc>
  4019d8:	00000000 	nop
  4019dc:	9603000c 	lhu	v1,12(s0)
  4019e0:	30630001 	andi	v1,v1,0x1
  4019e4:	10600009 	beqz	v1,401a0c <__swbuf+0xe0>
  4019e8:	02201021 	move	v0,s1
  4019ec:	2403000a 	li	v1,10
  4019f0:	16230007 	bne	s1,v1,401a10 <__swbuf+0xe4>
  4019f4:	8fbf001c 	lw	ra,28(sp)
  4019f8:	0c101e36 	jal	4078d8 <fflush>
  4019fc:	02002021 	move	a0,s0
  401a00:	14400002 	bnez	v0,401a0c <__swbuf+0xe0>
  401a04:	2402ffff 	li	v0,-1
  401a08:	02201021 	move	v0,s1
  401a0c:	8fbf001c 	lw	ra,28(sp)
  401a10:	8fb10018 	lw	s1,24(sp)
  401a14:	8fb00014 	lw	s0,20(sp)
  401a18:	03e00008 	jr	ra
  401a1c:	27bd0020 	addiu	sp,sp,32

00401a20 <strsep>:
  401a20:	8c820000 	lw	v0,0(a0)
  401a24:	10400011 	beqz	v0,401a6c <strsep+0x4c>
  401a28:	00403021 	move	a2,v0
  401a2c:	24c30001 	addiu	v1,a2,1
  401a30:	9069ffff 	lbu	t1,-1(v1)
  401a34:	00a03821 	move	a3,a1
  401a38:	24e70001 	addiu	a3,a3,1
  401a3c:	90e8ffff 	lbu	t0,-1(a3)
  401a40:	15090006 	bne	t0,t1,401a5c <strsep+0x3c>
  401a44:	00000000 	nop
  401a48:	51200002 	beqzl	t1,401a54 <strsep+0x34>
  401a4c:	00001821 	move	v1,zero
  401a50:	a0c00000 	sb	zero,0(a2)
  401a54:	03e00008 	jr	ra
  401a58:	ac830000 	sw	v1,0(a0)
  401a5c:	1500fff7 	bnez	t0,401a3c <strsep+0x1c>
  401a60:	24e70001 	addiu	a3,a3,1
  401a64:	0810068b 	j	401a2c <strsep+0xc>
  401a68:	00603021 	move	a2,v1
  401a6c:	03e00008 	jr	ra
  401a70:	00001021 	move	v0,zero

00401a74 <strerror>:
  401a74:	8f858024 	lw	a1,-32732(gp)
  401a78:	0085282b 	sltu	a1,a0,a1
  401a7c:	10a00007 	beqz	a1,401a9c <strerror+0x28>
  401a80:	27bdffd8 	addiu	sp,sp,-40
  401a84:	3c020041 	lui	v0,0x41
  401a88:	2442b3b8 	addiu	v0,v0,-19528
  401a8c:	00042080 	sll	a0,a0,0x2
  401a90:	00822021 	addu	a0,a0,v0
  401a94:	081006c0 	j	401b00 <strerror+0x8c>
  401a98:	8c820000 	lw	v0,0(a0)
  401a9c:	3c060041 	lui	a2,0x41
  401aa0:	00801821 	move	v1,a0
  401aa4:	03a01021 	move	v0,sp
  401aa8:	2404000a 	li	a0,10
  401aac:	24c6ac10 	addiu	a2,a2,-21488
  401ab0:	0064001b 	divu	zero,v1,a0
  401ab4:	008001f4 	teq	a0,zero,0x7
  401ab8:	24420001 	addiu	v0,v0,1
  401abc:	00002810 	mfhi	a1
  401ac0:	00a62821 	addu	a1,a1,a2
  401ac4:	90a50000 	lbu	a1,0(a1)
  401ac8:	00001812 	mflo	v1
  401acc:	1460fff8 	bnez	v1,401ab0 <strerror+0x3c>
  401ad0:	a045ffff 	sb	a1,-1(v0)
  401ad4:	3c030041 	lui	v1,0x41
  401ad8:	2463c00f 	addiu	v1,v1,-16369
  401adc:	2442ffff 	addiu	v0,v0,-1
  401ae0:	90440000 	lbu	a0,0(v0)
  401ae4:	24630001 	addiu	v1,v1,1
  401ae8:	a064ffff 	sb	a0,-1(v1)
  401aec:	03a2202b 	sltu	a0,sp,v0
  401af0:	1480fffb 	bnez	a0,401ae0 <strerror+0x6c>
  401af4:	2442ffff 	addiu	v0,v0,-1
  401af8:	3c020041 	lui	v0,0x41
  401afc:	2442c000 	addiu	v0,v0,-16384
  401b00:	03e00008 	jr	ra
  401b04:	27bd0028 	addiu	sp,sp,40

00401b08 <strcpy>:
  401b08:	00801021 	move	v0,a0
  401b0c:	00801821 	move	v1,a0
  401b10:	90a40000 	lbu	a0,0(a1)
  401b14:	10800004 	beqz	a0,401b28 <strcpy+0x20>
  401b18:	a0640000 	sb	a0,0(v1)
  401b1c:	24a50001 	addiu	a1,a1,1
  401b20:	081006c4 	j	401b10 <strcpy+0x8>
  401b24:	24630001 	addiu	v1,v1,1
  401b28:	03e00008 	jr	ra
  401b2c:	00000000 	nop

00401b30 <strchr>:
  401b30:	30a500ff 	andi	a1,a1,0xff
  401b34:	90820000 	lbu	v0,0(a0)
  401b38:	10450005 	beq	v0,a1,401b50 <strchr+0x20>
  401b3c:	00000000 	nop
  401b40:	10400005 	beqz	v0,401b58 <strchr+0x28>
  401b44:	24840001 	addiu	a0,a0,1
  401b48:	081006ce 	j	401b38 <strchr+0x8>
  401b4c:	90820000 	lbu	v0,0(a0)
  401b50:	03e00008 	jr	ra
  401b54:	00801021 	move	v0,a0
  401b58:	03e00008 	jr	ra
  401b5c:	00001021 	move	v0,zero

00401b60 <snprintf>:
  401b60:	27bdff90 	addiu	sp,sp,-112
  401b64:	afbf006c 	sw	ra,108(sp)
  401b68:	afa7007c 	sw	a3,124(sp)
  401b6c:	18a0000f 	blez	a1,401bac <snprintf+0x4c>
  401b70:	afa60078 	sw	a2,120(sp)
  401b74:	24a5ffff 	addiu	a1,a1,-1
  401b78:	24020208 	li	v0,520
  401b7c:	afa40010 	sw	a0,16(sp)
  401b80:	afa40020 	sw	a0,32(sp)
  401b84:	afa50018 	sw	a1,24(sp)
  401b88:	afa50024 	sw	a1,36(sp)
  401b8c:	27a40010 	addiu	a0,sp,16
  401b90:	00c02821 	move	a1,a2
  401b94:	27a6007c 	addiu	a2,sp,124
  401b98:	0c10089a 	jal	402268 <vfprintf>
  401b9c:	a7a2001c 	sh	v0,28(sp)
  401ba0:	8fa30010 	lw	v1,16(sp)
  401ba4:	081006ec 	j	401bb0 <snprintf+0x50>
  401ba8:	a0600000 	sb	zero,0(v1)
  401bac:	2402ffff 	li	v0,-1
  401bb0:	8fbf006c 	lw	ra,108(sp)
  401bb4:	03e00008 	jr	ra
  401bb8:	27bd0070 	addiu	sp,sp,112

00401bbc <fopen>:
  401bbc:	27bdffd0 	addiu	sp,sp,-48
  401bc0:	afb20028 	sw	s2,40(sp)
  401bc4:	00809021 	move	s2,a0
  401bc8:	00a02021 	move	a0,a1
  401bcc:	27a50018 	addiu	a1,sp,24
  401bd0:	afb10024 	sw	s1,36(sp)
  401bd4:	afbf002c 	sw	ra,44(sp)
  401bd8:	0c10076e 	jal	401db8 <__sflags>
  401bdc:	afb00020 	sw	s0,32(sp)
  401be0:	1040000c 	beqz	v0,401c14 <fopen+0x58>
  401be4:	00408821 	move	s1,v0
  401be8:	0c101d02 	jal	407408 <__sfp>
  401bec:	00000000 	nop
  401bf0:	10400008 	beqz	v0,401c14 <fopen+0x58>
  401bf4:	00408021 	move	s0,v0
  401bf8:	8fa50018 	lw	a1,24(sp)
  401bfc:	02402021 	move	a0,s2
  401c00:	0c101f12 	jal	407c48 <open>
  401c04:	240601b6 	li	a2,438
  401c08:	04430004 	bgezl	v0,401c1c <fopen+0x60>
  401c0c:	a602000e 	sh	v0,14(s0)
  401c10:	a600000c 	sh	zero,12(s0)
  401c14:	0810071e 	j	401c78 <fopen+0xbc>
  401c18:	00008021 	move	s0,zero
  401c1c:	3c020040 	lui	v0,0x40
  401c20:	2442790c 	addiu	v0,v0,30988
  401c24:	ae020024 	sw	v0,36(s0)
  401c28:	3c020040 	lui	v0,0x40
  401c2c:	24427970 	addiu	v0,v0,31088
  401c30:	ae02002c 	sw	v0,44(s0)
  401c34:	3c020040 	lui	v0,0x40
  401c38:	244279dc 	addiu	v0,v0,31196
  401c3c:	ae020028 	sw	v0,40(s0)
  401c40:	3c020040 	lui	v0,0x40
  401c44:	24427a40 	addiu	v0,v0,31296
  401c48:	ae020020 	sw	v0,32(s0)
  401c4c:	8fa20018 	lw	v0,24(sp)
  401c50:	a611000c 	sh	s1,12(s0)
  401c54:	30420008 	andi	v0,v0,0x8
  401c58:	10400007 	beqz	v0,401c78 <fopen+0xbc>
  401c5c:	ae10001c 	sw	s0,28(s0)
  401c60:	24020002 	li	v0,2
  401c64:	afa20010 	sw	v0,16(sp)
  401c68:	02002021 	move	a0,s0
  401c6c:	00003021 	move	a2,zero
  401c70:	0c101e77 	jal	4079dc <__sseek>
  401c74:	00003821 	move	a3,zero
  401c78:	8fbf002c 	lw	ra,44(sp)
  401c7c:	02001021 	move	v0,s0
  401c80:	8fb20028 	lw	s2,40(sp)
  401c84:	8fb10024 	lw	s1,36(sp)
  401c88:	8fb00020 	lw	s0,32(sp)
  401c8c:	03e00008 	jr	ra
  401c90:	27bd0030 	addiu	sp,sp,48

00401c94 <fclose>:
  401c94:	8482000c 	lh	v0,12(a0)
  401c98:	27bdffe0 	addiu	sp,sp,-32
  401c9c:	afb00014 	sw	s0,20(sp)
  401ca0:	afbf001c 	sw	ra,28(sp)
  401ca4:	afb10018 	sw	s1,24(sp)
  401ca8:	14400005 	bnez	v0,401cc0 <fclose+0x2c>
  401cac:	00808021 	move	s0,a0
  401cb0:	24020009 	li	v0,9
  401cb4:	af828ee8 	sw	v0,-28952(gp)
  401cb8:	08100756 	j	401d58 <fclose+0xc4>
  401cbc:	2402ffff 	li	v0,-1
  401cc0:	30420008 	andi	v0,v0,0x8
  401cc4:	10400004 	beqz	v0,401cd8 <fclose+0x44>
  401cc8:	00008821 	move	s1,zero
  401ccc:	0c101e0c 	jal	407830 <__sflush>
  401cd0:	00000000 	nop
  401cd4:	00408821 	move	s1,v0
  401cd8:	8e020020 	lw	v0,32(s0)
  401cdc:	50400007 	beqzl	v0,401cfc <fclose+0x68>
  401ce0:	9602000c 	lhu	v0,12(s0)
  401ce4:	0040f809 	jalr	v0
  401ce8:	8e04001c 	lw	a0,28(s0)
  401cec:	28420000 	slti	v0,v0,0
  401cf0:	2403ffff 	li	v1,-1
  401cf4:	0062880b 	movn	s1,v1,v0
  401cf8:	9602000c 	lhu	v0,12(s0)
  401cfc:	30420080 	andi	v0,v0,0x80
  401d00:	50400004 	beqzl	v0,401d14 <fclose+0x80>
  401d04:	8e040030 	lw	a0,48(s0)
  401d08:	0c1020d8 	jal	408360 <free>
  401d0c:	8e040010 	lw	a0,16(s0)
  401d10:	8e040030 	lw	a0,48(s0)
  401d14:	10800006 	beqz	a0,401d30 <fclose+0x9c>
  401d18:	26020040 	addiu	v0,s0,64
  401d1c:	50820004 	beql	a0,v0,401d30 <fclose+0x9c>
  401d20:	ae000030 	sw	zero,48(s0)
  401d24:	0c1020d8 	jal	408360 <free>
  401d28:	00000000 	nop
  401d2c:	ae000030 	sw	zero,48(s0)
  401d30:	8e040044 	lw	a0,68(s0)
  401d34:	50800005 	beqzl	a0,401d4c <fclose+0xb8>
  401d38:	a600000c 	sh	zero,12(s0)
  401d3c:	0c1020d8 	jal	408360 <free>
  401d40:	00000000 	nop
  401d44:	ae000044 	sw	zero,68(s0)
  401d48:	a600000c 	sh	zero,12(s0)
  401d4c:	ae000008 	sw	zero,8(s0)
  401d50:	ae000004 	sw	zero,4(s0)
  401d54:	02201021 	move	v0,s1
  401d58:	8fbf001c 	lw	ra,28(sp)
  401d5c:	8fb10018 	lw	s1,24(sp)
  401d60:	8fb00014 	lw	s0,20(sp)
  401d64:	03e00008 	jr	ra
  401d68:	27bd0020 	addiu	sp,sp,32

00401d6c <strncmp>:
  401d6c:	10c00010 	beqz	a2,401db0 <strncmp+0x44>
  401d70:	00001021 	move	v0,zero
  401d74:	00001821 	move	v1,zero
  401d78:	00831021 	addu	v0,a0,v1
  401d7c:	00a33821 	addu	a3,a1,v1
  401d80:	90420000 	lbu	v0,0(v0)
  401d84:	90e70000 	lbu	a3,0(a3)
  401d88:	10470003 	beq	v0,a3,401d98 <strncmp+0x2c>
  401d8c:	00000000 	nop
  401d90:	03e00008 	jr	ra
  401d94:	00471023 	subu	v0,v0,a3
  401d98:	10400005 	beqz	v0,401db0 <strncmp+0x44>
  401d9c:	00001021 	move	v0,zero
  401da0:	24630001 	addiu	v1,v1,1
  401da4:	54c3fff5 	bnel	a2,v1,401d7c <strncmp+0x10>
  401da8:	00831021 	addu	v0,a0,v1
  401dac:	00001021 	move	v0,zero
  401db0:	03e00008 	jr	ra
  401db4:	00000000 	nop

00401db8 <__sflags>:
  401db8:	90820000 	lbu	v0,0(a0)
  401dbc:	24030072 	li	v1,114
  401dc0:	1043000a 	beq	v0,v1,401dec <__sflags+0x34>
  401dc4:	00003021 	move	a2,zero
  401dc8:	24030077 	li	v1,119
  401dcc:	1043000a 	beq	v0,v1,401df8 <__sflags+0x40>
  401dd0:	24030061 	li	v1,97
  401dd4:	10430009 	beq	v0,v1,401dfc <__sflags+0x44>
  401dd8:	24060208 	li	a2,520
  401ddc:	24020016 	li	v0,22
  401de0:	af828ee8 	sw	v0,-28952(gp)
  401de4:	03e00008 	jr	ra
  401de8:	00001021 	move	v0,zero
  401dec:	00001821 	move	v1,zero
  401df0:	08100781 	j	401e04 <__sflags+0x4c>
  401df4:	24020004 	li	v0,4
  401df8:	24060600 	li	a2,1536
  401dfc:	24030001 	li	v1,1
  401e00:	24020008 	li	v0,8
  401e04:	90870001 	lbu	a3,1(a0)
  401e08:	2408002b 	li	t0,43
  401e0c:	10e8000a 	beq	a3,t0,401e38 <__sflags+0x80>
  401e10:	24080062 	li	t0,98
  401e14:	54e8000b 	bnel	a3,t0,401e44 <__sflags+0x8c>
  401e18:	00661825 	or	v1,v1,a2
  401e1c:	90840002 	lbu	a0,2(a0)
  401e20:	24070002 	li	a3,2
  401e24:	3884002b 	xori	a0,a0,0x2b
  401e28:	00e4180a 	movz	v1,a3,a0
  401e2c:	24070010 	li	a3,16
  401e30:	08100790 	j	401e40 <__sflags+0x88>
  401e34:	00e4100a 	movz	v0,a3,a0
  401e38:	24030002 	li	v1,2
  401e3c:	24020010 	li	v0,16
  401e40:	00661825 	or	v1,v1,a2
  401e44:	03e00008 	jr	ra
  401e48:	aca30000 	sw	v1,0(a1)

00401e4c <lflush>:
  401e4c:	08101e0c 	j	407830 <__sflush>
  401e50:	00000000 	nop

00401e54 <__srefill>:
  401e54:	8f828ef4 	lw	v0,-28940(gp)
  401e58:	27bdffe8 	addiu	sp,sp,-24
  401e5c:	afb00010 	sw	s0,16(sp)
  401e60:	afbf0014 	sw	ra,20(sp)
  401e64:	14400003 	bnez	v0,401e74 <__srefill+0x20>
  401e68:	00808021 	move	s0,a0
  401e6c:	0c101cfc 	jal	4073f0 <__sinit>
  401e70:	00000000 	nop
  401e74:	9602000c 	lhu	v0,12(s0)
  401e78:	30430020 	andi	v1,v0,0x20
  401e7c:	14600047 	bnez	v1,401f9c <__srefill+0x148>
  401e80:	ae000004 	sw	zero,4(s0)
  401e84:	30430004 	andi	v1,v0,0x4
  401e88:	54600016 	bnezl	v1,401ee4 <__srefill+0x90>
  401e8c:	8e040030 	lw	a0,48(s0)
  401e90:	30430010 	andi	v1,v0,0x10
  401e94:	14600004 	bnez	v1,401ea8 <__srefill+0x54>
  401e98:	30420008 	andi	v0,v0,0x8
  401e9c:	24020009 	li	v0,9
  401ea0:	081007e7 	j	401f9c <__srefill+0x148>
  401ea4:	af828ee8 	sw	v0,-28952(gp)
  401ea8:	5040000b 	beqzl	v0,401ed8 <__srefill+0x84>
  401eac:	9602000c 	lhu	v0,12(s0)
  401eb0:	0c101e0c 	jal	407830 <__sflush>
  401eb4:	02002021 	move	a0,s0
  401eb8:	14400039 	bnez	v0,401fa0 <__srefill+0x14c>
  401ebc:	2402ffff 	li	v0,-1
  401ec0:	9602000c 	lhu	v0,12(s0)
  401ec4:	ae000008 	sw	zero,8(s0)
  401ec8:	ae000018 	sw	zero,24(s0)
  401ecc:	3042fff7 	andi	v0,v0,0xfff7
  401ed0:	a602000c 	sh	v0,12(s0)
  401ed4:	9602000c 	lhu	v0,12(s0)
  401ed8:	34420004 	ori	v0,v0,0x4
  401edc:	081007c7 	j	401f1c <__srefill+0xc8>
  401ee0:	a602000c 	sh	v0,12(s0)
  401ee4:	1080000d 	beqz	a0,401f1c <__srefill+0xc8>
  401ee8:	26020040 	addiu	v0,s0,64
  401eec:	50820004 	beql	a0,v0,401f00 <__srefill+0xac>
  401ef0:	8e02003c 	lw	v0,60(s0)
  401ef4:	0c1020d8 	jal	408360 <free>
  401ef8:	00000000 	nop
  401efc:	8e02003c 	lw	v0,60(s0)
  401f00:	ae000030 	sw	zero,48(s0)
  401f04:	10400005 	beqz	v0,401f1c <__srefill+0xc8>
  401f08:	ae020004 	sw	v0,4(s0)
  401f0c:	8e020038 	lw	v0,56(s0)
  401f10:	ae020000 	sw	v0,0(s0)
  401f14:	081007e8 	j	401fa0 <__srefill+0x14c>
  401f18:	00001021 	move	v0,zero
  401f1c:	8e020010 	lw	v0,16(s0)
  401f20:	54400004 	bnezl	v0,401f34 <__srefill+0xe0>
  401f24:	9602000c 	lhu	v0,12(s0)
  401f28:	0c101c6e 	jal	4071b8 <__smakebuf>
  401f2c:	02002021 	move	a0,s0
  401f30:	9602000c 	lhu	v0,12(s0)
  401f34:	30420003 	andi	v0,v0,0x3
  401f38:	50400005 	beqzl	v0,401f50 <__srefill+0xfc>
  401f3c:	8e050010 	lw	a1,16(s0)
  401f40:	3c040040 	lui	a0,0x40
  401f44:	0c101eaa 	jal	407aa8 <_fwalk>
  401f48:	24841e4c 	addiu	a0,a0,7756
  401f4c:	8e050010 	lw	a1,16(s0)
  401f50:	8e04001c 	lw	a0,28(s0)
  401f54:	8e020024 	lw	v0,36(s0)
  401f58:	8e060014 	lw	a2,20(s0)
  401f5c:	0040f809 	jalr	v0
  401f60:	ae050000 	sw	a1,0(s0)
  401f64:	9603000c 	lhu	v1,12(s0)
  401f68:	00402021 	move	a0,v0
  401f6c:	ae020004 	sw	v0,4(s0)
  401f70:	3063dfff 	andi	v1,v1,0xdfff
  401f74:	7c031e20 	seh	v1,v1
  401f78:	a603000c 	sh	v1,12(s0)
  401f7c:	1c800008 	bgtz	a0,401fa0 <__srefill+0x14c>
  401f80:	00001021 	move	v0,zero
  401f84:	54800003 	bnezl	a0,401f94 <__srefill+0x140>
  401f88:	ae000004 	sw	zero,4(s0)
  401f8c:	081007e6 	j	401f98 <__srefill+0x144>
  401f90:	34630020 	ori	v1,v1,0x20
  401f94:	34630040 	ori	v1,v1,0x40
  401f98:	a603000c 	sh	v1,12(s0)
  401f9c:	2402ffff 	li	v0,-1
  401fa0:	8fbf0014 	lw	ra,20(sp)
  401fa4:	8fb00010 	lw	s0,16(sp)
  401fa8:	03e00008 	jr	ra
  401fac:	27bd0018 	addiu	sp,sp,24

00401fb0 <calloc>:
  401fb0:	27bdffe0 	addiu	sp,sp,-32
  401fb4:	afb10018 	sw	s1,24(sp)
  401fb8:	70a48802 	mul	s1,a1,a0
  401fbc:	afb00014 	sw	s0,20(sp)
  401fc0:	afbf001c 	sw	ra,28(sp)
  401fc4:	0c102069 	jal	4081a4 <malloc>
  401fc8:	02202021 	move	a0,s1
  401fcc:	10400005 	beqz	v0,401fe4 <calloc+0x34>
  401fd0:	00408021 	move	s0,v0
  401fd4:	00402021 	move	a0,v0
  401fd8:	00002821 	move	a1,zero
  401fdc:	0c1007ff 	jal	401ffc <memset>
  401fe0:	02203021 	move	a2,s1
  401fe4:	8fbf001c 	lw	ra,28(sp)
  401fe8:	02001021 	move	v0,s0
  401fec:	8fb10018 	lw	s1,24(sp)
  401ff0:	8fb00014 	lw	s0,20(sp)
  401ff4:	03e00008 	jr	ra
  401ff8:	27bd0020 	addiu	sp,sp,32

00401ffc <memset>:
  401ffc:	2cc3000c 	sltiu	v1,a2,12
  402000:	10600007 	beqz	v1,402020 <memset+0x24>
  402004:	00801021 	move	v0,a0
  402008:	00863021 	addu	a2,a0,a2
  40200c:	00801821 	move	v1,a0
  402010:	10660024 	beq	v1,a2,4020a4 <memset+0xa8>
  402014:	24630001 	addiu	v1,v1,1
  402018:	08100804 	j	402010 <memset+0x14>
  40201c:	a065ffff 	sb	a1,-1(v1)
  402020:	30a400ff 	andi	a0,a1,0xff
  402024:	10800006 	beqz	a0,402040 <memset+0x44>
  402028:	30430003 	andi	v1,v0,0x3
  40202c:	00041a00 	sll	v1,a0,0x8
  402030:	00642025 	or	a0,v1,a0
  402034:	00041c00 	sll	v1,a0,0x10
  402038:	00642025 	or	a0,v1,a0
  40203c:	30430003 	andi	v1,v0,0x3
  402040:	10600009 	beqz	v1,402068 <memset+0x6c>
  402044:	00403821 	move	a3,v0
  402048:	24070004 	li	a3,4
  40204c:	00e33823 	subu	a3,a3,v1
  402050:	00c73023 	subu	a2,a2,a3
  402054:	00401821 	move	v1,v0
  402058:	00473821 	addu	a3,v0,a3
  40205c:	24630001 	addiu	v1,v1,1
  402060:	1467fffe 	bne	v1,a3,40205c <memset+0x60>
  402064:	a065ffff 	sb	a1,-1(v1)
  402068:	00061882 	srl	v1,a2,0x2
  40206c:	00e04821 	move	t1,a3
  402070:	00604021 	move	t0,v1
  402074:	2508ffff 	addiu	t0,t0,-1
  402078:	ad240000 	sw	a0,0(t1)
  40207c:	1500fffd 	bnez	t0,402074 <memset+0x78>
  402080:	25290004 	addiu	t1,t1,4
  402084:	00031880 	sll	v1,v1,0x2
  402088:	30c60003 	andi	a2,a2,0x3
  40208c:	10c00005 	beqz	a2,4020a4 <memset+0xa8>
  402090:	00e31821 	addu	v1,a3,v1
  402094:	00663021 	addu	a2,v1,a2
  402098:	24630001 	addiu	v1,v1,1
  40209c:	1466fffe 	bne	v1,a2,402098 <memset+0x9c>
  4020a0:	a065ffff 	sb	a1,-1(v1)
  4020a4:	03e00008 	jr	ra
  4020a8:	00000000 	nop

004020ac <fputs>:
  4020ac:	27bdffd0 	addiu	sp,sp,-48
  4020b0:	afbf002c 	sw	ra,44(sp)
  4020b4:	afb00028 	sw	s0,40(sp)
  4020b8:	afa4001c 	sw	a0,28(sp)
  4020bc:	0c100e71 	jal	4039c4 <strlen>
  4020c0:	00a08021 	move	s0,a1
  4020c4:	afa20018 	sw	v0,24(sp)
  4020c8:	afa20020 	sw	v0,32(sp)
  4020cc:	27a2001c 	addiu	v0,sp,28
  4020d0:	afa20010 	sw	v0,16(sp)
  4020d4:	02002021 	move	a0,s0
  4020d8:	24020001 	li	v0,1
  4020dc:	27a50010 	addiu	a1,sp,16
  4020e0:	0c100e77 	jal	4039dc <__sfvwrite>
  4020e4:	afa20014 	sw	v0,20(sp)
  4020e8:	8fbf002c 	lw	ra,44(sp)
  4020ec:	8fb00028 	lw	s0,40(sp)
  4020f0:	03e00008 	jr	ra
  4020f4:	27bd0030 	addiu	sp,sp,48

004020f8 <fprintf>:
  4020f8:	27bdffe8 	addiu	sp,sp,-24
  4020fc:	afa60020 	sw	a2,32(sp)
  402100:	27a60020 	addiu	a2,sp,32
  402104:	afbf0014 	sw	ra,20(sp)
  402108:	afa70024 	sw	a3,36(sp)
  40210c:	0c10089a 	jal	402268 <vfprintf>
  402110:	afa5001c 	sw	a1,28(sp)
  402114:	8fbf0014 	lw	ra,20(sp)
  402118:	03e00008 	jr	ra
  40211c:	27bd0018 	addiu	sp,sp,24

00402120 <__ultoa>:
  402120:	27bdffe8 	addiu	sp,sp,-24
  402124:	2402000a 	li	v0,10
  402128:	afbf0014 	sw	ra,20(sp)
  40212c:	10c20008 	beq	a2,v0,402150 <__ultoa+0x30>
  402130:	8fa30028 	lw	v1,40(sp)
  402134:	24020010 	li	v0,16
  402138:	10c2002e 	beq	a2,v0,4021f4 <__ultoa+0xd4>
  40213c:	24020008 	li	v0,8
  402140:	14c20035 	bne	a2,v0,402218 <__ultoa+0xf8>
  402144:	30830007 	andi	v1,a0,0x7
  402148:	08100871 	j	4021c4 <__ultoa+0xa4>
  40214c:	24a5ffff 	addiu	a1,a1,-1
  402150:	2c83000a 	sltiu	v1,a0,10
  402154:	10600005 	beqz	v1,40216c <__ultoa+0x4c>
  402158:	24a2ffff 	addiu	v0,a1,-1
  40215c:	24840030 	addiu	a0,a0,48
  402160:	a0a4ffff 	sb	a0,-1(a1)
  402164:	08100888 	j	402220 <__ultoa+0x100>
  402168:	00402821 	move	a1,v0
  40216c:	04830009 	bgezl	a0,402194 <__ultoa+0x74>
  402170:	2402000a 	li	v0,10
  402174:	0086001b 	divu	zero,a0,a2
  402178:	00c001f4 	teq	a2,zero,0x7
  40217c:	00001810 	mfhi	v1
  402180:	24630030 	addiu	v1,v1,48
  402184:	a0a3ffff 	sb	v1,-1(a1)
  402188:	00002012 	mflo	a0
  40218c:	00402821 	move	a1,v0
  402190:	2402000a 	li	v0,10
  402194:	0082001a 	div	zero,a0,v0
  402198:	004001f4 	teq	v0,zero,0x7
  40219c:	24a5ffff 	addiu	a1,a1,-1
  4021a0:	00001810 	mfhi	v1
  4021a4:	24630030 	addiu	v1,v1,48
  4021a8:	00002012 	mflo	a0
  4021ac:	1480fff9 	bnez	a0,402194 <__ultoa+0x74>
  4021b0:	a0a30000 	sb	v1,0(a1)
  4021b4:	08100889 	j	402224 <__ultoa+0x104>
  4021b8:	8fbf0014 	lw	ra,20(sp)
  4021bc:	30830007 	andi	v1,a0,0x7
  4021c0:	24a5ffff 	addiu	a1,a1,-1
  4021c4:	24630030 	addiu	v1,v1,48
  4021c8:	000420c2 	srl	a0,a0,0x3
  4021cc:	1480fffb 	bnez	a0,4021bc <__ultoa+0x9c>
  4021d0:	a0a30000 	sb	v1,0(a1)
  4021d4:	10e00013 	beqz	a3,402224 <__ultoa+0x104>
  4021d8:	8fbf0014 	lw	ra,20(sp)
  4021dc:	24020030 	li	v0,48
  4021e0:	50620011 	beql	v1,v0,402228 <__ultoa+0x108>
  4021e4:	00a01021 	move	v0,a1
  4021e8:	a0a2ffff 	sb	v0,-1(a1)
  4021ec:	08100888 	j	402220 <__ultoa+0x100>
  4021f0:	24a5ffff 	addiu	a1,a1,-1
  4021f4:	3082000f 	andi	v0,a0,0xf
  4021f8:	00621021 	addu	v0,v1,v0
  4021fc:	90420000 	lbu	v0,0(v0)
  402200:	24a5ffff 	addiu	a1,a1,-1
  402204:	00042102 	srl	a0,a0,0x4
  402208:	1480fffa 	bnez	a0,4021f4 <__ultoa+0xd4>
  40220c:	a0a20000 	sb	v0,0(a1)
  402210:	08100889 	j	402224 <__ultoa+0x104>
  402214:	8fbf0014 	lw	ra,20(sp)
  402218:	0c101b60 	jal	406d80 <abort>
  40221c:	00000000 	nop
  402220:	8fbf0014 	lw	ra,20(sp)
  402224:	00a01021 	move	v0,a1
  402228:	03e00008 	jr	ra
  40222c:	27bd0018 	addiu	sp,sp,24

00402230 <__sprint>:
  402230:	8ca20008 	lw	v0,8(a1)
  402234:	27bdffe8 	addiu	sp,sp,-24
  402238:	afb00010 	sw	s0,16(sp)
  40223c:	afbf0014 	sw	ra,20(sp)
  402240:	10400004 	beqz	v0,402254 <__sprint+0x24>
  402244:	00a08021 	move	s0,a1
  402248:	0c100e77 	jal	4039dc <__sfvwrite>
  40224c:	00000000 	nop
  402250:	ae000008 	sw	zero,8(s0)
  402254:	8fbf0014 	lw	ra,20(sp)
  402258:	ae000004 	sw	zero,4(s0)
  40225c:	8fb00010 	lw	s0,16(sp)
  402260:	03e00008 	jr	ra
  402264:	27bd0018 	addiu	sp,sp,24

00402268 <vfprintf>:
  402268:	9482000c 	lhu	v0,12(a0)
  40226c:	27bdf9d8 	addiu	sp,sp,-1576
  402270:	afb20608 	sw	s2,1544(sp)
  402274:	30420008 	andi	v0,v0,0x8
  402278:	afb00600 	sw	s0,1536(sp)
  40227c:	afbf0624 	sw	ra,1572(sp)
  402280:	afbe0620 	sw	s8,1568(sp)
  402284:	afb7061c 	sw	s7,1564(sp)
  402288:	afb60618 	sw	s6,1560(sp)
  40228c:	afb50614 	sw	s5,1556(sp)
  402290:	afb40610 	sw	s4,1552(sp)
  402294:	afb3060c 	sw	s3,1548(sp)
  402298:	afb10604 	sw	s1,1540(sp)
  40229c:	00809021 	move	s2,a0
  4022a0:	afa5062c 	sw	a1,1580(sp)
  4022a4:	1040000b 	beqz	v0,4022d4 <vfprintf+0x6c>
  4022a8:	00c08021 	move	s0,a2
  4022ac:	8c820010 	lw	v0,16(a0)
  4022b0:	10400008 	beqz	v0,4022d4 <vfprintf+0x6c>
  4022b4:	00000000 	nop
  4022b8:	8643000c 	lh	v1,12(s2)
  4022bc:	2402000a 	li	v0,10
  4022c0:	3064001a 	andi	a0,v1,0x1a
  4022c4:	1482002d 	bne	a0,v0,40237c <vfprintf+0x114>
  4022c8:	27b40554 	addiu	s4,sp,1364
  4022cc:	081008bb 	j	4022ec <vfprintf+0x84>
  4022d0:	8642000e 	lh	v0,14(s2)
  4022d4:	0c101b7e 	jal	406df8 <__swsetup>
  4022d8:	02402021 	move	a0,s2
  4022dc:	5040fff7 	beqzl	v0,4022bc <vfprintf+0x54>
  4022e0:	8643000c 	lh	v1,12(s2)
  4022e4:	08100e49 	j	403924 <vfprintf+0x16bc>
  4022e8:	2402ffff 	li	v0,-1
  4022ec:	04400023 	bltz	v0,40237c <vfprintf+0x114>
  4022f0:	27b40554 	addiu	s4,sp,1364
  4022f4:	a7a2042e 	sh	v0,1070(sp)
  4022f8:	8e42001c 	lw	v0,28(s2)
  4022fc:	8fa5062c 	lw	a1,1580(sp)
  402300:	2404fffd 	li	a0,-3
  402304:	afa2043c 	sw	v0,1084(sp)
  402308:	8e42002c 	lw	v0,44(s2)
  40230c:	00641824 	and	v1,v1,a0
  402310:	02003021 	move	a2,s0
  402314:	afa2044c 	sw	v0,1100(sp)
  402318:	27a20020 	addiu	v0,sp,32
  40231c:	afa20420 	sw	v0,1056(sp)
  402320:	afa20430 	sw	v0,1072(sp)
  402324:	27a40420 	addiu	a0,sp,1056
  402328:	24020400 	li	v0,1024
  40232c:	a7a3042c 	sh	v1,1068(sp)
  402330:	afa20428 	sw	v0,1064(sp)
  402334:	afa20434 	sw	v0,1076(sp)
  402338:	0c10089a 	jal	402268 <vfprintf>
  40233c:	afa00438 	sw	zero,1080(sp)
  402340:	04400005 	bltz	v0,402358 <vfprintf+0xf0>
  402344:	00408021 	move	s0,v0
  402348:	0c101e36 	jal	4078d8 <fflush>
  40234c:	27a40420 	addiu	a0,sp,1056
  402350:	2403ffff 	li	v1,-1
  402354:	0062800b 	movn	s0,v1,v0
  402358:	97a2042c 	lhu	v0,1068(sp)
  40235c:	30420040 	andi	v0,v0,0x40
  402360:	50400570 	beqzl	v0,403924 <vfprintf+0x16bc>
  402364:	02001021 	move	v0,s0
  402368:	9642000c 	lhu	v0,12(s2)
  40236c:	34420040 	ori	v0,v0,0x40
  402370:	a642000c 	sh	v0,12(s2)
  402374:	08100e49 	j	403924 <vfprintf+0x16bc>
  402378:	02001021 	move	v0,s0
  40237c:	afb40594 	sw	s4,1428(sp)
  402380:	afa0059c 	sw	zero,1436(sp)
  402384:	afa00598 	sw	zero,1432(sp)
  402388:	afa005d0 	sw	zero,1488(sp)
  40238c:	0280b821 	move	s7,s4
  402390:	8fb1062c 	lw	s1,1580(sp)
  402394:	24020025 	li	v0,37
  402398:	92350000 	lbu	s5,0(s1)
  40239c:	12a00005 	beqz	s5,4023b4 <vfprintf+0x14c>
  4023a0:	8fa8062c 	lw	t0,1580(sp)
  4023a4:	12a20004 	beq	s5,v0,4023b8 <vfprintf+0x150>
  4023a8:	02289823 	subu	s3,s1,t0
  4023ac:	081008e6 	j	402398 <vfprintf+0x130>
  4023b0:	26310001 	addiu	s1,s1,1
  4023b4:	02289823 	subu	s3,s1,t0
  4023b8:	12600013 	beqz	s3,402408 <vfprintf+0x1a0>
  4023bc:	8fa2059c 	lw	v0,1436(sp)
  4023c0:	aee80000 	sw	t0,0(s7)
  4023c4:	aef30004 	sw	s3,4(s7)
  4023c8:	00531021 	addu	v0,v0,s3
  4023cc:	afa2059c 	sw	v0,1436(sp)
  4023d0:	8fa20598 	lw	v0,1432(sp)
  4023d4:	24420001 	addiu	v0,v0,1
  4023d8:	afa20598 	sw	v0,1432(sp)
  4023dc:	28420008 	slti	v0,v0,8
  4023e0:	14400006 	bnez	v0,4023fc <vfprintf+0x194>
  4023e4:	26f70008 	addiu	s7,s7,8
  4023e8:	02402021 	move	a0,s2
  4023ec:	0c10088c 	jal	402230 <__sprint>
  4023f0:	27a50594 	addiu	a1,sp,1428
  4023f4:	14400546 	bnez	v0,403910 <vfprintf+0x16a8>
  4023f8:	0280b821 	move	s7,s4
  4023fc:	8fa805d0 	lw	t0,1488(sp)
  402400:	01134021 	addu	t0,t0,s3
  402404:	afa805d0 	sw	t0,1488(sp)
  402408:	12a0053b 	beqz	s5,4038f8 <vfprintf+0x1690>
  40240c:	26230001 	addiu	v1,s1,1
  402410:	a3a005b2 	sb	zero,1458(sp)
  402414:	00001021 	move	v0,zero
  402418:	2415ffff 	li	s5,-1
  40241c:	afa005c8 	sw	zero,1480(sp)
  402420:	00008821 	move	s1,zero
  402424:	2405000a 	li	a1,10
  402428:	2409002a 	li	t1,42
  40242c:	2406ffff 	li	a2,-1
  402430:	240a0020 	li	t2,32
  402434:	90760000 	lbu	s6,0(v1)
  402438:	24680001 	addiu	t0,v1,1
  40243c:	afa8062c 	sw	t0,1580(sp)
  402440:	26c3ffe0 	addiu	v1,s6,-32
  402444:	2c640059 	sltiu	a0,v1,89
  402448:	10800282 	beqz	a0,402e54 <vfprintf+0xbec>
  40244c:	3c040041 	lui	a0,0x41
  402450:	00031880 	sll	v1,v1,0x2
  402454:	2484b538 	addiu	a0,a0,-19144
  402458:	00831821 	addu	v1,a0,v1
  40245c:	8c630000 	lw	v1,0(v1)
  402460:	00600008 	jr	v1
  402464:	00000000 	nop
  402468:	2402002b 	li	v0,43
  40246c:	0810090d 	j	402434 <vfprintf+0x1cc>
  402470:	8fa3062c 	lw	v1,1580(sp)
  402474:	0810096a 	j	4025a8 <vfprintf+0x340>
  402478:	a3a205b2 	sb	v0,1458(sp)
  40247c:	3c020041 	lui	v0,0x41
  402480:	08100af0 	j	402bc0 <vfprintf+0x958>
  402484:	2442b500 	addiu	v0,v0,-19200
  402488:	0810099e 	j	402678 <vfprintf+0x410>
  40248c:	a3a205b2 	sb	v0,1458(sp)
  402490:	0810091b 	j	40246c <vfprintf+0x204>
  402494:	0142100a 	movz	v0,t2,v0
  402498:	0810091b 	j	40246c <vfprintf+0x204>
  40249c:	36310001 	ori	s1,s1,0x1
  4024a0:	8e080000 	lw	t0,0(s0)
  4024a4:	26100004 	addiu	s0,s0,4
  4024a8:	0501fff0 	bgez	t0,40246c <vfprintf+0x204>
  4024ac:	afa805c8 	sw	t0,1480(sp)
  4024b0:	00084023 	negu	t0,t0
  4024b4:	afa805c8 	sw	t0,1480(sp)
  4024b8:	0810091b 	j	40246c <vfprintf+0x204>
  4024bc:	36310004 	ori	s1,s1,0x4
  4024c0:	8fa8062c 	lw	t0,1580(sp)
  4024c4:	91160000 	lbu	s6,0(t0)
  4024c8:	12c90003 	beq	s6,t1,4024d8 <vfprintf+0x270>
  4024cc:	25030001 	addiu	v1,t0,1
  4024d0:	0810093d 	j	4024f4 <vfprintf+0x28c>
  4024d4:	00002021 	move	a0,zero
  4024d8:	8e040000 	lw	a0,0(s0)
  4024dc:	afa3062c 	sw	v1,1580(sp)
  4024e0:	26100004 	addiu	s0,s0,4
  4024e4:	28950000 	slti	s5,a0,0
  4024e8:	00d5200b 	movn	a0,a2,s5
  4024ec:	0810091b 	j	40246c <vfprintf+0x204>
  4024f0:	0080a821 	move	s5,a0
  4024f4:	26c7ffd0 	addiu	a3,s6,-48
  4024f8:	2ceb000a 	sltiu	t3,a3,10
  4024fc:	11600005 	beqz	t3,402514 <vfprintf+0x2ac>
  402500:	70854002 	mul	t0,a0,a1
  402504:	24630001 	addiu	v1,v1,1
  402508:	9076ffff 	lbu	s6,-1(v1)
  40250c:	0810093d 	j	4024f4 <vfprintf+0x28c>
  402510:	01072021 	addu	a0,t0,a3
  402514:	28950000 	slti	s5,a0,0
  402518:	00d5200b 	movn	a0,a2,s5
  40251c:	0080a821 	move	s5,a0
  402520:	08100910 	j	402440 <vfprintf+0x1d8>
  402524:	afa3062c 	sw	v1,1580(sp)
  402528:	0810091b 	j	40246c <vfprintf+0x204>
  40252c:	36310080 	ori	s1,s1,0x80
  402530:	afa005c8 	sw	zero,1480(sp)
  402534:	8fa805c8 	lw	t0,1480(sp)
  402538:	26d6ffd0 	addiu	s6,s6,-48
  40253c:	71051802 	mul	v1,t0,a1
  402540:	00764021 	addu	t0,v1,s6
  402544:	afa805c8 	sw	t0,1480(sp)
  402548:	8fa8062c 	lw	t0,1580(sp)
  40254c:	25030001 	addiu	v1,t0,1
  402550:	9076ffff 	lbu	s6,-1(v1)
  402554:	26c4ffd0 	addiu	a0,s6,-48
  402558:	2c84000a 	sltiu	a0,a0,10
  40255c:	1080ffb8 	beqz	a0,402440 <vfprintf+0x1d8>
  402560:	afa3062c 	sw	v1,1580(sp)
  402564:	0810094e 	j	402538 <vfprintf+0x2d0>
  402568:	8fa805c8 	lw	t0,1480(sp)
  40256c:	0810091b 	j	40246c <vfprintf+0x204>
  402570:	36310008 	ori	s1,s1,0x8
  402574:	0810091b 	j	40246c <vfprintf+0x204>
  402578:	36310040 	ori	s1,s1,0x40
  40257c:	0810091b 	j	40246c <vfprintf+0x204>
  402580:	36310010 	ori	s1,s1,0x10
  402584:	0810091b 	j	40246c <vfprintf+0x204>
  402588:	36310020 	ori	s1,s1,0x20
  40258c:	8e020000 	lw	v0,0(s0)
  402590:	a3a005b2 	sb	zero,1458(sp)
  402594:	26100004 	addiu	s0,s0,4
  402598:	08100b99 	j	402e64 <vfprintf+0xbfc>
  40259c:	a3a20020 	sb	v0,32(sp)
  4025a0:	a3a205b2 	sb	v0,1458(sp)
  4025a4:	36310010 	ori	s1,s1,0x10
  4025a8:	32220020 	andi	v0,s1,0x20
  4025ac:	10400015 	beqz	v0,402604 <vfprintf+0x39c>
  4025b0:	32230010 	andi	v1,s1,0x10
  4025b4:	00101023 	negu	v0,s0
  4025b8:	30420007 	andi	v0,v0,0x7
  4025bc:	24420008 	addiu	v0,v0,8
  4025c0:	02028021 	addu	s0,s0,v0
  4025c4:	8e08fff8 	lw	t0,-8(s0)
  4025c8:	afa805c4 	sw	t0,1476(sp)
  4025cc:	8e08fffc 	lw	t0,-4(s0)
  4025d0:	050101a1 	bgez	t0,402c58 <vfprintf+0x9f0>
  4025d4:	afa805bc 	sw	t0,1468(sp)
  4025d8:	8fa805c4 	lw	t0,1476(sp)
  4025dc:	00081023 	negu	v0,t0
  4025e0:	8fa805bc 	lw	t0,1468(sp)
  4025e4:	0002182b 	sltu	v1,zero,v0
  4025e8:	afa205c4 	sw	v0,1476(sp)
  4025ec:	00082023 	negu	a0,t0
  4025f0:	00832023 	subu	a0,a0,v1
  4025f4:	2402002d 	li	v0,45
  4025f8:	afa405bc 	sw	a0,1468(sp)
  4025fc:	08100b16 	j	402c58 <vfprintf+0x9f0>
  402600:	a3a205b2 	sb	v0,1458(sp)
  402604:	10600004 	beqz	v1,402618 <vfprintf+0x3b0>
  402608:	26020004 	addiu	v0,s0,4
  40260c:	8e100000 	lw	s0,0(s0)
  402610:	0810098b 	j	40262c <vfprintf+0x3c4>
  402614:	afb005b8 	sw	s0,1464(sp)
  402618:	32240040 	andi	a0,s1,0x40
  40261c:	10800002 	beqz	a0,402628 <vfprintf+0x3c0>
  402620:	8e030000 	lw	v1,0(s0)
  402624:	7c031e20 	seh	v1,v1
  402628:	afa305b8 	sw	v1,1464(sp)
  40262c:	8fa805b8 	lw	t0,1464(sp)
  402630:	00408021 	move	s0,v0
  402634:	05010189 	bgez	t0,402c5c <vfprintf+0x9f4>
  402638:	2406000a 	li	a2,10
  40263c:	00084023 	negu	t0,t0
  402640:	2402002d 	li	v0,45
  402644:	afa805b8 	sw	t0,1464(sp)
  402648:	08100b17 	j	402c5c <vfprintf+0x9f4>
  40264c:	a3a205b2 	sb	v0,1458(sp)
  402650:	26a30001 	addiu	v1,s5,1
  402654:	a3a205b2 	sb	v0,1458(sp)
  402658:	0015a827 	nor	s5,zero,s5
  40265c:	24020007 	li	v0,7
  402660:	0075100b 	movn	v0,v1,s5
  402664:	081009a1 	j	402684 <vfprintf+0x41c>
  402668:	0040a821 	move	s5,v0
  40266c:	12a00005 	beqz	s5,402684 <vfprintf+0x41c>
  402670:	a3a205b2 	sb	v0,1458(sp)
  402674:	36310001 	ori	s1,s1,0x1
  402678:	00151827 	nor	v1,zero,s5
  40267c:	24020006 	li	v0,6
  402680:	0043a80a 	movz	s5,v0,v1
  402684:	00101023 	negu	v0,s0
  402688:	30420007 	andi	v0,v0,0x7
  40268c:	24420008 	addiu	v0,v0,8
  402690:	02028021 	addu	s0,s0,v0
  402694:	8e08fff8 	lw	t0,-8(s0)
  402698:	8f868028 	lw	a2,-32728(gp)
  40269c:	8f87802c 	lw	a3,-32724(gp)
  4026a0:	afa805cc 	sw	t0,1484(sp)
  4026a4:	8e08fffc 	lw	t0,-4(s0)
  4026a8:	8fa305cc 	lw	v1,1484(sp)
  4026ac:	7d13f000 	ext	s3,t0,0x0,0x1f
  4026b0:	00602021 	move	a0,v1
  4026b4:	02602821 	move	a1,s3
  4026b8:	0c102a1e 	jal	40a878 <__unorddf2>
  4026bc:	afa805d4 	sw	t0,1492(sp)
  4026c0:	14400014 	bnez	v0,402714 <vfprintf+0x4ac>
  4026c4:	8fa305cc 	lw	v1,1484(sp)
  4026c8:	8f868028 	lw	a2,-32728(gp)
  4026cc:	8f87802c 	lw	a3,-32724(gp)
  4026d0:	00602021 	move	a0,v1
  4026d4:	0c1026c1 	jal	409b04 <__ledf2>
  4026d8:	02602821 	move	a1,s3
  4026dc:	1840000d 	blez	v0,402714 <vfprintf+0x4ac>
  4026e0:	8fa305cc 	lw	v1,1484(sp)
  4026e4:	8fa205d4 	lw	v0,1492(sp)
  4026e8:	00003021 	move	a2,zero
  4026ec:	00602021 	move	a0,v1
  4026f0:	00402821 	move	a1,v0
  4026f4:	00003821 	move	a3,zero
  4026f8:	0c1026c1 	jal	409b04 <__ledf2>
  4026fc:	3c130041 	lui	s3,0x41
  402700:	044101dc 	bgez	v0,402e74 <vfprintf+0xc0c>
  402704:	2673b528 	addiu	s3,s3,-19160
  402708:	2402002d 	li	v0,45
  40270c:	08100b9d 	j	402e74 <vfprintf+0xc0c>
  402710:	a3a205b2 	sb	v0,1458(sp)
  402714:	8fa205d4 	lw	v0,1492(sp)
  402718:	00602021 	move	a0,v1
  40271c:	00402821 	move	a1,v0
  402720:	00603021 	move	a2,v1
  402724:	0c102a1e 	jal	40a878 <__unorddf2>
  402728:	00403821 	move	a3,v0
  40272c:	144001d3 	bnez	v0,402e7c <vfprintf+0xc14>
  402730:	24020002 	li	v0,2
  402734:	36230100 	ori	v1,s1,0x100
  402738:	afa305d8 	sw	v1,1496(sp)
  40273c:	24130003 	li	s3,3
  402740:	3ac30066 	xori	v1,s6,0x66
  402744:	0043980b 	movn	s3,v0,v1
  402748:	8fa305cc 	lw	v1,1484(sp)
  40274c:	8fa205d4 	lw	v0,1492(sp)
  402750:	00003021 	move	a2,zero
  402754:	00602021 	move	a0,v1
  402758:	00402821 	move	a1,v0
  40275c:	0c1026c1 	jal	409b04 <__ledf2>
  402760:	00003821 	move	a3,zero
  402764:	04430007 	bgezl	v0,402784 <vfprintf+0x51c>
  402768:	8fa905d4 	lw	t1,1492(sp)
  40276c:	8fa805d4 	lw	t0,1492(sp)
  402770:	3c098000 	lui	t1,0x8000
  402774:	2403002d 	li	v1,45
  402778:	01284826 	xor	t1,t1,t0
  40277c:	081009e2 	j	402788 <vfprintf+0x520>
  402780:	afa305dc 	sw	v1,1500(sp)
  402784:	afa005dc 	sw	zero,1500(sp)
  402788:	27a205ac 	addiu	v0,sp,1452
  40278c:	8fa305cc 	lw	v1,1484(sp)
  402790:	afa20010 	sw	v0,16(sp)
  402794:	27a205a8 	addiu	v0,sp,1448
  402798:	afa20014 	sw	v0,20(sp)
  40279c:	27a20420 	addiu	v0,sp,1056
  4027a0:	01202821 	move	a1,t1
  4027a4:	02603021 	move	a2,s3
  4027a8:	afa20018 	sw	v0,24(sp)
  4027ac:	00602021 	move	a0,v1
  4027b0:	02a03821 	move	a3,s5
  4027b4:	afa905f4 	sw	t1,1524(sp)
  4027b8:	0c1016ab 	jal	405aac <__dtoa>
  4027bc:	32310001 	andi	s1,s1,0x1
  4027c0:	00409821 	move	s3,v0
  4027c4:	1620000a 	bnez	s1,4027f0 <vfprintf+0x588>
  4027c8:	8fa905f4 	lw	t1,1524(sp)
  4027cc:	8fa20420 	lw	v0,1056(sp)
  4027d0:	32c400df 	andi	a0,s6,0xdf
  4027d4:	24030047 	li	v1,71
  4027d8:	00531023 	subu	v0,v0,s3
  4027dc:	afa205c0 	sw	v0,1472(sp)
  4027e0:	14830034 	bne	a0,v1,4028b4 <vfprintf+0x64c>
  4027e4:	8fa205ac 	lw	v0,1452(sp)
  4027e8:	08100a22 	j	402888 <vfprintf+0x620>
  4027ec:	2843fffd 	slti	v1,v0,-3
  4027f0:	0055f021 	addu	s8,v0,s5
  4027f4:	24020066 	li	v0,102
  4027f8:	16c20014 	bne	s6,v0,40284c <vfprintf+0x5e4>
  4027fc:	8fa605cc 	lw	a2,1484(sp)
  402800:	92640000 	lbu	a0,0(s3)
  402804:	24020030 	li	v0,48
  402808:	1482000e 	bne	a0,v0,402844 <vfprintf+0x5dc>
  40280c:	8fa205ac 	lw	v0,1452(sp)
  402810:	8fa605cc 	lw	a2,1484(sp)
  402814:	01202821 	move	a1,t1
  402818:	00003821 	move	a3,zero
  40281c:	00c02021 	move	a0,a2
  402820:	00003021 	move	a2,zero
  402824:	0c10265a 	jal	409968 <__eqdf2>
  402828:	afa905f4 	sw	t1,1524(sp)
  40282c:	10400004 	beqz	v0,402840 <vfprintf+0x5d8>
  402830:	8fa905f4 	lw	t1,1524(sp)
  402834:	24020001 	li	v0,1
  402838:	00551023 	subu	v0,v0,s5
  40283c:	afa205ac 	sw	v0,1452(sp)
  402840:	8fa205ac 	lw	v0,1452(sp)
  402844:	03c2f021 	addu	s8,s8,v0
  402848:	8fa605cc 	lw	a2,1484(sp)
  40284c:	01202821 	move	a1,t1
  402850:	00003821 	move	a3,zero
  402854:	00c02021 	move	a0,a2
  402858:	0c10265a 	jal	409968 <__eqdf2>
  40285c:	00003021 	move	a2,zero
  402860:	50400001 	beqzl	v0,402868 <vfprintf+0x600>
  402864:	afbe0420 	sw	s8,1056(sp)
  402868:	24050030 	li	a1,48
  40286c:	8fa20420 	lw	v0,1056(sp)
  402870:	005e202b 	sltu	a0,v0,s8
  402874:	1080ffd6 	beqz	a0,4027d0 <vfprintf+0x568>
  402878:	24440001 	addiu	a0,v0,1
  40287c:	afa40420 	sw	a0,1056(sp)
  402880:	08100a1b 	j	40286c <vfprintf+0x604>
  402884:	a0450000 	sb	a1,0(v0)
  402888:	54600005 	bnezl	v1,4028a0 <vfprintf+0x638>
  40288c:	3ad60067 	xori	s6,s6,0x67
  402890:	02a2182a 	slt	v1,s5,v0
  402894:	10600048 	beqz	v1,4029b8 <vfprintf+0x750>
  402898:	8fa805c0 	lw	t0,1472(sp)
  40289c:	3ad60067 	xori	s6,s6,0x67
  4028a0:	24030065 	li	v1,101
  4028a4:	24040045 	li	a0,69
  4028a8:	0096180b 	movn	v1,a0,s6
  4028ac:	08100a30 	j	4028c0 <vfprintf+0x658>
  4028b0:	0060b021 	move	s6,v1
  4028b4:	2ac30066 	slti	v1,s6,102
  4028b8:	50600032 	beqzl	v1,402984 <vfprintf+0x71c>
  4028bc:	24030066 	li	v1,102
  4028c0:	2442ffff 	addiu	v0,v0,-1
  4028c4:	afa205ac 	sw	v0,1452(sp)
  4028c8:	a3b605a0 	sb	s6,1440(sp)
  4028cc:	04410003 	bgez	v0,4028dc <vfprintf+0x674>
  4028d0:	2403002b 	li	v1,43
  4028d4:	00021023 	negu	v0,v0
  4028d8:	2403002d 	li	v1,45
  4028dc:	a3a305a1 	sb	v1,1441(sp)
  4028e0:	2843000a 	slti	v1,v0,10
  4028e4:	54600018 	bnezl	v1,402948 <vfprintf+0x6e0>
  4028e8:	24420030 	addiu	v0,v0,48
  4028ec:	02801821 	move	v1,s4
  4028f0:	2404000a 	li	a0,10
  4028f4:	0044001a 	div	zero,v0,a0
  4028f8:	008001f4 	teq	a0,zero,0x7
  4028fc:	2463ffff 	addiu	v1,v1,-1
  402900:	00002810 	mfhi	a1
  402904:	24a50030 	addiu	a1,a1,48
  402908:	a0650000 	sb	a1,0(v1)
  40290c:	00001012 	mflo	v0
  402910:	2845000a 	slti	a1,v0,10
  402914:	10a0fff7 	beqz	a1,4028f4 <vfprintf+0x68c>
  402918:	00000000 	nop
  40291c:	24420030 	addiu	v0,v0,48
  402920:	a062ffff 	sb	v0,-1(v1)
  402924:	2464ffff 	addiu	a0,v1,-1
  402928:	27a205a2 	addiu	v0,sp,1442
  40292c:	0094182b 	sltu	v1,a0,s4
  402930:	10600009 	beqz	v1,402958 <vfprintf+0x6f0>
  402934:	24840001 	addiu	a0,a0,1
  402938:	9083ffff 	lbu	v1,-1(a0)
  40293c:	24420001 	addiu	v0,v0,1
  402940:	08100a4b 	j	40292c <vfprintf+0x6c4>
  402944:	a043ffff 	sb	v1,-1(v0)
  402948:	24030030 	li	v1,48
  40294c:	a3a205a3 	sb	v0,1443(sp)
  402950:	a3a305a2 	sb	v1,1442(sp)
  402954:	27a205a4 	addiu	v0,sp,1444
  402958:	8fa805c0 	lw	t0,1472(sp)
  40295c:	27a305a0 	addiu	v1,sp,1440
  402960:	00431823 	subu	v1,v0,v1
  402964:	29020002 	slti	v0,t0,2
  402968:	afa305e4 	sw	v1,1508(sp)
  40296c:	10400003 	beqz	v0,40297c <vfprintf+0x714>
  402970:	00681821 	addu	v1,v1,t0
  402974:	1220001e 	beqz	s1,4029f0 <vfprintf+0x788>
  402978:	8fa805dc 	lw	t0,1500(sp)
  40297c:	08100a7b 	j	4029ec <vfprintf+0x784>
  402980:	24630001 	addiu	v1,v1,1
  402984:	16c3000c 	bne	s6,v1,4029b8 <vfprintf+0x750>
  402988:	8fa805c0 	lw	t0,1472(sp)
  40298c:	18400008 	blez	v0,4029b0 <vfprintf+0x748>
  402990:	00401821 	move	v1,v0
  402994:	56a00004 	bnezl	s5,4029a8 <vfprintf+0x740>
  402998:	26a30001 	addiu	v1,s5,1
  40299c:	12200014 	beqz	s1,4029f0 <vfprintf+0x788>
  4029a0:	8fa805dc 	lw	t0,1500(sp)
  4029a4:	26a30001 	addiu	v1,s5,1
  4029a8:	08100a7b 	j	4029ec <vfprintf+0x784>
  4029ac:	00431821 	addu	v1,v0,v1
  4029b0:	08100a7b 	j	4029ec <vfprintf+0x784>
  4029b4:	26a30002 	addiu	v1,s5,2
  4029b8:	0048202a 	slt	a0,v0,t0
  4029bc:	14800004 	bnez	a0,4029d0 <vfprintf+0x768>
  4029c0:	0011882b 	sltu	s1,zero,s1
  4029c4:	24160067 	li	s6,103
  4029c8:	08100a7b 	j	4029ec <vfprintf+0x784>
  4029cc:	00511821 	addu	v1,v0,s1
  4029d0:	1c400003 	bgtz	v0,4029e0 <vfprintf+0x778>
  4029d4:	24030001 	li	v1,1
  4029d8:	24030002 	li	v1,2
  4029dc:	00621823 	subu	v1,v1,v0
  4029e0:	8fa805c0 	lw	t0,1472(sp)
  4029e4:	24160067 	li	s6,103
  4029e8:	01031821 	addu	v1,t0,v1
  4029ec:	8fa805dc 	lw	t0,1500(sp)
  4029f0:	11000128 	beqz	t0,402e94 <vfprintf+0xc2c>
  4029f4:	8fb105d8 	lw	s1,1496(sp)
  4029f8:	2402002d 	li	v0,45
  4029fc:	08100ba4 	j	402e90 <vfprintf+0xc28>
  402a00:	a3a205b2 	sb	v0,1458(sp)
  402a04:	32230020 	andi	v1,s1,0x20
  402a08:	a3a205b2 	sb	v0,1458(sp)
  402a0c:	10600007 	beqz	v1,402a2c <vfprintf+0x7c4>
  402a10:	26020004 	addiu	v0,s0,4
  402a14:	8fa805d0 	lw	t0,1488(sp)
  402a18:	8e030000 	lw	v1,0(s0)
  402a1c:	000827c3 	sra	a0,t0,0x1f
  402a20:	ac680000 	sw	t0,0(v1)
  402a24:	08100a96 	j	402a58 <vfprintf+0x7f0>
  402a28:	ac640004 	sw	a0,4(v1)
  402a2c:	32230010 	andi	v1,s1,0x10
  402a30:	14600007 	bnez	v1,402a50 <vfprintf+0x7e8>
  402a34:	8e030000 	lw	v1,0(s0)
  402a38:	32310040 	andi	s1,s1,0x40
  402a3c:	12200004 	beqz	s1,402a50 <vfprintf+0x7e8>
  402a40:	00000000 	nop
  402a44:	8fa805d0 	lw	t0,1488(sp)
  402a48:	08100a96 	j	402a58 <vfprintf+0x7f0>
  402a4c:	a4680000 	sh	t0,0(v1)
  402a50:	8fa805d0 	lw	t0,1488(sp)
  402a54:	ac680000 	sw	t0,0(v1)
  402a58:	081008e4 	j	402390 <vfprintf+0x128>
  402a5c:	00408021 	move	s0,v0
  402a60:	36310010 	ori	s1,s1,0x10
  402a64:	32220020 	andi	v0,s1,0x20
  402a68:	1040000a 	beqz	v0,402a94 <vfprintf+0x82c>
  402a6c:	32230010 	andi	v1,s1,0x10
  402a70:	00101023 	negu	v0,s0
  402a74:	30420007 	andi	v0,v0,0x7
  402a78:	24420008 	addiu	v0,v0,8
  402a7c:	02028021 	addu	s0,s0,v0
  402a80:	8e08fff8 	lw	t0,-8(s0)
  402a84:	afa805c4 	sw	t0,1476(sp)
  402a88:	8e08fffc 	lw	t0,-4(s0)
  402a8c:	08100aaf 	j	402abc <vfprintf+0x854>
  402a90:	afa805bc 	sw	t0,1468(sp)
  402a94:	14600006 	bnez	v1,402ab0 <vfprintf+0x848>
  402a98:	26020004 	addiu	v0,s0,4
  402a9c:	32230040 	andi	v1,s1,0x40
  402aa0:	50600004 	beqzl	v1,402ab4 <vfprintf+0x84c>
  402aa4:	8e100000 	lw	s0,0(s0)
  402aa8:	08100aad 	j	402ab4 <vfprintf+0x84c>
  402aac:	96100000 	lhu	s0,0(s0)
  402ab0:	8e100000 	lw	s0,0(s0)
  402ab4:	afb005b8 	sw	s0,1464(sp)
  402ab8:	00408021 	move	s0,v0
  402abc:	08100b14 	j	402c50 <vfprintf+0x9e8>
  402ac0:	24060008 	li	a2,8
  402ac4:	8e080000 	lw	t0,0(s0)
  402ac8:	2402ffdd 	li	v0,-35
  402acc:	02228824 	and	s1,s1,v0
  402ad0:	3c020041 	lui	v0,0x41
  402ad4:	2442b514 	addiu	v0,v0,-19180
  402ad8:	afa805b8 	sw	t0,1464(sp)
  402adc:	36310002 	ori	s1,s1,0x2
  402ae0:	26100004 	addiu	s0,s0,4
  402ae4:	afa205e0 	sw	v0,1504(sp)
  402ae8:	24060010 	li	a2,16
  402aec:	08100b14 	j	402c50 <vfprintf+0x9e8>
  402af0:	24160078 	li	s6,120
  402af4:	8e130000 	lw	s3,0(s0)
  402af8:	a3a205b2 	sb	v0,1458(sp)
  402afc:	16600003 	bnez	s3,402b0c <vfprintf+0x8a4>
  402b00:	261e0004 	addiu	s8,s0,4
  402b04:	3c130041 	lui	s3,0x41
  402b08:	2673b4f8 	addiu	s3,s3,-19208
  402b0c:	06a00009 	bltz	s5,402b34 <vfprintf+0x8cc>
  402b10:	02602021 	move	a0,s3
  402b14:	00002821 	move	a1,zero
  402b18:	0c101bb9 	jal	406ee4 <memchr>
  402b1c:	02a03021 	move	a2,s5
  402b20:	10400008 	beqz	v0,402b44 <vfprintf+0x8dc>
  402b24:	00531023 	subu	v0,v0,s3
  402b28:	02a2182a 	slt	v1,s5,v0
  402b2c:	08100acf 	j	402b3c <vfprintf+0x8d4>
  402b30:	02a3100b 	movn	v0,s5,v1
  402b34:	0c100e71 	jal	4039c4 <strlen>
  402b38:	00000000 	nop
  402b3c:	08100ad2 	j	402b48 <vfprintf+0x8e0>
  402b40:	00401821 	move	v1,v0
  402b44:	02a01821 	move	v1,s5
  402b48:	a3a005b2 	sb	zero,1458(sp)
  402b4c:	08100ba5 	j	402e94 <vfprintf+0xc2c>
  402b50:	03c08021 	move	s0,s8
  402b54:	36310010 	ori	s1,s1,0x10
  402b58:	32220020 	andi	v0,s1,0x20
  402b5c:	1040000a 	beqz	v0,402b88 <vfprintf+0x920>
  402b60:	32230010 	andi	v1,s1,0x10
  402b64:	00101023 	negu	v0,s0
  402b68:	30420007 	andi	v0,v0,0x7
  402b6c:	24420008 	addiu	v0,v0,8
  402b70:	02028021 	addu	s0,s0,v0
  402b74:	8e08fff8 	lw	t0,-8(s0)
  402b78:	afa805c4 	sw	t0,1476(sp)
  402b7c:	8e08fffc 	lw	t0,-4(s0)
  402b80:	08100aec 	j	402bb0 <vfprintf+0x948>
  402b84:	afa805bc 	sw	t0,1468(sp)
  402b88:	14600006 	bnez	v1,402ba4 <vfprintf+0x93c>
  402b8c:	26020004 	addiu	v0,s0,4
  402b90:	32230040 	andi	v1,s1,0x40
  402b94:	50600004 	beqzl	v1,402ba8 <vfprintf+0x940>
  402b98:	8e100000 	lw	s0,0(s0)
  402b9c:	08100aea 	j	402ba8 <vfprintf+0x940>
  402ba0:	96100000 	lhu	s0,0(s0)
  402ba4:	8e100000 	lw	s0,0(s0)
  402ba8:	afb005b8 	sw	s0,1464(sp)
  402bac:	00408021 	move	s0,v0
  402bb0:	08100b14 	j	402c50 <vfprintf+0x9e8>
  402bb4:	2406000a 	li	a2,10
  402bb8:	3c020041 	lui	v0,0x41
  402bbc:	2442b514 	addiu	v0,v0,-19180
  402bc0:	32230020 	andi	v1,s1,0x20
  402bc4:	1060000a 	beqz	v1,402bf0 <vfprintf+0x988>
  402bc8:	afa205e0 	sw	v0,1504(sp)
  402bcc:	00101023 	negu	v0,s0
  402bd0:	30420007 	andi	v0,v0,0x7
  402bd4:	24420008 	addiu	v0,v0,8
  402bd8:	02028021 	addu	s0,s0,v0
  402bdc:	8e08fff8 	lw	t0,-8(s0)
  402be0:	afa805c4 	sw	t0,1476(sp)
  402be4:	8e08fffc 	lw	t0,-4(s0)
  402be8:	08100b07 	j	402c1c <vfprintf+0x9b4>
  402bec:	afa805bc 	sw	t0,1468(sp)
  402bf0:	32240010 	andi	a0,s1,0x10
  402bf4:	14800006 	bnez	a0,402c10 <vfprintf+0x9a8>
  402bf8:	26020004 	addiu	v0,s0,4
  402bfc:	32240040 	andi	a0,s1,0x40
  402c00:	50800004 	beqzl	a0,402c14 <vfprintf+0x9ac>
  402c04:	8e100000 	lw	s0,0(s0)
  402c08:	08100b05 	j	402c14 <vfprintf+0x9ac>
  402c0c:	96100000 	lhu	s0,0(s0)
  402c10:	8e100000 	lw	s0,0(s0)
  402c14:	afb005b8 	sw	s0,1464(sp)
  402c18:	00408021 	move	s0,v0
  402c1c:	32220001 	andi	v0,s1,0x1
  402c20:	1040000b 	beqz	v0,402c50 <vfprintf+0x9e8>
  402c24:	24060010 	li	a2,16
  402c28:	8fa805b8 	lw	t0,1464(sp)
  402c2c:	10600005 	beqz	v1,402c44 <vfprintf+0x9dc>
  402c30:	0008102b 	sltu	v0,zero,t0
  402c34:	8fa805c4 	lw	t0,1476(sp)
  402c38:	8fa305bc 	lw	v1,1468(sp)
  402c3c:	01031025 	or	v0,t0,v1
  402c40:	0002102b 	sltu	v0,zero,v0
  402c44:	36230002 	ori	v1,s1,0x2
  402c48:	24060010 	li	a2,16
  402c4c:	0062880b 	movn	s1,v1,v0
  402c50:	08100b17 	j	402c5c <vfprintf+0x9f4>
  402c54:	a3a005b2 	sb	zero,1458(sp)
  402c58:	2406000a 	li	a2,10
  402c5c:	06a00002 	bltz	s5,402c68 <vfprintf+0xa00>
  402c60:	2402ff7f 	li	v0,-129
  402c64:	02228824 	and	s1,s1,v0
  402c68:	32220020 	andi	v0,s1,0x20
  402c6c:	10400069 	beqz	v0,402e14 <vfprintf+0xbac>
  402c70:	8fa805b8 	lw	t0,1464(sp)
  402c74:	8fa805c4 	lw	t0,1476(sp)
  402c78:	8fa305bc 	lw	v1,1468(sp)
  402c7c:	01031025 	or	v0,t0,v1
  402c80:	14400004 	bnez	v0,402c94 <vfprintf+0xa2c>
  402c84:	8fa805bc 	lw	t0,1468(sp)
  402c88:	12a0006e 	beqz	s5,402e44 <vfprintf+0xbdc>
  402c8c:	27b3017c 	addiu	s3,sp,380
  402c90:	8fa805bc 	lw	t0,1468(sp)
  402c94:	15000006 	bnez	t0,402cb0 <vfprintf+0xa48>
  402c98:	32270001 	andi	a3,s1,0x1
  402c9c:	8fa805e0 	lw	t0,1504(sp)
  402ca0:	8fa405c4 	lw	a0,1476(sp)
  402ca4:	27a5017c 	addiu	a1,sp,380
  402ca8:	08100b8e 	j	402e38 <vfprintf+0xbd0>
  402cac:	afa80010 	sw	t0,16(sp)
  402cb0:	2402000a 	li	v0,10
  402cb4:	10c20008 	beq	a2,v0,402cd8 <vfprintf+0xa70>
  402cb8:	24020010 	li	v0,16
  402cbc:	10c20041 	beq	a2,v0,402dc4 <vfprintf+0xb5c>
  402cc0:	24020008 	li	v0,8
  402cc4:	14c20051 	bne	a2,v0,402e0c <vfprintf+0xba4>
  402cc8:	8fa305c4 	lw	v1,1476(sp)
  402ccc:	8fa205bc 	lw	v0,1468(sp)
  402cd0:	08100b5f 	j	402d7c <vfprintf+0xb14>
  402cd4:	27b3017c 	addiu	s3,sp,380
  402cd8:	8fa805bc 	lw	t0,1468(sp)
  402cdc:	05010011 	bgez	t0,402d24 <vfprintf+0xabc>
  402ce0:	8fbe05c4 	lw	s8,1476(sp)
  402ce4:	01002821 	move	a1,t0
  402ce8:	03c02021 	move	a0,s8
  402cec:	2406000a 	li	a2,10
  402cf0:	0c100e55 	jal	403954 <__umoddi3>
  402cf4:	00003821 	move	a3,zero
  402cf8:	8fa405c4 	lw	a0,1476(sp)
  402cfc:	8fa505bc 	lw	a1,1468(sp)
  402d00:	24420030 	addiu	v0,v0,48
  402d04:	2406000a 	li	a2,10
  402d08:	00003821 	move	a3,zero
  402d0c:	0c100e60 	jal	403980 <__udivdi3>
  402d10:	a3a2017b 	sb	v0,379(sp)
  402d14:	0040f021 	move	s8,v0
  402d18:	00604021 	move	t0,v1
  402d1c:	08100b4a 	j	402d28 <vfprintf+0xac0>
  402d20:	27b3017b 	addiu	s3,sp,379
  402d24:	27b3017c 	addiu	s3,sp,380
  402d28:	03c02021 	move	a0,s8
  402d2c:	01002821 	move	a1,t0
  402d30:	2406000a 	li	a2,10
  402d34:	00003821 	move	a3,zero
  402d38:	0c100f56 	jal	403d58 <__moddi3>
  402d3c:	afa805ec 	sw	t0,1516(sp)
  402d40:	24420030 	addiu	v0,v0,48
  402d44:	2673ffff 	addiu	s3,s3,-1
  402d48:	a2620000 	sb	v0,0(s3)
  402d4c:	8fa805ec 	lw	t0,1516(sp)
  402d50:	03c02021 	move	a0,s8
  402d54:	2406000a 	li	a2,10
  402d58:	01002821 	move	a1,t0
  402d5c:	0c101edd 	jal	407b74 <__divdi3>
  402d60:	00003821 	move	a3,zero
  402d64:	0040f021 	move	s8,v0
  402d68:	00621025 	or	v0,v1,v0
  402d6c:	1440ffee 	bnez	v0,402d28 <vfprintf+0xac0>
  402d70:	00604021 	move	t0,v1
  402d74:	08100b92 	j	402e48 <vfprintf+0xbe0>
  402d78:	27a3017c 	addiu	v1,sp,380
  402d7c:	00022f40 	sll	a1,v0,0x1d
  402d80:	30640007 	andi	a0,v1,0x7
  402d84:	000318c2 	srl	v1,v1,0x3
  402d88:	00a31825 	or	v1,a1,v1
  402d8c:	000210c2 	srl	v0,v0,0x3
  402d90:	2673ffff 	addiu	s3,s3,-1
  402d94:	24840030 	addiu	a0,a0,48
  402d98:	00622825 	or	a1,v1,v0
  402d9c:	14a0fff7 	bnez	a1,402d7c <vfprintf+0xb14>
  402da0:	a2640000 	sb	a0,0(s3)
  402da4:	10e00027 	beqz	a3,402e44 <vfprintf+0xbdc>
  402da8:	02601821 	move	v1,s3
  402dac:	24020030 	li	v0,48
  402db0:	50820025 	beql	a0,v0,402e48 <vfprintf+0xbe0>
  402db4:	27a3017c 	addiu	v1,sp,380
  402db8:	2673ffff 	addiu	s3,s3,-1
  402dbc:	08100b91 	j	402e44 <vfprintf+0xbdc>
  402dc0:	a062ffff 	sb	v0,-1(v1)
  402dc4:	8fa305c4 	lw	v1,1476(sp)
  402dc8:	8fa205bc 	lw	v0,1468(sp)
  402dcc:	27b3017c 	addiu	s3,sp,380
  402dd0:	8fa805e0 	lw	t0,1504(sp)
  402dd4:	3064000f 	andi	a0,v1,0xf
  402dd8:	2673ffff 	addiu	s3,s3,-1
  402ddc:	01042021 	addu	a0,t0,a0
  402de0:	90840000 	lbu	a0,0(a0)
  402de4:	00031902 	srl	v1,v1,0x4
  402de8:	a2640000 	sb	a0,0(s3)
  402dec:	00022700 	sll	a0,v0,0x1c
  402df0:	00831825 	or	v1,a0,v1
  402df4:	00021102 	srl	v0,v0,0x4
  402df8:	00622025 	or	a0,v1,v0
  402dfc:	1480fff5 	bnez	a0,402dd4 <vfprintf+0xb6c>
  402e00:	8fa805e0 	lw	t0,1504(sp)
  402e04:	08100b92 	j	402e48 <vfprintf+0xbe0>
  402e08:	27a3017c 	addiu	v1,sp,380
  402e0c:	0c101b60 	jal	406d80 <abort>
  402e10:	00000000 	nop
  402e14:	15000004 	bnez	t0,402e28 <vfprintf+0xbc0>
  402e18:	8fa805e0 	lw	t0,1504(sp)
  402e1c:	12a00009 	beqz	s5,402e44 <vfprintf+0xbdc>
  402e20:	27b3017c 	addiu	s3,sp,380
  402e24:	8fa805e0 	lw	t0,1504(sp)
  402e28:	8fa405b8 	lw	a0,1464(sp)
  402e2c:	27a5017c 	addiu	a1,sp,380
  402e30:	afa80010 	sw	t0,16(sp)
  402e34:	32270001 	andi	a3,s1,0x1
  402e38:	0c100848 	jal	402120 <__ultoa>
  402e3c:	00000000 	nop
  402e40:	00409821 	move	s3,v0
  402e44:	27a3017c 	addiu	v1,sp,380
  402e48:	00731823 	subu	v1,v1,s3
  402e4c:	08100ba6 	j	402e98 <vfprintf+0xc30>
  402e50:	02a0f021 	move	s8,s5
  402e54:	12c002a8 	beqz	s6,4038f8 <vfprintf+0x1690>
  402e58:	a3a205b2 	sb	v0,1458(sp)
  402e5c:	a3b60020 	sb	s6,32(sp)
  402e60:	a3a005b2 	sb	zero,1458(sp)
  402e64:	24030001 	li	v1,1
  402e68:	0000f021 	move	s8,zero
  402e6c:	08100ba6 	j	402e98 <vfprintf+0xc30>
  402e70:	27b30020 	addiu	s3,sp,32
  402e74:	08100ba5 	j	402e94 <vfprintf+0xc2c>
  402e78:	24030003 	li	v1,3
  402e7c:	3c130041 	lui	s3,0x41
  402e80:	24030003 	li	v1,3
  402e84:	0000f021 	move	s8,zero
  402e88:	08100ba6 	j	402e98 <vfprintf+0xc30>
  402e8c:	2673b52c 	addiu	s3,s3,-19156
  402e90:	8fb105d8 	lw	s1,1496(sp)
  402e94:	0000f021 	move	s8,zero
  402e98:	93a205b2 	lbu	v0,1458(sp)
  402e9c:	10400004 	beqz	v0,402eb0 <vfprintf+0xc48>
  402ea0:	32220002 	andi	v0,s1,0x2
  402ea4:	24680001 	addiu	t0,v1,1
  402ea8:	08100bae 	j	402eb8 <vfprintf+0xc50>
  402eac:	afa805dc 	sw	t0,1500(sp)
  402eb0:	00621021 	addu	v0,v1,v0
  402eb4:	afa205dc 	sw	v0,1500(sp)
  402eb8:	8fa805dc 	lw	t0,1500(sp)
  402ebc:	011e102a 	slt	v0,t0,s8
  402ec0:	03c2400b 	movn	t0,s8,v0
  402ec4:	afa805d8 	sw	t0,1496(sp)
  402ec8:	32280084 	andi	t0,s1,0x84
  402ecc:	15000037 	bnez	t0,402fac <vfprintf+0xd44>
  402ed0:	afa805e8 	sw	t0,1512(sp)
  402ed4:	8fa805c8 	lw	t0,1480(sp)
  402ed8:	8fa205d8 	lw	v0,1496(sp)
  402edc:	01023823 	subu	a3,t0,v0
  402ee0:	18e00032 	blez	a3,402fac <vfprintf+0xd44>
  402ee4:	24090010 	li	t1,16
  402ee8:	28e40011 	slti	a0,a3,17
  402eec:	1480001b 	bnez	a0,402f5c <vfprintf+0xcf4>
  402ef0:	8fa2059c 	lw	v0,1436(sp)
  402ef4:	24420010 	addiu	v0,v0,16
  402ef8:	afa2059c 	sw	v0,1436(sp)
  402efc:	8fa20598 	lw	v0,1432(sp)
  402f00:	3c040041 	lui	a0,0x41
  402f04:	2484c038 	addiu	a0,a0,-16328
  402f08:	24420001 	addiu	v0,v0,1
  402f0c:	afa20598 	sw	v0,1432(sp)
  402f10:	28420008 	slti	v0,v0,8
  402f14:	aee40000 	sw	a0,0(s7)
  402f18:	10400003 	beqz	v0,402f28 <vfprintf+0xcc0>
  402f1c:	aee90004 	sw	t1,4(s7)
  402f20:	08100bd5 	j	402f54 <vfprintf+0xcec>
  402f24:	26f70008 	addiu	s7,s7,8
  402f28:	02402021 	move	a0,s2
  402f2c:	27a50594 	addiu	a1,sp,1428
  402f30:	afa305f8 	sw	v1,1528(sp)
  402f34:	afa705f0 	sw	a3,1520(sp)
  402f38:	0c10088c 	jal	402230 <__sprint>
  402f3c:	afa905f4 	sw	t1,1524(sp)
  402f40:	8fa305f8 	lw	v1,1528(sp)
  402f44:	8fa705f0 	lw	a3,1520(sp)
  402f48:	14400271 	bnez	v0,403910 <vfprintf+0x16a8>
  402f4c:	8fa905f4 	lw	t1,1524(sp)
  402f50:	0280b821 	move	s7,s4
  402f54:	08100bba 	j	402ee8 <vfprintf+0xc80>
  402f58:	24e7fff0 	addiu	a3,a3,-16
  402f5c:	aee70004 	sw	a3,4(s7)
  402f60:	00473821 	addu	a3,v0,a3
  402f64:	8fa20598 	lw	v0,1432(sp)
  402f68:	3c050041 	lui	a1,0x41
  402f6c:	24a5c038 	addiu	a1,a1,-16328
  402f70:	24420001 	addiu	v0,v0,1
  402f74:	afa20598 	sw	v0,1432(sp)
  402f78:	28420008 	slti	v0,v0,8
  402f7c:	aee50000 	sw	a1,0(s7)
  402f80:	10400003 	beqz	v0,402f90 <vfprintf+0xd28>
  402f84:	afa7059c 	sw	a3,1436(sp)
  402f88:	08100beb 	j	402fac <vfprintf+0xd44>
  402f8c:	26f70008 	addiu	s7,s7,8
  402f90:	02402021 	move	a0,s2
  402f94:	27a50594 	addiu	a1,sp,1428
  402f98:	0c10088c 	jal	402230 <__sprint>
  402f9c:	afa305f8 	sw	v1,1528(sp)
  402fa0:	1440025b 	bnez	v0,403910 <vfprintf+0x16a8>
  402fa4:	8fa305f8 	lw	v1,1528(sp)
  402fa8:	0280b821 	move	s7,s4
  402fac:	93a505b2 	lbu	a1,1458(sp)
  402fb0:	8fa4059c 	lw	a0,1436(sp)
  402fb4:	10a00007 	beqz	a1,402fd4 <vfprintf+0xd6c>
  402fb8:	8fa20598 	lw	v0,1432(sp)
  402fbc:	27a505b2 	addiu	a1,sp,1458
  402fc0:	aee50000 	sw	a1,0(s7)
  402fc4:	24050001 	li	a1,1
  402fc8:	aee50004 	sw	a1,4(s7)
  402fcc:	08100c00 	j	403000 <vfprintf+0xd98>
  402fd0:	24840001 	addiu	a0,a0,1
  402fd4:	32250002 	andi	a1,s1,0x2
  402fd8:	10a00018 	beqz	a1,40303c <vfprintf+0xdd4>
  402fdc:	8fa805e8 	lw	t0,1512(sp)
  402fe0:	24050030 	li	a1,48
  402fe4:	a3a505b0 	sb	a1,1456(sp)
  402fe8:	27a505b0 	addiu	a1,sp,1456
  402fec:	aee50000 	sw	a1,0(s7)
  402ff0:	24050002 	li	a1,2
  402ff4:	a3b605b1 	sb	s6,1457(sp)
  402ff8:	aee50004 	sw	a1,4(s7)
  402ffc:	24840002 	addiu	a0,a0,2
  403000:	24420001 	addiu	v0,v0,1
  403004:	afa20598 	sw	v0,1432(sp)
  403008:	28420008 	slti	v0,v0,8
  40300c:	14400009 	bnez	v0,403034 <vfprintf+0xdcc>
  403010:	afa4059c 	sw	a0,1436(sp)
  403014:	02402021 	move	a0,s2
  403018:	27a50594 	addiu	a1,sp,1428
  40301c:	0c10088c 	jal	402230 <__sprint>
  403020:	afa305f8 	sw	v1,1528(sp)
  403024:	1440023a 	bnez	v0,403910 <vfprintf+0x16a8>
  403028:	8fa305f8 	lw	v1,1528(sp)
  40302c:	08100c0e 	j	403038 <vfprintf+0xdd0>
  403030:	0280b821 	move	s7,s4
  403034:	26f70008 	addiu	s7,s7,8
  403038:	8fa805e8 	lw	t0,1512(sp)
  40303c:	24020080 	li	v0,128
  403040:	15020036 	bne	t0,v0,40311c <vfprintf+0xeb4>
  403044:	8fa805dc 	lw	t0,1500(sp)
  403048:	8fa805c8 	lw	t0,1480(sp)
  40304c:	8fa205d8 	lw	v0,1496(sp)
  403050:	01023823 	subu	a3,t0,v0
  403054:	18e00030 	blez	a3,403118 <vfprintf+0xeb0>
  403058:	3c090041 	lui	t1,0x41
  40305c:	2529c028 	addiu	t1,t1,-16344
  403060:	240a0010 	li	t2,16
  403064:	28e50011 	slti	a1,a3,17
  403068:	8fa4059c 	lw	a0,1436(sp)
  40306c:	8fa20598 	lw	v0,1432(sp)
  403070:	14a00019 	bnez	a1,4030d8 <vfprintf+0xe70>
  403074:	aee90000 	sw	t1,0(s7)
  403078:	24420001 	addiu	v0,v0,1
  40307c:	24840010 	addiu	a0,a0,16
  403080:	afa20598 	sw	v0,1432(sp)
  403084:	28420008 	slti	v0,v0,8
  403088:	aeea0004 	sw	t2,4(s7)
  40308c:	10400003 	beqz	v0,40309c <vfprintf+0xe34>
  403090:	afa4059c 	sw	a0,1436(sp)
  403094:	08100c34 	j	4030d0 <vfprintf+0xe68>
  403098:	26f70008 	addiu	s7,s7,8
  40309c:	02402021 	move	a0,s2
  4030a0:	27a50594 	addiu	a1,sp,1428
  4030a4:	afa305f8 	sw	v1,1528(sp)
  4030a8:	afa705f0 	sw	a3,1520(sp)
  4030ac:	afa905f4 	sw	t1,1524(sp)
  4030b0:	0c10088c 	jal	402230 <__sprint>
  4030b4:	afaa05ec 	sw	t2,1516(sp)
  4030b8:	8fa305f8 	lw	v1,1528(sp)
  4030bc:	8fa705f0 	lw	a3,1520(sp)
  4030c0:	8fa905f4 	lw	t1,1524(sp)
  4030c4:	14400212 	bnez	v0,403910 <vfprintf+0x16a8>
  4030c8:	8faa05ec 	lw	t2,1516(sp)
  4030cc:	0280b821 	move	s7,s4
  4030d0:	08100c19 	j	403064 <vfprintf+0xdfc>
  4030d4:	24e7fff0 	addiu	a3,a3,-16
  4030d8:	24420001 	addiu	v0,v0,1
  4030dc:	aee70004 	sw	a3,4(s7)
  4030e0:	afa20598 	sw	v0,1432(sp)
  4030e4:	00873821 	addu	a3,a0,a3
  4030e8:	28420008 	slti	v0,v0,8
  4030ec:	10400003 	beqz	v0,4030fc <vfprintf+0xe94>
  4030f0:	afa7059c 	sw	a3,1436(sp)
  4030f4:	08100c46 	j	403118 <vfprintf+0xeb0>
  4030f8:	26f70008 	addiu	s7,s7,8
  4030fc:	02402021 	move	a0,s2
  403100:	27a50594 	addiu	a1,sp,1428
  403104:	0c10088c 	jal	402230 <__sprint>
  403108:	afa305f8 	sw	v1,1528(sp)
  40310c:	14400200 	bnez	v0,403910 <vfprintf+0x16a8>
  403110:	8fa305f8 	lw	v1,1528(sp)
  403114:	0280b821 	move	s7,s4
  403118:	8fa805dc 	lw	t0,1500(sp)
  40311c:	03c8f023 	subu	s8,s8,t0
  403120:	1bc0002e 	blez	s8,4031dc <vfprintf+0xf74>
  403124:	3c070041 	lui	a3,0x41
  403128:	24e7c028 	addiu	a3,a3,-16344
  40312c:	24090010 	li	t1,16
  403130:	2bc40011 	slti	a0,s8,17
  403134:	8fa6059c 	lw	a2,1436(sp)
  403138:	8fa20598 	lw	v0,1432(sp)
  40313c:	14800017 	bnez	a0,40319c <vfprintf+0xf34>
  403140:	aee70000 	sw	a3,0(s7)
  403144:	24420001 	addiu	v0,v0,1
  403148:	24c60010 	addiu	a2,a2,16
  40314c:	afa20598 	sw	v0,1432(sp)
  403150:	28420008 	slti	v0,v0,8
  403154:	aee90004 	sw	t1,4(s7)
  403158:	10400003 	beqz	v0,403168 <vfprintf+0xf00>
  40315c:	afa6059c 	sw	a2,1436(sp)
  403160:	08100c65 	j	403194 <vfprintf+0xf2c>
  403164:	26f70008 	addiu	s7,s7,8
  403168:	02402021 	move	a0,s2
  40316c:	27a50594 	addiu	a1,sp,1428
  403170:	afa305f8 	sw	v1,1528(sp)
  403174:	afa705f0 	sw	a3,1520(sp)
  403178:	0c10088c 	jal	402230 <__sprint>
  40317c:	afa905f4 	sw	t1,1524(sp)
  403180:	8fa305f8 	lw	v1,1528(sp)
  403184:	8fa705f0 	lw	a3,1520(sp)
  403188:	144001e1 	bnez	v0,403910 <vfprintf+0x16a8>
  40318c:	8fa905f4 	lw	t1,1524(sp)
  403190:	0280b821 	move	s7,s4
  403194:	08100c4c 	j	403130 <vfprintf+0xec8>
  403198:	27defff0 	addiu	s8,s8,-16
  40319c:	24420001 	addiu	v0,v0,1
  4031a0:	aefe0004 	sw	s8,4(s7)
  4031a4:	afa20598 	sw	v0,1432(sp)
  4031a8:	00def021 	addu	s8,a2,s8
  4031ac:	28420008 	slti	v0,v0,8
  4031b0:	10400003 	beqz	v0,4031c0 <vfprintf+0xf58>
  4031b4:	afbe059c 	sw	s8,1436(sp)
  4031b8:	08100c77 	j	4031dc <vfprintf+0xf74>
  4031bc:	26f70008 	addiu	s7,s7,8
  4031c0:	02402021 	move	a0,s2
  4031c4:	27a50594 	addiu	a1,sp,1428
  4031c8:	0c10088c 	jal	402230 <__sprint>
  4031cc:	afa305f8 	sw	v1,1528(sp)
  4031d0:	144001cf 	bnez	v0,403910 <vfprintf+0x16a8>
  4031d4:	8fa305f8 	lw	v1,1528(sp)
  4031d8:	0280b821 	move	s7,s4
  4031dc:	32220100 	andi	v0,s1,0x100
  4031e0:	8fa9059c 	lw	t1,1436(sp)
  4031e4:	14400006 	bnez	v0,403200 <vfprintf+0xf98>
  4031e8:	8fbe0598 	lw	s8,1432(sp)
  4031ec:	aee30004 	sw	v1,4(s7)
  4031f0:	01231821 	addu	v1,t1,v1
  4031f4:	aef30000 	sw	s3,0(s7)
  4031f8:	08100c99 	j	403264 <vfprintf+0xffc>
  4031fc:	afa3059c 	sw	v1,1436(sp)
  403200:	2ad60066 	slti	s6,s6,102
  403204:	16c0010f 	bnez	s6,403644 <vfprintf+0x13dc>
  403208:	8fa805c0 	lw	t0,1472(sp)
  40320c:	8fa305cc 	lw	v1,1484(sp)
  403210:	8fa205d4 	lw	v0,1492(sp)
  403214:	00003021 	move	a2,zero
  403218:	00602021 	move	a0,v1
  40321c:	00402821 	move	a1,v0
  403220:	00003821 	move	a3,zero
  403224:	0c10265a 	jal	409968 <__eqdf2>
  403228:	afa905f4 	sw	t1,1524(sp)
  40322c:	14400049 	bnez	v0,403354 <vfprintf+0x10ec>
  403230:	8fa905f4 	lw	t1,1524(sp)
  403234:	12a00005 	beqz	s5,40324c <vfprintf+0xfe4>
  403238:	3c020041 	lui	v0,0x41
  40323c:	32220001 	andi	v0,s1,0x1
  403240:	14400014 	bnez	v0,403294 <vfprintf+0x102c>
  403244:	3c020041 	lui	v0,0x41
  403248:	3c020041 	lui	v0,0x41
  40324c:	2442b530 	addiu	v0,v0,-19152
  403250:	aee20000 	sw	v0,0(s7)
  403254:	25290001 	addiu	t1,t1,1
  403258:	24020001 	li	v0,1
  40325c:	aee20004 	sw	v0,4(s7)
  403260:	afa9059c 	sw	t1,1436(sp)
  403264:	27de0001 	addiu	s8,s8,1
  403268:	afbe0598 	sw	s8,1432(sp)
  40326c:	2bde0008 	slti	s8,s8,8
  403270:	17c00160 	bnez	s8,4037f4 <vfprintf+0x158c>
  403274:	26e80008 	addiu	t0,s7,8
  403278:	02402021 	move	a0,s2
  40327c:	0c10088c 	jal	402230 <__sprint>
  403280:	27a50594 	addiu	a1,sp,1428
  403284:	144001a2 	bnez	v0,403910 <vfprintf+0x16a8>
  403288:	02804021 	move	t0,s4
  40328c:	08100dfe 	j	4037f8 <vfprintf+0x1590>
  403290:	32310004 	andi	s1,s1,0x4
  403294:	2442b534 	addiu	v0,v0,-19148
  403298:	27de0001 	addiu	s8,s8,1
  40329c:	aee20000 	sw	v0,0(s7)
  4032a0:	25290002 	addiu	t1,t1,2
  4032a4:	24020002 	li	v0,2
  4032a8:	afbe0598 	sw	s8,1432(sp)
  4032ac:	2bde0008 	slti	s8,s8,8
  4032b0:	aee20004 	sw	v0,4(s7)
  4032b4:	13c00003 	beqz	s8,4032c4 <vfprintf+0x105c>
  4032b8:	afa9059c 	sw	t1,1436(sp)
  4032bc:	08100cb6 	j	4032d8 <vfprintf+0x1070>
  4032c0:	26e80008 	addiu	t0,s7,8
  4032c4:	02402021 	move	a0,s2
  4032c8:	0c10088c 	jal	402230 <__sprint>
  4032cc:	27a50594 	addiu	a1,sp,1428
  4032d0:	1440018f 	bnez	v0,403910 <vfprintf+0x16a8>
  4032d4:	02804021 	move	t0,s4
  4032d8:	8fa205c0 	lw	v0,1472(sp)
  4032dc:	2453ffff 	addiu	s3,v0,-1
  4032e0:	1a600144 	blez	s3,4037f4 <vfprintf+0x158c>
  4032e4:	3c150041 	lui	s5,0x41
  4032e8:	26b5c028 	addiu	s5,s5,-16344
  4032ec:	24160010 	li	s6,16
  4032f0:	2a640011 	slti	a0,s3,17
  4032f4:	8fa3059c 	lw	v1,1436(sp)
  4032f8:	8fa20598 	lw	v0,1432(sp)
  4032fc:	14800011 	bnez	a0,403344 <vfprintf+0x10dc>
  403300:	ad150000 	sw	s5,0(t0)
  403304:	24420001 	addiu	v0,v0,1
  403308:	24630010 	addiu	v1,v1,16
  40330c:	afa20598 	sw	v0,1432(sp)
  403310:	28420008 	slti	v0,v0,8
  403314:	ad160004 	sw	s6,4(t0)
  403318:	10400003 	beqz	v0,403328 <vfprintf+0x10c0>
  40331c:	afa3059c 	sw	v1,1436(sp)
  403320:	08100ccf 	j	40333c <vfprintf+0x10d4>
  403324:	25080008 	addiu	t0,t0,8
  403328:	02402021 	move	a0,s2
  40332c:	0c10088c 	jal	402230 <__sprint>
  403330:	27a50594 	addiu	a1,sp,1428
  403334:	14400176 	bnez	v0,403910 <vfprintf+0x16a8>
  403338:	02804021 	move	t0,s4
  40333c:	08100cbc 	j	4032f0 <vfprintf+0x1088>
  403340:	2673fff0 	addiu	s3,s3,-16
  403344:	ad130004 	sw	s3,4(t0)
  403348:	00739821 	addu	s3,v1,s3
  40334c:	08100d8a 	j	403628 <vfprintf+0x13c0>
  403350:	afb3059c 	sw	s3,1436(sp)
  403354:	8fa305ac 	lw	v1,1452(sp)
  403358:	1c600041 	bgtz	v1,403460 <vfprintf+0x11f8>
  40335c:	8fa805c0 	lw	t0,1472(sp)
  403360:	3c020041 	lui	v0,0x41
  403364:	2442b534 	addiu	v0,v0,-19148
  403368:	27de0001 	addiu	s8,s8,1
  40336c:	aee20000 	sw	v0,0(s7)
  403370:	25290002 	addiu	t1,t1,2
  403374:	24020002 	li	v0,2
  403378:	afbe0598 	sw	s8,1432(sp)
  40337c:	2bde0008 	slti	s8,s8,8
  403380:	aee20004 	sw	v0,4(s7)
  403384:	13c00003 	beqz	s8,403394 <vfprintf+0x112c>
  403388:	afa9059c 	sw	t1,1436(sp)
  40338c:	08100cea 	j	4033a8 <vfprintf+0x1140>
  403390:	26e80008 	addiu	t0,s7,8
  403394:	02402021 	move	a0,s2
  403398:	0c10088c 	jal	402230 <__sprint>
  40339c:	27a50594 	addiu	a1,sp,1428
  4033a0:	1440015b 	bnez	v0,403910 <vfprintf+0x16a8>
  4033a4:	02804021 	move	t0,s4
  4033a8:	8fb505ac 	lw	s5,1452(sp)
  4033ac:	0015a823 	negu	s5,s5
  4033b0:	1aa00026 	blez	s5,40344c <vfprintf+0x11e4>
  4033b4:	3c160041 	lui	s6,0x41
  4033b8:	26d6c028 	addiu	s6,s6,-16344
  4033bc:	241e0010 	li	s8,16
  4033c0:	2aa40011 	slti	a0,s5,17
  4033c4:	8fa3059c 	lw	v1,1436(sp)
  4033c8:	8fa20598 	lw	v0,1432(sp)
  4033cc:	14800011 	bnez	a0,403414 <vfprintf+0x11ac>
  4033d0:	ad160000 	sw	s6,0(t0)
  4033d4:	24420001 	addiu	v0,v0,1
  4033d8:	24630010 	addiu	v1,v1,16
  4033dc:	afa20598 	sw	v0,1432(sp)
  4033e0:	28420008 	slti	v0,v0,8
  4033e4:	ad1e0004 	sw	s8,4(t0)
  4033e8:	10400003 	beqz	v0,4033f8 <vfprintf+0x1190>
  4033ec:	afa3059c 	sw	v1,1436(sp)
  4033f0:	08100d03 	j	40340c <vfprintf+0x11a4>
  4033f4:	25080008 	addiu	t0,t0,8
  4033f8:	02402021 	move	a0,s2
  4033fc:	0c10088c 	jal	402230 <__sprint>
  403400:	27a50594 	addiu	a1,sp,1428
  403404:	14400142 	bnez	v0,403910 <vfprintf+0x16a8>
  403408:	02804021 	move	t0,s4
  40340c:	08100cf0 	j	4033c0 <vfprintf+0x1158>
  403410:	26b5fff0 	addiu	s5,s5,-16
  403414:	24420001 	addiu	v0,v0,1
  403418:	ad150004 	sw	s5,4(t0)
  40341c:	afa20598 	sw	v0,1432(sp)
  403420:	0075a821 	addu	s5,v1,s5
  403424:	28420008 	slti	v0,v0,8
  403428:	10400003 	beqz	v0,403438 <vfprintf+0x11d0>
  40342c:	afb5059c 	sw	s5,1436(sp)
  403430:	08100d13 	j	40344c <vfprintf+0x11e4>
  403434:	25080008 	addiu	t0,t0,8
  403438:	02402021 	move	a0,s2
  40343c:	0c10088c 	jal	402230 <__sprint>
  403440:	27a50594 	addiu	a1,sp,1428
  403444:	14400132 	bnez	v0,403910 <vfprintf+0x16a8>
  403448:	02804021 	move	t0,s4
  40344c:	8fa305c0 	lw	v1,1472(sp)
  403450:	ad130000 	sw	s3,0(t0)
  403454:	8fa2059c 	lw	v0,1436(sp)
  403458:	08100d87 	j	40361c <vfprintf+0x13b4>
  40345c:	ad030004 	sw	v1,4(t0)
  403460:	0068102a 	slt	v0,v1,t0
  403464:	14400044 	bnez	v0,403578 <vfprintf+0x1310>
  403468:	aef30000 	sw	s3,0(s7)
  40346c:	27de0001 	addiu	s8,s8,1
  403470:	01284821 	addu	t1,t1,t0
  403474:	afbe0598 	sw	s8,1432(sp)
  403478:	2bde0008 	slti	s8,s8,8
  40347c:	aee80004 	sw	t0,4(s7)
  403480:	13c00003 	beqz	s8,403490 <vfprintf+0x1228>
  403484:	afa9059c 	sw	t1,1436(sp)
  403488:	08100d29 	j	4034a4 <vfprintf+0x123c>
  40348c:	26e80008 	addiu	t0,s7,8
  403490:	02402021 	move	a0,s2
  403494:	0c10088c 	jal	402230 <__sprint>
  403498:	27a50594 	addiu	a1,sp,1428
  40349c:	1440011c 	bnez	v0,403910 <vfprintf+0x16a8>
  4034a0:	02804021 	move	t0,s4
  4034a4:	8fb305ac 	lw	s3,1452(sp)
  4034a8:	8fa205c0 	lw	v0,1472(sp)
  4034ac:	02629823 	subu	s3,s3,v0
  4034b0:	1a600026 	blez	s3,40354c <vfprintf+0x12e4>
  4034b4:	3c150041 	lui	s5,0x41
  4034b8:	26b5c028 	addiu	s5,s5,-16344
  4034bc:	24160010 	li	s6,16
  4034c0:	2a640011 	slti	a0,s3,17
  4034c4:	8fa3059c 	lw	v1,1436(sp)
  4034c8:	8fa20598 	lw	v0,1432(sp)
  4034cc:	14800011 	bnez	a0,403514 <vfprintf+0x12ac>
  4034d0:	ad150000 	sw	s5,0(t0)
  4034d4:	24420001 	addiu	v0,v0,1
  4034d8:	24630010 	addiu	v1,v1,16
  4034dc:	afa20598 	sw	v0,1432(sp)
  4034e0:	28420008 	slti	v0,v0,8
  4034e4:	ad160004 	sw	s6,4(t0)
  4034e8:	10400003 	beqz	v0,4034f8 <vfprintf+0x1290>
  4034ec:	afa3059c 	sw	v1,1436(sp)
  4034f0:	08100d43 	j	40350c <vfprintf+0x12a4>
  4034f4:	25080008 	addiu	t0,t0,8
  4034f8:	02402021 	move	a0,s2
  4034fc:	0c10088c 	jal	402230 <__sprint>
  403500:	27a50594 	addiu	a1,sp,1428
  403504:	14400102 	bnez	v0,403910 <vfprintf+0x16a8>
  403508:	02804021 	move	t0,s4
  40350c:	08100d30 	j	4034c0 <vfprintf+0x1258>
  403510:	2673fff0 	addiu	s3,s3,-16
  403514:	24420001 	addiu	v0,v0,1
  403518:	ad130004 	sw	s3,4(t0)
  40351c:	afa20598 	sw	v0,1432(sp)
  403520:	00739821 	addu	s3,v1,s3
  403524:	28420008 	slti	v0,v0,8
  403528:	10400003 	beqz	v0,403538 <vfprintf+0x12d0>
  40352c:	afb3059c 	sw	s3,1436(sp)
  403530:	08100d53 	j	40354c <vfprintf+0x12e4>
  403534:	25080008 	addiu	t0,t0,8
  403538:	02402021 	move	a0,s2
  40353c:	0c10088c 	jal	402230 <__sprint>
  403540:	27a50594 	addiu	a1,sp,1428
  403544:	144000f2 	bnez	v0,403910 <vfprintf+0x16a8>
  403548:	02804021 	move	t0,s4
  40354c:	32220001 	andi	v0,s1,0x1
  403550:	504000a9 	beqzl	v0,4037f8 <vfprintf+0x1590>
  403554:	32310004 	andi	s1,s1,0x4
  403558:	3c020041 	lui	v0,0x41
  40355c:	2442ab24 	addiu	v0,v0,-21724
  403560:	ad020000 	sw	v0,0(t0)
  403564:	24020001 	li	v0,1
  403568:	ad020004 	sw	v0,4(t0)
  40356c:	8fa2059c 	lw	v0,1436(sp)
  403570:	08100d88 	j	403620 <vfprintf+0x13b8>
  403574:	24420001 	addiu	v0,v0,1
  403578:	27de0001 	addiu	s8,s8,1
  40357c:	aee30004 	sw	v1,4(s7)
  403580:	afbe0598 	sw	s8,1432(sp)
  403584:	01231821 	addu	v1,t1,v1
  403588:	2bde0008 	slti	s8,s8,8
  40358c:	13c00003 	beqz	s8,40359c <vfprintf+0x1334>
  403590:	afa3059c 	sw	v1,1436(sp)
  403594:	08100d6c 	j	4035b0 <vfprintf+0x1348>
  403598:	26e80008 	addiu	t0,s7,8
  40359c:	02402021 	move	a0,s2
  4035a0:	0c10088c 	jal	402230 <__sprint>
  4035a4:	27a50594 	addiu	a1,sp,1428
  4035a8:	144000d9 	bnez	v0,403910 <vfprintf+0x16a8>
  4035ac:	02804021 	move	t0,s4
  4035b0:	8fa205ac 	lw	v0,1452(sp)
  4035b4:	02629821 	addu	s3,s3,v0
  4035b8:	3c020041 	lui	v0,0x41
  4035bc:	2442ab24 	addiu	v0,v0,-21724
  4035c0:	ad020000 	sw	v0,0(t0)
  4035c4:	24020001 	li	v0,1
  4035c8:	ad020004 	sw	v0,4(t0)
  4035cc:	8fa2059c 	lw	v0,1436(sp)
  4035d0:	24420001 	addiu	v0,v0,1
  4035d4:	afa2059c 	sw	v0,1436(sp)
  4035d8:	8fa20598 	lw	v0,1432(sp)
  4035dc:	24420001 	addiu	v0,v0,1
  4035e0:	afa20598 	sw	v0,1432(sp)
  4035e4:	28420008 	slti	v0,v0,8
  4035e8:	14400006 	bnez	v0,403604 <vfprintf+0x139c>
  4035ec:	25080008 	addiu	t0,t0,8
  4035f0:	02402021 	move	a0,s2
  4035f4:	0c10088c 	jal	402230 <__sprint>
  4035f8:	27a50594 	addiu	a1,sp,1428
  4035fc:	144000c4 	bnez	v0,403910 <vfprintf+0x16a8>
  403600:	02804021 	move	t0,s4
  403604:	8fa305c0 	lw	v1,1472(sp)
  403608:	8fa205ac 	lw	v0,1452(sp)
  40360c:	ad130000 	sw	s3,0(t0)
  403610:	00621023 	subu	v0,v1,v0
  403614:	8fa3059c 	lw	v1,1436(sp)
  403618:	ad020004 	sw	v0,4(t0)
  40361c:	00621021 	addu	v0,v1,v0
  403620:	afa2059c 	sw	v0,1436(sp)
  403624:	8fa20598 	lw	v0,1432(sp)
  403628:	24420001 	addiu	v0,v0,1
  40362c:	afa20598 	sw	v0,1432(sp)
  403630:	28420008 	slti	v0,v0,8
  403634:	1040ff10 	beqz	v0,403278 <vfprintf+0x1010>
  403638:	25080008 	addiu	t0,t0,8
  40363c:	08100dfe 	j	4037f8 <vfprintf+0x1590>
  403640:	32310004 	andi	s1,s1,0x4
  403644:	29020002 	slti	v0,t0,2
  403648:	50400005 	beqzl	v0,403660 <vfprintf+0x13f8>
  40364c:	92620000 	lbu	v0,0(s3)
  403650:	32220001 	andi	v0,s1,0x1
  403654:	50400051 	beqzl	v0,40379c <vfprintf+0x1534>
  403658:	27de0001 	addiu	s8,s8,1
  40365c:	92620000 	lbu	v0,0(s3)
  403660:	27de0001 	addiu	s8,s8,1
  403664:	25290002 	addiu	t1,t1,2
  403668:	a3a205b0 	sb	v0,1456(sp)
  40366c:	2402002e 	li	v0,46
  403670:	a3a205b1 	sb	v0,1457(sp)
  403674:	27a205b0 	addiu	v0,sp,1456
  403678:	aee20000 	sw	v0,0(s7)
  40367c:	afbe0598 	sw	s8,1432(sp)
  403680:	24020002 	li	v0,2
  403684:	2bde0008 	slti	s8,s8,8
  403688:	aee20004 	sw	v0,4(s7)
  40368c:	13c00003 	beqz	s8,40369c <vfprintf+0x1434>
  403690:	afa9059c 	sw	t1,1436(sp)
  403694:	08100dac 	j	4036b0 <vfprintf+0x1448>
  403698:	26f50008 	addiu	s5,s7,8
  40369c:	02402021 	move	a0,s2
  4036a0:	0c10088c 	jal	402230 <__sprint>
  4036a4:	27a50594 	addiu	a1,sp,1428
  4036a8:	14400099 	bnez	v0,403910 <vfprintf+0x16a8>
  4036ac:	0280a821 	move	s5,s4
  4036b0:	8fa305cc 	lw	v1,1484(sp)
  4036b4:	8fa205d4 	lw	v0,1492(sp)
  4036b8:	00003021 	move	a2,zero
  4036bc:	00602021 	move	a0,v1
  4036c0:	00402821 	move	a1,v0
  4036c4:	0c10265a 	jal	409968 <__eqdf2>
  4036c8:	00003821 	move	a3,zero
  4036cc:	8fa805c0 	lw	t0,1472(sp)
  4036d0:	10400009 	beqz	v0,4036f8 <vfprintf+0x1490>
  4036d4:	2503ffff 	addiu	v1,t0,-1
  4036d8:	26730001 	addiu	s3,s3,1
  4036dc:	aeb30000 	sw	s3,0(s5)
  4036e0:	8fb3059c 	lw	s3,1436(sp)
  4036e4:	aea30004 	sw	v1,4(s5)
  4036e8:	8fa20598 	lw	v0,1432(sp)
  4036ec:	02631821 	addu	v1,s3,v1
  4036f0:	08100ddb 	j	40376c <vfprintf+0x1504>
  4036f4:	afa3059c 	sw	v1,1436(sp)
  4036f8:	18600031 	blez	v1,4037c0 <vfprintf+0x1558>
  4036fc:	00609821 	move	s3,v1
  403700:	3c160041 	lui	s6,0x41
  403704:	26d6c028 	addiu	s6,s6,-16344
  403708:	241e0010 	li	s8,16
  40370c:	2a640011 	slti	a0,s3,17
  403710:	8fa3059c 	lw	v1,1436(sp)
  403714:	8fa20598 	lw	v0,1432(sp)
  403718:	14800011 	bnez	a0,403760 <vfprintf+0x14f8>
  40371c:	aeb60000 	sw	s6,0(s5)
  403720:	24420001 	addiu	v0,v0,1
  403724:	24630010 	addiu	v1,v1,16
  403728:	afa20598 	sw	v0,1432(sp)
  40372c:	28420008 	slti	v0,v0,8
  403730:	aebe0004 	sw	s8,4(s5)
  403734:	10400003 	beqz	v0,403744 <vfprintf+0x14dc>
  403738:	afa3059c 	sw	v1,1436(sp)
  40373c:	08100dd6 	j	403758 <vfprintf+0x14f0>
  403740:	26b50008 	addiu	s5,s5,8
  403744:	02402021 	move	a0,s2
  403748:	0c10088c 	jal	402230 <__sprint>
  40374c:	27a50594 	addiu	a1,sp,1428
  403750:	1440006f 	bnez	v0,403910 <vfprintf+0x16a8>
  403754:	0280a821 	move	s5,s4
  403758:	08100dc3 	j	40370c <vfprintf+0x14a4>
  40375c:	2673fff0 	addiu	s3,s3,-16
  403760:	aeb30004 	sw	s3,4(s5)
  403764:	00739821 	addu	s3,v1,s3
  403768:	afb3059c 	sw	s3,1436(sp)
  40376c:	24420001 	addiu	v0,v0,1
  403770:	afa20598 	sw	v0,1432(sp)
  403774:	28420008 	slti	v0,v0,8
  403778:	54400011 	bnezl	v0,4037c0 <vfprintf+0x1558>
  40377c:	26b50008 	addiu	s5,s5,8
  403780:	02402021 	move	a0,s2
  403784:	0c10088c 	jal	402230 <__sprint>
  403788:	27a50594 	addiu	a1,sp,1428
  40378c:	14400060 	bnez	v0,403910 <vfprintf+0x16a8>
  403790:	0280a821 	move	s5,s4
  403794:	08100df1 	j	4037c4 <vfprintf+0x155c>
  403798:	27a205a0 	addiu	v0,sp,1440
  40379c:	24020001 	li	v0,1
  4037a0:	25290001 	addiu	t1,t1,1
  4037a4:	afbe0598 	sw	s8,1432(sp)
  4037a8:	2bde0008 	slti	s8,s8,8
  4037ac:	aef30000 	sw	s3,0(s7)
  4037b0:	aee20004 	sw	v0,4(s7)
  4037b4:	13c0fff2 	beqz	s8,403780 <vfprintf+0x1518>
  4037b8:	afa9059c 	sw	t1,1436(sp)
  4037bc:	26f50008 	addiu	s5,s7,8
  4037c0:	27a205a0 	addiu	v0,sp,1440
  4037c4:	8fa805e4 	lw	t0,1508(sp)
  4037c8:	aea20000 	sw	v0,0(s5)
  4037cc:	8fa2059c 	lw	v0,1436(sp)
  4037d0:	aea80004 	sw	t0,4(s5)
  4037d4:	00481021 	addu	v0,v0,t0
  4037d8:	afa2059c 	sw	v0,1436(sp)
  4037dc:	8fa20598 	lw	v0,1432(sp)
  4037e0:	24420001 	addiu	v0,v0,1
  4037e4:	afa20598 	sw	v0,1432(sp)
  4037e8:	28420008 	slti	v0,v0,8
  4037ec:	1040fea2 	beqz	v0,403278 <vfprintf+0x1010>
  4037f0:	26a80008 	addiu	t0,s5,8
  4037f4:	32310004 	andi	s1,s1,0x4
  4037f8:	1620000d 	bnez	s1,403830 <vfprintf+0x15c8>
  4037fc:	8fa205c8 	lw	v0,1480(sp)
  403800:	8fa805c8 	lw	t0,1480(sp)
  403804:	8fa305d8 	lw	v1,1496(sp)
  403808:	0100b821 	move	s7,t0
  40380c:	0068102a 	slt	v0,v1,t0
  403810:	8fa805d0 	lw	t0,1488(sp)
  403814:	0062b80a 	movz	s7,v1,v0
  403818:	8fa2059c 	lw	v0,1436(sp)
  40381c:	01174021 	addu	t0,t0,s7
  403820:	10400033 	beqz	v0,4038f0 <vfprintf+0x1688>
  403824:	afa805d0 	sw	t0,1488(sp)
  403828:	08100e38 	j	4038e0 <vfprintf+0x1678>
  40382c:	02402021 	move	a0,s2
  403830:	8fa305d8 	lw	v1,1496(sp)
  403834:	00438823 	subu	s1,v0,v1
  403838:	1a20fff1 	blez	s1,403800 <vfprintf+0x1598>
  40383c:	24130010 	li	s3,16
  403840:	2a240011 	slti	a0,s1,17
  403844:	8fa3059c 	lw	v1,1436(sp)
  403848:	14800014 	bnez	a0,40389c <vfprintf+0x1634>
  40384c:	8fa20598 	lw	v0,1432(sp)
  403850:	24420001 	addiu	v0,v0,1
  403854:	3c040041 	lui	a0,0x41
  403858:	2484c038 	addiu	a0,a0,-16328
  40385c:	24630010 	addiu	v1,v1,16
  403860:	afa20598 	sw	v0,1432(sp)
  403864:	28420008 	slti	v0,v0,8
  403868:	ad040000 	sw	a0,0(t0)
  40386c:	ad130004 	sw	s3,4(t0)
  403870:	10400003 	beqz	v0,403880 <vfprintf+0x1618>
  403874:	afa3059c 	sw	v1,1436(sp)
  403878:	08100e25 	j	403894 <vfprintf+0x162c>
  40387c:	25080008 	addiu	t0,t0,8
  403880:	02402021 	move	a0,s2
  403884:	0c10088c 	jal	402230 <__sprint>
  403888:	27a50594 	addiu	a1,sp,1428
  40388c:	14400020 	bnez	v0,403910 <vfprintf+0x16a8>
  403890:	02804021 	move	t0,s4
  403894:	08100e10 	j	403840 <vfprintf+0x15d8>
  403898:	2631fff0 	addiu	s1,s1,-16
  40389c:	24420001 	addiu	v0,v0,1
  4038a0:	3c050041 	lui	a1,0x41
  4038a4:	24a5c038 	addiu	a1,a1,-16328
  4038a8:	ad110004 	sw	s1,4(t0)
  4038ac:	afa20598 	sw	v0,1432(sp)
  4038b0:	00718821 	addu	s1,v1,s1
  4038b4:	28420008 	slti	v0,v0,8
  4038b8:	ad050000 	sw	a1,0(t0)
  4038bc:	1440ffd0 	bnez	v0,403800 <vfprintf+0x1598>
  4038c0:	afb1059c 	sw	s1,1436(sp)
  4038c4:	02402021 	move	a0,s2
  4038c8:	0c10088c 	jal	402230 <__sprint>
  4038cc:	27a50594 	addiu	a1,sp,1428
  4038d0:	1040ffcc 	beqz	v0,403804 <vfprintf+0x159c>
  4038d4:	8fa805c8 	lw	t0,1480(sp)
  4038d8:	08100e45 	j	403914 <vfprintf+0x16ac>
  4038dc:	9642000c 	lhu	v0,12(s2)
  4038e0:	0c10088c 	jal	402230 <__sprint>
  4038e4:	27a50594 	addiu	a1,sp,1428
  4038e8:	5440000a 	bnezl	v0,403914 <vfprintf+0x16ac>
  4038ec:	9642000c 	lhu	v0,12(s2)
  4038f0:	081008e3 	j	40238c <vfprintf+0x124>
  4038f4:	afa00598 	sw	zero,1432(sp)
  4038f8:	8fa2059c 	lw	v0,1436(sp)
  4038fc:	50400005 	beqzl	v0,403914 <vfprintf+0x16ac>
  403900:	9642000c 	lhu	v0,12(s2)
  403904:	02402021 	move	a0,s2
  403908:	0c10088c 	jal	402230 <__sprint>
  40390c:	27a50594 	addiu	a1,sp,1428
  403910:	9642000c 	lhu	v0,12(s2)
  403914:	30420040 	andi	v0,v0,0x40
  403918:	14400002 	bnez	v0,403924 <vfprintf+0x16bc>
  40391c:	2402ffff 	li	v0,-1
  403920:	8fa205d0 	lw	v0,1488(sp)
  403924:	8fbf0624 	lw	ra,1572(sp)
  403928:	8fbe0620 	lw	s8,1568(sp)
  40392c:	8fb7061c 	lw	s7,1564(sp)
  403930:	8fb60618 	lw	s6,1560(sp)
  403934:	8fb50614 	lw	s5,1556(sp)
  403938:	8fb40610 	lw	s4,1552(sp)
  40393c:	8fb3060c 	lw	s3,1548(sp)
  403940:	8fb20608 	lw	s2,1544(sp)
  403944:	8fb10604 	lw	s1,1540(sp)
  403948:	8fb00600 	lw	s0,1536(sp)
  40394c:	03e00008 	jr	ra
  403950:	27bd0628 	addiu	sp,sp,1576

00403954 <__umoddi3>:
  403954:	27bdffd8 	addiu	sp,sp,-40
  403958:	27a20018 	addiu	v0,sp,24
  40395c:	afa20010 	sw	v0,16(sp)
  403960:	afbf0024 	sw	ra,36(sp)
  403964:	0c101f39 	jal	407ce4 <__qdivrem>
  403968:	00000000 	nop
  40396c:	8fbf0024 	lw	ra,36(sp)
  403970:	8fa20018 	lw	v0,24(sp)
  403974:	8fa3001c 	lw	v1,28(sp)
  403978:	03e00008 	jr	ra
  40397c:	27bd0028 	addiu	sp,sp,40

00403980 <__udivdi3>:
  403980:	27bdffe0 	addiu	sp,sp,-32
  403984:	afa00010 	sw	zero,16(sp)
  403988:	afbf001c 	sw	ra,28(sp)
  40398c:	0c101f39 	jal	407ce4 <__qdivrem>
  403990:	00000000 	nop
  403994:	8fbf001c 	lw	ra,28(sp)
  403998:	03e00008 	jr	ra
  40399c:	27bd0020 	addiu	sp,sp,32
  4039a0:	29232840 	slti	v1,t1,10304
  4039a4:	6c727473 	0x6c727473
  4039a8:	732e6e65 	0x732e6e65
  4039ac:	312e3809 	andi	t6,t1,0x3809
  4039b0:	65422820 	0x65422820
  4039b4:	6c656b72 	0x6c656b72
  4039b8:	20297965 	addi	t1,at,31077
  4039bc:	2f342f36 	sltiu	s4,t9,12086
  4039c0:	00003339 	0x3339

004039c4 <strlen>:
  4039c4:	24830001 	addiu	v1,a0,1
  4039c8:	80820000 	lb	v0,0(a0)
  4039cc:	1440fffe 	bnez	v0,4039c8 <strlen+0x4>
  4039d0:	24840001 	addiu	a0,a0,1
  4039d4:	03e00008 	jr	ra
  4039d8:	00831023 	subu	v0,a0,v1

004039dc <__sfvwrite>:
  4039dc:	8ca20008 	lw	v0,8(a1)
  4039e0:	27bdffc8 	addiu	sp,sp,-56
  4039e4:	afb50024 	sw	s5,36(sp)
  4039e8:	afbf0034 	sw	ra,52(sp)
  4039ec:	afbe0030 	sw	s8,48(sp)
  4039f0:	afb7002c 	sw	s7,44(sp)
  4039f4:	afb60028 	sw	s6,40(sp)
  4039f8:	afb40020 	sw	s4,32(sp)
  4039fc:	afb3001c 	sw	s3,28(sp)
  403a00:	afb20018 	sw	s2,24(sp)
  403a04:	afb10014 	sw	s1,20(sp)
  403a08:	afb00010 	sw	s0,16(sp)
  403a0c:	14400003 	bnez	v0,403a1c <__sfvwrite+0x40>
  403a10:	00a0a821 	move	s5,a1
  403a14:	08100f4a 	j	403d28 <__sfvwrite+0x34c>
  403a18:	00001021 	move	v0,zero
  403a1c:	9482000c 	lhu	v0,12(a0)
  403a20:	30420008 	andi	v0,v0,0x8
  403a24:	1040000d 	beqz	v0,403a5c <__sfvwrite+0x80>
  403a28:	00808021 	move	s0,a0
  403a2c:	8c820010 	lw	v0,16(a0)
  403a30:	1040000a 	beqz	v0,403a5c <__sfvwrite+0x80>
  403a34:	00000000 	nop
  403a38:	9602000c 	lhu	v0,12(s0)
  403a3c:	8eb40000 	lw	s4,0(s5)
  403a40:	30430002 	andi	v1,v0,0x2
  403a44:	8e920000 	lw	s2,0(s4)
  403a48:	8e910004 	lw	s1,4(s4)
  403a4c:	1060001d 	beqz	v1,403ac4 <__sfvwrite+0xe8>
  403a50:	26940008 	addiu	s4,s4,8
  403a54:	08100eab 	j	403aac <__sfvwrite+0xd0>
  403a58:	24130400 	li	s3,1024
  403a5c:	0c101b7e 	jal	406df8 <__swsetup>
  403a60:	02002021 	move	a0,s0
  403a64:	5040fff5 	beqzl	v0,403a3c <__sfvwrite+0x60>
  403a68:	9602000c 	lhu	v0,12(s0)
  403a6c:	08100f4a 	j	403d28 <__sfvwrite+0x34c>
  403a70:	2402ffff 	li	v0,-1
  403a74:	02601821 	move	v1,s3
  403a78:	8e02002c 	lw	v0,44(s0)
  403a7c:	8e04001c 	lw	a0,28(s0)
  403a80:	0226180b 	movn	v1,s1,a2
  403a84:	02402821 	move	a1,s2
  403a88:	0040f809 	jalr	v0
  403a8c:	00603021 	move	a2,v1
  403a90:	184000a1 	blez	v0,403d18 <__sfvwrite+0x33c>
  403a94:	02429021 	addu	s2,s2,v0
  403a98:	8ea30008 	lw	v1,8(s5)
  403a9c:	02228823 	subu	s1,s1,v0
  403aa0:	00621023 	subu	v0,v1,v0
  403aa4:	1040ffdb 	beqz	v0,403a14 <__sfvwrite+0x38>
  403aa8:	aea20008 	sw	v0,8(s5)
  403aac:	5620fff1 	bnezl	s1,403a74 <__sfvwrite+0x98>
  403ab0:	2e260401 	sltiu	a2,s1,1025
  403ab4:	8e920000 	lw	s2,0(s4)
  403ab8:	8e910004 	lw	s1,4(s4)
  403abc:	08100eab 	j	403aac <__sfvwrite+0xd0>
  403ac0:	26940008 	addiu	s4,s4,8
  403ac4:	30420001 	andi	v0,v0,0x1
  403ac8:	1440006f 	bnez	v0,403c88 <__sfvwrite+0x2ac>
  403acc:	0000b021 	move	s6,zero
  403ad0:	56200005 	bnezl	s1,403ae8 <__sfvwrite+0x10c>
  403ad4:	9602000c 	lhu	v0,12(s0)
  403ad8:	8e920000 	lw	s2,0(s4)
  403adc:	8e910004 	lw	s1,4(s4)
  403ae0:	08100eb4 	j	403ad0 <__sfvwrite+0xf4>
  403ae4:	26940008 	addiu	s4,s4,8
  403ae8:	8e130008 	lw	s3,8(s0)
  403aec:	30420200 	andi	v0,v0,0x200
  403af0:	1040000e 	beqz	v0,403b2c <__sfvwrite+0x150>
  403af4:	8e040000 	lw	a0,0(s0)
  403af8:	0233102b 	sltu	v0,s1,s3
  403afc:	0222980b 	movn	s3,s1,v0
  403b00:	02603021 	move	a2,s3
  403b04:	0c102214 	jal	408850 <memcpy>
  403b08:	02402821 	move	a1,s2
  403b0c:	8e020008 	lw	v0,8(s0)
  403b10:	00531023 	subu	v0,v0,s3
  403b14:	ae020008 	sw	v0,8(s0)
  403b18:	8e020000 	lw	v0,0(s0)
  403b1c:	00539821 	addu	s3,v0,s3
  403b20:	ae130000 	sw	s3,0(s0)
  403b24:	08100ef2 	j	403bc8 <__sfvwrite+0x1ec>
  403b28:	02209821 	move	s3,s1
  403b2c:	8e020010 	lw	v0,16(s0)
  403b30:	0044102b 	sltu	v0,v0,a0
  403b34:	50400010 	beqzl	v0,403b78 <__sfvwrite+0x19c>
  403b38:	8e060014 	lw	a2,20(s0)
  403b3c:	0271102b 	sltu	v0,s3,s1
  403b40:	5040000d 	beqzl	v0,403b78 <__sfvwrite+0x19c>
  403b44:	8e060014 	lw	a2,20(s0)
  403b48:	02402821 	move	a1,s2
  403b4c:	0c102214 	jal	408850 <memcpy>
  403b50:	02603021 	move	a2,s3
  403b54:	8e020000 	lw	v0,0(s0)
  403b58:	02002021 	move	a0,s0
  403b5c:	00531021 	addu	v0,v0,s3
  403b60:	0c101e36 	jal	4078d8 <fflush>
  403b64:	ae020000 	sw	v0,0(s0)
  403b68:	50400018 	beqzl	v0,403bcc <__sfvwrite+0x1f0>
  403b6c:	8ea20008 	lw	v0,8(s5)
  403b70:	08100f47 	j	403d1c <__sfvwrite+0x340>
  403b74:	9602000c 	lhu	v0,12(s0)
  403b78:	0226102b 	sltu	v0,s1,a2
  403b7c:	14400009 	bnez	v0,403ba4 <__sfvwrite+0x1c8>
  403b80:	02402821 	move	a1,s2
  403b84:	8e02002c 	lw	v0,44(s0)
  403b88:	8e04001c 	lw	a0,28(s0)
  403b8c:	0040f809 	jalr	v0
  403b90:	02402821 	move	a1,s2
  403b94:	1c40000c 	bgtz	v0,403bc8 <__sfvwrite+0x1ec>
  403b98:	00409821 	move	s3,v0
  403b9c:	08100f47 	j	403d1c <__sfvwrite+0x340>
  403ba0:	9602000c 	lhu	v0,12(s0)
  403ba4:	0c102214 	jal	408850 <memcpy>
  403ba8:	02203021 	move	a2,s1
  403bac:	8e020008 	lw	v0,8(s0)
  403bb0:	02209821 	move	s3,s1
  403bb4:	00511023 	subu	v0,v0,s1
  403bb8:	ae020008 	sw	v0,8(s0)
  403bbc:	8e020000 	lw	v0,0(s0)
  403bc0:	00511021 	addu	v0,v0,s1
  403bc4:	ae020000 	sw	v0,0(s0)
  403bc8:	8ea20008 	lw	v0,8(s5)
  403bcc:	02539021 	addu	s2,s2,s3
  403bd0:	02338823 	subu	s1,s1,s3
  403bd4:	00539823 	subu	s3,v0,s3
  403bd8:	1660ffbd 	bnez	s3,403ad0 <__sfvwrite+0xf4>
  403bdc:	aeb30008 	sw	s3,8(s5)
  403be0:	08100f4a 	j	403d28 <__sfvwrite+0x34c>
  403be4:	00001021 	move	v0,zero
  403be8:	13c00029 	beqz	s8,403c90 <__sfvwrite+0x2b4>
  403bec:	02402021 	move	a0,s2
  403bf0:	0236b82b 	sltu	s7,s1,s6
  403bf4:	02201021 	move	v0,s1
  403bf8:	02d7100a 	movz	v0,s6,s7
  403bfc:	0040b821 	move	s7,v0
  403c00:	8e040000 	lw	a0,0(s0)
  403c04:	8e020010 	lw	v0,16(s0)
  403c08:	8e130008 	lw	s3,8(s0)
  403c0c:	0044102b 	sltu	v0,v0,a0
  403c10:	10400028 	beqz	v0,403cb4 <__sfvwrite+0x2d8>
  403c14:	8e060014 	lw	a2,20(s0)
  403c18:	02669821 	addu	s3,s3,a2
  403c1c:	0277102a 	slt	v0,s3,s7
  403c20:	10400025 	beqz	v0,403cb8 <__sfvwrite+0x2dc>
  403c24:	02e6102a 	slt	v0,s7,a2
  403c28:	02402821 	move	a1,s2
  403c2c:	0c102214 	jal	408850 <memcpy>
  403c30:	02603021 	move	a2,s3
  403c34:	8e020000 	lw	v0,0(s0)
  403c38:	02002021 	move	a0,s0
  403c3c:	00531021 	addu	v0,v0,s3
  403c40:	0c101e36 	jal	4078d8 <fflush>
  403c44:	ae020000 	sw	v0,0(s0)
  403c48:	54400034 	bnezl	v0,403d1c <__sfvwrite+0x340>
  403c4c:	9602000c 	lhu	v0,12(s0)
  403c50:	02d3b023 	subu	s6,s6,s3
  403c54:	12c0002c 	beqz	s6,403d08 <__sfvwrite+0x32c>
  403c58:	00000000 	nop
  403c5c:	8ea20008 	lw	v0,8(s5)
  403c60:	02539021 	addu	s2,s2,s3
  403c64:	02338823 	subu	s1,s1,s3
  403c68:	00539823 	subu	s3,v0,s3
  403c6c:	1260ff69 	beqz	s3,403a14 <__sfvwrite+0x38>
  403c70:	aeb30008 	sw	s3,8(s5)
  403c74:	1620ffdc 	bnez	s1,403be8 <__sfvwrite+0x20c>
  403c78:	00000000 	nop
  403c7c:	8e920000 	lw	s2,0(s4)
  403c80:	8e910004 	lw	s1,4(s4)
  403c84:	26940008 	addiu	s4,s4,8
  403c88:	08100f1d 	j	403c74 <__sfvwrite+0x298>
  403c8c:	0000f021 	move	s8,zero
  403c90:	2405000a 	li	a1,10
  403c94:	0c101bb9 	jal	406ee4 <memchr>
  403c98:	02203021 	move	a2,s1
  403c9c:	50400003 	beqzl	v0,403cac <__sfvwrite+0x2d0>
  403ca0:	26360001 	addiu	s6,s1,1
  403ca4:	24560001 	addiu	s6,v0,1
  403ca8:	02d2b023 	subu	s6,s6,s2
  403cac:	08100efc 	j	403bf0 <__sfvwrite+0x214>
  403cb0:	241e0001 	li	s8,1
  403cb4:	02e6102a 	slt	v0,s7,a2
  403cb8:	14400009 	bnez	v0,403ce0 <__sfvwrite+0x304>
  403cbc:	02402821 	move	a1,s2
  403cc0:	8e02002c 	lw	v0,44(s0)
  403cc4:	8e04001c 	lw	a0,28(s0)
  403cc8:	0040f809 	jalr	v0
  403ccc:	02402821 	move	a1,s2
  403cd0:	1c40ffdf 	bgtz	v0,403c50 <__sfvwrite+0x274>
  403cd4:	00409821 	move	s3,v0
  403cd8:	08100f47 	j	403d1c <__sfvwrite+0x340>
  403cdc:	9602000c 	lhu	v0,12(s0)
  403ce0:	0c102214 	jal	408850 <memcpy>
  403ce4:	02e03021 	move	a2,s7
  403ce8:	8e020008 	lw	v0,8(s0)
  403cec:	02e09821 	move	s3,s7
  403cf0:	00571023 	subu	v0,v0,s7
  403cf4:	ae020008 	sw	v0,8(s0)
  403cf8:	8e020000 	lw	v0,0(s0)
  403cfc:	00571021 	addu	v0,v0,s7
  403d00:	08100f14 	j	403c50 <__sfvwrite+0x274>
  403d04:	ae020000 	sw	v0,0(s0)
  403d08:	0c101e36 	jal	4078d8 <fflush>
  403d0c:	02002021 	move	a0,s0
  403d10:	1040ffd2 	beqz	v0,403c5c <__sfvwrite+0x280>
  403d14:	0000f021 	move	s8,zero
  403d18:	9602000c 	lhu	v0,12(s0)
  403d1c:	34420040 	ori	v0,v0,0x40
  403d20:	a602000c 	sh	v0,12(s0)
  403d24:	2402ffff 	li	v0,-1
  403d28:	8fbf0034 	lw	ra,52(sp)
  403d2c:	8fbe0030 	lw	s8,48(sp)
  403d30:	8fb7002c 	lw	s7,44(sp)
  403d34:	8fb60028 	lw	s6,40(sp)
  403d38:	8fb50024 	lw	s5,36(sp)
  403d3c:	8fb40020 	lw	s4,32(sp)
  403d40:	8fb3001c 	lw	s3,28(sp)
  403d44:	8fb20018 	lw	s2,24(sp)
  403d48:	8fb10014 	lw	s1,20(sp)
  403d4c:	8fb00010 	lw	s0,16(sp)
  403d50:	03e00008 	jr	ra
  403d54:	27bd0038 	addiu	sp,sp,56

00403d58 <__moddi3>:
  403d58:	27bdffd8 	addiu	sp,sp,-40
  403d5c:	afbf0024 	sw	ra,36(sp)
  403d60:	04a10007 	bgez	a1,403d80 <__moddi3+0x28>
  403d64:	afb00020 	sw	s0,32(sp)
  403d68:	00042023 	negu	a0,a0
  403d6c:	0004102b 	sltu	v0,zero,a0
  403d70:	00052823 	negu	a1,a1
  403d74:	00a22823 	subu	a1,a1,v0
  403d78:	08100f61 	j	403d84 <__moddi3+0x2c>
  403d7c:	24100001 	li	s0,1
  403d80:	00008021 	move	s0,zero
  403d84:	04e10007 	bgez	a3,403da4 <__moddi3+0x4c>
  403d88:	27a20018 	addiu	v0,sp,24
  403d8c:	00063023 	negu	a2,a2
  403d90:	0006102b 	sltu	v0,zero,a2
  403d94:	00073823 	negu	a3,a3
  403d98:	00e23823 	subu	a3,a3,v0
  403d9c:	3a100001 	xori	s0,s0,0x1
  403da0:	27a20018 	addiu	v0,sp,24
  403da4:	0c101f39 	jal	407ce4 <__qdivrem>
  403da8:	afa20010 	sw	v0,16(sp)
  403dac:	8fa20018 	lw	v0,24(sp)
  403db0:	12000005 	beqz	s0,403dc8 <__moddi3+0x70>
  403db4:	8fa3001c 	lw	v1,28(sp)
  403db8:	00021023 	negu	v0,v0
  403dbc:	0002202b 	sltu	a0,zero,v0
  403dc0:	00031823 	negu	v1,v1
  403dc4:	00641823 	subu	v1,v1,a0
  403dc8:	8fbf0024 	lw	ra,36(sp)
  403dcc:	8fb00020 	lw	s0,32(sp)
  403dd0:	03e00008 	jr	ra
  403dd4:	27bd0028 	addiu	sp,sp,40

00403dd8 <Bfree>:
  403dd8:	10800008 	beqz	a0,403dfc <Bfree+0x24>
  403ddc:	3c020041 	lui	v0,0x41
  403de0:	8c830004 	lw	v1,4(a0)
  403de4:	2442d060 	addiu	v0,v0,-12192
  403de8:	00031880 	sll	v1,v1,0x2
  403dec:	00621021 	addu	v0,v1,v0
  403df0:	8c430000 	lw	v1,0(v0)
  403df4:	ac440000 	sw	a0,0(v0)
  403df8:	ac830000 	sw	v1,0(a0)
  403dfc:	03e00008 	jr	ra
  403e00:	00000000 	nop

00403e04 <hi0bits>:
  403e04:	3c03ffff 	lui	v1,0xffff
  403e08:	00831824 	and	v1,a0,v1
  403e0c:	14600003 	bnez	v1,403e1c <hi0bits+0x18>
  403e10:	00001021 	move	v0,zero
  403e14:	00042400 	sll	a0,a0,0x10
  403e18:	24020010 	li	v0,16
  403e1c:	3c03ff00 	lui	v1,0xff00
  403e20:	00831824 	and	v1,a0,v1
  403e24:	14600003 	bnez	v1,403e34 <hi0bits+0x30>
  403e28:	3c03f000 	lui	v1,0xf000
  403e2c:	24420008 	addiu	v0,v0,8
  403e30:	00042200 	sll	a0,a0,0x8
  403e34:	00831824 	and	v1,a0,v1
  403e38:	14600003 	bnez	v1,403e48 <hi0bits+0x44>
  403e3c:	3c03c000 	lui	v1,0xc000
  403e40:	24420004 	addiu	v0,v0,4
  403e44:	00042100 	sll	a0,a0,0x4
  403e48:	00831824 	and	v1,a0,v1
  403e4c:	14600003 	bnez	v1,403e5c <hi0bits+0x58>
  403e50:	00000000 	nop
  403e54:	24420002 	addiu	v0,v0,2
  403e58:	00042080 	sll	a0,a0,0x2
  403e5c:	04800004 	bltz	a0,403e70 <hi0bits+0x6c>
  403e60:	24430001 	addiu	v1,v0,1
  403e64:	7c840780 	ext	a0,a0,0x1e,0x1
  403e68:	24020020 	li	v0,32
  403e6c:	0064100b 	movn	v0,v1,a0
  403e70:	03e00008 	jr	ra
  403e74:	00000000 	nop

00403e78 <lo0bits>:
  403e78:	8c830000 	lw	v1,0(a0)
  403e7c:	30620007 	andi	v0,v1,0x7
  403e80:	1040000e 	beqz	v0,403ebc <lo0bits+0x44>
  403e84:	3062ffff 	andi	v0,v1,0xffff
  403e88:	30650001 	andi	a1,v1,0x1
  403e8c:	14a00027 	bnez	a1,403f2c <lo0bits+0xb4>
  403e90:	00001021 	move	v0,zero
  403e94:	30620002 	andi	v0,v1,0x2
  403e98:	50400005 	beqzl	v0,403eb0 <lo0bits+0x38>
  403e9c:	00031882 	srl	v1,v1,0x2
  403ea0:	00031842 	srl	v1,v1,0x1
  403ea4:	ac830000 	sw	v1,0(a0)
  403ea8:	03e00008 	jr	ra
  403eac:	24020001 	li	v0,1
  403eb0:	ac830000 	sw	v1,0(a0)
  403eb4:	03e00008 	jr	ra
  403eb8:	24020002 	li	v0,2
  403ebc:	14400003 	bnez	v0,403ecc <lo0bits+0x54>
  403ec0:	00002821 	move	a1,zero
  403ec4:	00031c02 	srl	v1,v1,0x10
  403ec8:	24050010 	li	a1,16
  403ecc:	306200ff 	andi	v0,v1,0xff
  403ed0:	14400004 	bnez	v0,403ee4 <lo0bits+0x6c>
  403ed4:	3062000f 	andi	v0,v1,0xf
  403ed8:	24a50008 	addiu	a1,a1,8
  403edc:	00031a02 	srl	v1,v1,0x8
  403ee0:	3062000f 	andi	v0,v1,0xf
  403ee4:	14400004 	bnez	v0,403ef8 <lo0bits+0x80>
  403ee8:	30620003 	andi	v0,v1,0x3
  403eec:	24a50004 	addiu	a1,a1,4
  403ef0:	00031902 	srl	v1,v1,0x4
  403ef4:	30620003 	andi	v0,v1,0x3
  403ef8:	14400004 	bnez	v0,403f0c <lo0bits+0x94>
  403efc:	30620001 	andi	v0,v1,0x1
  403f00:	24a50002 	addiu	a1,a1,2
  403f04:	00031882 	srl	v1,v1,0x2
  403f08:	30620001 	andi	v0,v1,0x1
  403f0c:	54400006 	bnezl	v0,403f28 <lo0bits+0xb0>
  403f10:	ac830000 	sw	v1,0(a0)
  403f14:	00031842 	srl	v1,v1,0x1
  403f18:	10600004 	beqz	v1,403f2c <lo0bits+0xb4>
  403f1c:	24020020 	li	v0,32
  403f20:	24a50001 	addiu	a1,a1,1
  403f24:	ac830000 	sw	v1,0(a0)
  403f28:	00a01021 	move	v0,a1
  403f2c:	03e00008 	jr	ra
  403f30:	00000000 	nop

00403f34 <cmp>:
  403f34:	8c820010 	lw	v0,16(a0)
  403f38:	8ca30010 	lw	v1,16(a1)
  403f3c:	00431023 	subu	v0,v0,v1
  403f40:	14400013 	bnez	v0,403f90 <cmp+0x5c>
  403f44:	00031880 	sll	v1,v1,0x2
  403f48:	24840014 	addiu	a0,a0,20
  403f4c:	24a50014 	addiu	a1,a1,20
  403f50:	00831021 	addu	v0,a0,v1
  403f54:	00a32821 	addu	a1,a1,v1
  403f58:	2442fffc 	addiu	v0,v0,-4
  403f5c:	24a5fffc 	addiu	a1,a1,-4
  403f60:	8c460000 	lw	a2,0(v0)
  403f64:	8ca30000 	lw	v1,0(a1)
  403f68:	50c30006 	beql	a2,v1,403f84 <cmp+0x50>
  403f6c:	0082182b 	sltu	v1,a0,v0
  403f70:	00c3182b 	sltu	v1,a2,v1
  403f74:	24040001 	li	a0,1
  403f78:	2402ffff 	li	v0,-1
  403f7c:	03e00008 	jr	ra
  403f80:	0083100a 	movz	v0,a0,v1
  403f84:	5460fff5 	bnezl	v1,403f5c <cmp+0x28>
  403f88:	2442fffc 	addiu	v0,v0,-4
  403f8c:	00001021 	move	v0,zero
  403f90:	03e00008 	jr	ra
  403f94:	00000000 	nop

00403f98 <ulp>:
  403f98:	27bdfff8 	addiu	sp,sp,-8
  403f9c:	afa5000c 	sw	a1,12(sp)
  403fa0:	8fa2000c 	lw	v0,12(sp)
  403fa4:	3c037ff0 	lui	v1,0x7ff0
  403fa8:	00621024 	and	v0,v1,v0
  403fac:	3c03fcc0 	lui	v1,0xfcc0
  403fb0:	00431021 	addu	v0,v0,v1
  403fb4:	1c400008 	bgtz	v0,403fd8 <ulp+0x40>
  403fb8:	afa40008 	sw	a0,8(sp)
  403fbc:	00021023 	negu	v0,v0
  403fc0:	00021503 	sra	v0,v0,0x14
  403fc4:	28430014 	slti	v1,v0,20
  403fc8:	50600006 	beqzl	v1,403fe4 <ulp+0x4c>
  403fcc:	28440033 	slti	a0,v0,51
  403fd0:	3c030008 	lui	v1,0x8
  403fd4:	00431007 	srav	v0,v1,v0
  403fd8:	afa20004 	sw	v0,4(sp)
  403fdc:	08101000 	j	404000 <ulp+0x68>
  403fe0:	afa00000 	sw	zero,0(sp)
  403fe4:	afa00004 	sw	zero,4(sp)
  403fe8:	10800004 	beqz	a0,403ffc <ulp+0x64>
  403fec:	24030001 	li	v1,1
  403ff0:	24040033 	li	a0,51
  403ff4:	00821023 	subu	v0,a0,v0
  403ff8:	00431804 	sllv	v1,v1,v0
  403ffc:	afa30000 	sw	v1,0(sp)
  404000:	8fa20000 	lw	v0,0(sp)
  404004:	8fa30004 	lw	v1,4(sp)
  404008:	03e00008 	jr	ra
  40400c:	27bd0008 	addiu	sp,sp,8

00404010 <b2d>:
  404010:	8c870010 	lw	a3,16(a0)
  404014:	24890014 	addiu	t1,a0,20
  404018:	27bdffe0 	addiu	sp,sp,-32
  40401c:	00073880 	sll	a3,a3,0x2
  404020:	01273821 	addu	a3,t1,a3
  404024:	8ce6fffc 	lw	a2,-4(a3)
  404028:	24e8fffc 	addiu	t0,a3,-4
  40402c:	afbf001c 	sw	ra,28(sp)
  404030:	0c100f81 	jal	403e04 <hi0bits>
  404034:	00c02021 	move	a0,a2
  404038:	24030020 	li	v1,32
  40403c:	00621823 	subu	v1,v1,v0
  404040:	aca30000 	sw	v1,0(a1)
  404044:	2843000b 	slti	v1,v0,11
  404048:	1060000f 	beqz	v1,404088 <b2d+0x78>
  40404c:	0128202b 	sltu	a0,t1,t0
  404050:	2403000b 	li	v1,11
  404054:	00621823 	subu	v1,v1,v0
  404058:	00664006 	srlv	t0,a2,v1
  40405c:	3c053ff0 	lui	a1,0x3ff0
  404060:	01052825 	or	a1,t0,a1
  404064:	afa50014 	sw	a1,20(sp)
  404068:	10800002 	beqz	a0,404074 <b2d+0x64>
  40406c:	00002821 	move	a1,zero
  404070:	8ce5fff8 	lw	a1,-8(a3)
  404074:	24420015 	addiu	v0,v0,21
  404078:	00651806 	srlv	v1,a1,v1
  40407c:	00463004 	sllv	a2,a2,v0
  404080:	0810103c 	j	4040f0 <b2d+0xe0>
  404084:	00661825 	or	v1,v1,a2
  404088:	10800003 	beqz	a0,404098 <b2d+0x88>
  40408c:	00001821 	move	v1,zero
  404090:	8ce3fff8 	lw	v1,-8(a3)
  404094:	24e8fff8 	addiu	t0,a3,-8
  404098:	2444fff5 	addiu	a0,v0,-11
  40409c:	50800012 	beqzl	a0,4040e8 <b2d+0xd8>
  4040a0:	3c023ff0 	lui	v0,0x3ff0
  4040a4:	2405002b 	li	a1,43
  4040a8:	00a21023 	subu	v0,a1,v0
  4040ac:	00863004 	sllv	a2,a2,a0
  4040b0:	3c053ff0 	lui	a1,0x3ff0
  4040b4:	00c53025 	or	a2,a2,a1
  4040b8:	00432806 	srlv	a1,v1,v0
  4040bc:	00c53025 	or	a2,a2,a1
  4040c0:	0128482b 	sltu	t1,t1,t0
  4040c4:	afa60014 	sw	a2,20(sp)
  4040c8:	11200002 	beqz	t1,4040d4 <b2d+0xc4>
  4040cc:	00002821 	move	a1,zero
  4040d0:	8d05fffc 	lw	a1,-4(t0)
  4040d4:	00451006 	srlv	v0,a1,v0
  4040d8:	00831804 	sllv	v1,v1,a0
  4040dc:	00431025 	or	v0,v0,v1
  4040e0:	0810103d 	j	4040f4 <b2d+0xe4>
  4040e4:	afa20010 	sw	v0,16(sp)
  4040e8:	00c23025 	or	a2,a2,v0
  4040ec:	afa60014 	sw	a2,20(sp)
  4040f0:	afa30010 	sw	v1,16(sp)
  4040f4:	8fbf001c 	lw	ra,28(sp)
  4040f8:	8fa20010 	lw	v0,16(sp)
  4040fc:	8fa30014 	lw	v1,20(sp)
  404100:	03e00008 	jr	ra
  404104:	27bd0020 	addiu	sp,sp,32

00404108 <quorem>:
  404108:	8ca70010 	lw	a3,16(a1)
  40410c:	8c830010 	lw	v1,16(a0)
  404110:	00805021 	move	t2,a0
  404114:	0067182a 	slt	v1,v1,a3
  404118:	14600067 	bnez	v1,4042b8 <quorem+0x1b0>
  40411c:	00001021 	move	v0,zero
  404120:	24e7ffff 	addiu	a3,a3,-1
  404124:	00071880 	sll	v1,a3,0x2
  404128:	24a90014 	addiu	t1,a1,20
  40412c:	01236021 	addu	t4,t1,v1
  404130:	24880014 	addiu	t0,a0,20
  404134:	01031821 	addu	v1,t0,v1
  404138:	8d8b0000 	lw	t3,0(t4)
  40413c:	8c6d0000 	lw	t5,0(v1)
  404140:	27bdffe8 	addiu	sp,sp,-24
  404144:	256b0001 	addiu	t3,t3,1
  404148:	01ab001b 	divu	zero,t5,t3
  40414c:	016001f4 	teq	t3,zero,0x7
  404150:	afbf0014 	sw	ra,20(sp)
  404154:	afb00010 	sw	s0,16(sp)
  404158:	00005812 	mflo	t3
  40415c:	1160002b 	beqz	t3,40420c <quorem+0x104>
  404160:	00007012 	mflo	t6
  404164:	01203021 	move	a2,t1
  404168:	01002021 	move	a0,t0
  40416c:	0000f821 	move	ra,zero
  404170:	0000c021 	move	t8,zero
  404174:	24c60004 	addiu	a2,a2,4
  404178:	8ccffffc 	lw	t7,-4(a2)
  40417c:	24840004 	addiu	a0,a0,4
  404180:	31e2ffff 	andi	v0,t7,0xffff
  404184:	7162c802 	mul	t9,t3,v0
  404188:	033f1021 	addu	v0,t9,ra
  40418c:	000fcc02 	srl	t9,t7,0x10
  404190:	71797802 	mul	t7,t3,t9
  404194:	0002fc02 	srl	ra,v0,0x10
  404198:	3042ffff 	andi	v0,v0,0xffff
  40419c:	03021023 	subu	v0,t8,v0
  4041a0:	01ffc821 	addu	t9,t7,ra
  4041a4:	8c8ffffc 	lw	t7,-4(a0)
  4041a8:	0019fc02 	srl	ra,t9,0x10
  4041ac:	3339ffff 	andi	t9,t9,0xffff
  4041b0:	31f0ffff 	andi	s0,t7,0xffff
  4041b4:	00501021 	addu	v0,v0,s0
  4041b8:	000f7c02 	srl	t7,t7,0x10
  4041bc:	0002c403 	sra	t8,v0,0x10
  4041c0:	01f97823 	subu	t7,t7,t9
  4041c4:	01f87821 	addu	t7,t7,t8
  4041c8:	a482fffc 	sh	v0,-4(a0)
  4041cc:	0186102b 	sltu	v0,t4,a2
  4041d0:	a48ffffe 	sh	t7,-2(a0)
  4041d4:	1040ffe7 	beqz	v0,404174 <quorem+0x6c>
  4041d8:	000fc403 	sra	t8,t7,0x10
  4041dc:	15a0000b 	bnez	t5,40420c <quorem+0x104>
  4041e0:	00000000 	nop
  4041e4:	2463fffc 	addiu	v1,v1,-4
  4041e8:	0103102b 	sltu	v0,t0,v1
  4041ec:	54400003 	bnezl	v0,4041fc <quorem+0xf4>
  4041f0:	8c620000 	lw	v0,0(v1)
  4041f4:	08101083 	j	40420c <quorem+0x104>
  4041f8:	ad470010 	sw	a3,16(t2)
  4041fc:	54400003 	bnezl	v0,40420c <quorem+0x104>
  404200:	ad470010 	sw	a3,16(t2)
  404204:	08101079 	j	4041e4 <quorem+0xdc>
  404208:	24e7ffff 	addiu	a3,a3,-1
  40420c:	0c100fcd 	jal	403f34 <cmp>
  404210:	01402021 	move	a0,t2
  404214:	04400024 	bltz	v0,4042a8 <quorem+0x1a0>
  404218:	01001821 	move	v1,t0
  40421c:	256e0001 	addiu	t6,t3,1
  404220:	00002821 	move	a1,zero
  404224:	25290004 	addiu	t1,t1,4
  404228:	8d26fffc 	lw	a2,-4(t1)
  40422c:	8c640000 	lw	a0,0(v1)
  404230:	24630004 	addiu	v1,v1,4
  404234:	30c2ffff 	andi	v0,a2,0xffff
  404238:	00a21023 	subu	v0,a1,v0
  40423c:	308bffff 	andi	t3,a0,0xffff
  404240:	004b1021 	addu	v0,v0,t3
  404244:	00042402 	srl	a0,a0,0x10
  404248:	00063402 	srl	a2,a2,0x10
  40424c:	00022c03 	sra	a1,v0,0x10
  404250:	00862023 	subu	a0,a0,a2
  404254:	00852021 	addu	a0,a0,a1
  404258:	a462fffc 	sh	v0,-4(v1)
  40425c:	0189102b 	sltu	v0,t4,t1
  404260:	a464fffe 	sh	a0,-2(v1)
  404264:	1040ffef 	beqz	v0,404224 <quorem+0x11c>
  404268:	00042c03 	sra	a1,a0,0x10
  40426c:	00071880 	sll	v1,a3,0x2
  404270:	01031821 	addu	v1,t0,v1
  404274:	8c620000 	lw	v0,0(v1)
  404278:	1440000c 	bnez	v0,4042ac <quorem+0x1a4>
  40427c:	8fbf0014 	lw	ra,20(sp)
  404280:	2463fffc 	addiu	v1,v1,-4
  404284:	0103102b 	sltu	v0,t0,v1
  404288:	54400003 	bnezl	v0,404298 <quorem+0x190>
  40428c:	8c620000 	lw	v0,0(v1)
  404290:	081010aa 	j	4042a8 <quorem+0x1a0>
  404294:	ad470010 	sw	a3,16(t2)
  404298:	54400003 	bnezl	v0,4042a8 <quorem+0x1a0>
  40429c:	ad470010 	sw	a3,16(t2)
  4042a0:	081010a0 	j	404280 <quorem+0x178>
  4042a4:	24e7ffff 	addiu	a3,a3,-1
  4042a8:	8fbf0014 	lw	ra,20(sp)
  4042ac:	8fb00010 	lw	s0,16(sp)
  4042b0:	27bd0018 	addiu	sp,sp,24
  4042b4:	01c01021 	move	v0,t6
  4042b8:	03e00008 	jr	ra
  4042bc:	00000000 	nop

004042c0 <Balloc>:
  4042c0:	3c030041 	lui	v1,0x41
  4042c4:	00041080 	sll	v0,a0,0x2
  4042c8:	2463d060 	addiu	v1,v1,-12192
  4042cc:	00431821 	addu	v1,v0,v1
  4042d0:	8c620000 	lw	v0,0(v1)
  4042d4:	27bdffe0 	addiu	sp,sp,-32
  4042d8:	afb00014 	sw	s0,20(sp)
  4042dc:	afbf001c 	sw	ra,28(sp)
  4042e0:	afb10018 	sw	s1,24(sp)
  4042e4:	10400004 	beqz	v0,4042f8 <Balloc+0x38>
  4042e8:	00808021 	move	s0,a0
  4042ec:	8c440000 	lw	a0,0(v0)
  4042f0:	081010c5 	j	404314 <Balloc+0x54>
  4042f4:	ac640000 	sw	a0,0(v1)
  4042f8:	24110001 	li	s1,1
  4042fc:	00918804 	sllv	s1,s1,a0
  404300:	26240005 	addiu	a0,s1,5
  404304:	0c102069 	jal	4081a4 <malloc>
  404308:	00042080 	sll	a0,a0,0x2
  40430c:	ac500004 	sw	s0,4(v0)
  404310:	ac510008 	sw	s1,8(v0)
  404314:	8fbf001c 	lw	ra,28(sp)
  404318:	8fb10018 	lw	s1,24(sp)
  40431c:	8fb00014 	lw	s0,20(sp)
  404320:	ac400010 	sw	zero,16(v0)
  404324:	ac40000c 	sw	zero,12(v0)
  404328:	03e00008 	jr	ra
  40432c:	27bd0020 	addiu	sp,sp,32

00404330 <multadd>:
  404330:	27bdffd8 	addiu	sp,sp,-40
  404334:	afb10018 	sw	s1,24(sp)
  404338:	8c910010 	lw	s1,16(a0)
  40433c:	afb2001c 	sw	s2,28(sp)
  404340:	afb00014 	sw	s0,20(sp)
  404344:	afbf0024 	sw	ra,36(sp)
  404348:	afb30020 	sw	s3,32(sp)
  40434c:	00808021 	move	s0,a0
  404350:	00c09021 	move	s2,a2
  404354:	24820014 	addiu	v0,a0,20
  404358:	00001821 	move	v1,zero
  40435c:	8c470000 	lw	a3,0(v0)
  404360:	24630001 	addiu	v1,v1,1
  404364:	24420004 	addiu	v0,v0,4
  404368:	30e4ffff 	andi	a0,a3,0xffff
  40436c:	70853002 	mul	a2,a0,a1
  404370:	00d22021 	addu	a0,a2,s2
  404374:	00073402 	srl	a2,a3,0x10
  404378:	70c53802 	mul	a3,a2,a1
  40437c:	00044402 	srl	t0,a0,0x10
  404380:	3084ffff 	andi	a0,a0,0xffff
  404384:	00e83021 	addu	a2,a3,t0
  404388:	00069402 	srl	s2,a2,0x10
  40438c:	00063400 	sll	a2,a2,0x10
  404390:	00c42021 	addu	a0,a2,a0
  404394:	ac44fffc 	sw	a0,-4(v0)
  404398:	0071202a 	slt	a0,v1,s1
  40439c:	5480fff0 	bnezl	a0,404360 <multadd+0x30>
  4043a0:	8c470000 	lw	a3,0(v0)
  4043a4:	12400019 	beqz	s2,40440c <multadd+0xdc>
  4043a8:	8fbf0024 	lw	ra,36(sp)
  4043ac:	8e020008 	lw	v0,8(s0)
  4043b0:	0222102a 	slt	v0,s1,v0
  4043b4:	1440000f 	bnez	v0,4043f4 <multadd+0xc4>
  4043b8:	26220004 	addiu	v0,s1,4
  4043bc:	8e040004 	lw	a0,4(s0)
  4043c0:	0c1010b0 	jal	4042c0 <Balloc>
  4043c4:	24840001 	addiu	a0,a0,1
  4043c8:	8e060010 	lw	a2,16(s0)
  4043cc:	2605000c 	addiu	a1,s0,12
  4043d0:	2444000c 	addiu	a0,v0,12
  4043d4:	24c60002 	addiu	a2,a2,2
  4043d8:	00063080 	sll	a2,a2,0x2
  4043dc:	0c102214 	jal	408850 <memcpy>
  4043e0:	00409821 	move	s3,v0
  4043e4:	0c100f76 	jal	403dd8 <Bfree>
  4043e8:	02002021 	move	a0,s0
  4043ec:	02608021 	move	s0,s3
  4043f0:	26220004 	addiu	v0,s1,4
  4043f4:	00021080 	sll	v0,v0,0x2
  4043f8:	02021021 	addu	v0,s0,v0
  4043fc:	26310001 	addiu	s1,s1,1
  404400:	ac520004 	sw	s2,4(v0)
  404404:	ae110010 	sw	s1,16(s0)
  404408:	8fbf0024 	lw	ra,36(sp)
  40440c:	02001021 	move	v0,s0
  404410:	8fb30020 	lw	s3,32(sp)
  404414:	8fb2001c 	lw	s2,28(sp)
  404418:	8fb10018 	lw	s1,24(sp)
  40441c:	8fb00014 	lw	s0,20(sp)
  404420:	03e00008 	jr	ra
  404424:	27bd0028 	addiu	sp,sp,40

00404428 <d2b>:
  404428:	27bdffd8 	addiu	sp,sp,-40
  40442c:	afa40028 	sw	a0,40(sp)
  404430:	24040001 	li	a0,1
  404434:	afb10020 	sw	s1,32(sp)
  404438:	afb0001c 	sw	s0,28(sp)
  40443c:	afbf0024 	sw	ra,36(sp)
  404440:	afa5002c 	sw	a1,44(sp)
  404444:	00c08821 	move	s1,a2
  404448:	0c1010b0 	jal	4042c0 <Balloc>
  40444c:	00e08021 	move	s0,a3
  404450:	8fa9002c 	lw	t1,44(sp)
  404454:	00404021 	move	t0,v0
  404458:	7d229800 	ext	v0,t1,0x0,0x14
  40445c:	7d29f000 	ext	t1,t1,0x0,0x1f
  404460:	afa9002c 	sw	t1,44(sp)
  404464:	00094d02 	srl	t1,t1,0x14
  404468:	11200004 	beqz	t1,40447c <d2b+0x54>
  40446c:	afa20010 	sw	v0,16(sp)
  404470:	3c030010 	lui	v1,0x10
  404474:	00431025 	or	v0,v0,v1
  404478:	afa20010 	sw	v0,16(sp)
  40447c:	8fa20028 	lw	v0,40(sp)
  404480:	10400015 	beqz	v0,4044d8 <d2b+0xb0>
  404484:	afa20014 	sw	v0,20(sp)
  404488:	0c100f9e 	jal	403e78 <lo0bits>
  40448c:	27a40014 	addiu	a0,sp,20
  404490:	10400009 	beqz	v0,4044b8 <d2b+0x90>
  404494:	8fa30014 	lw	v1,20(sp)
  404498:	8fa40010 	lw	a0,16(sp)
  40449c:	00022823 	negu	a1,v0
  4044a0:	00a42804 	sllv	a1,a0,a1
  4044a4:	00a31825 	or	v1,a1,v1
  4044a8:	00442006 	srlv	a0,a0,v0
  4044ac:	ad030014 	sw	v1,20(t0)
  4044b0:	0810112f 	j	4044bc <d2b+0x94>
  4044b4:	afa40010 	sw	a0,16(sp)
  4044b8:	ad030014 	sw	v1,20(t0)
  4044bc:	8fa30010 	lw	v1,16(sp)
  4044c0:	24050002 	li	a1,2
  4044c4:	24040001 	li	a0,1
  4044c8:	0083280a 	movz	a1,a0,v1
  4044cc:	ad030018 	sw	v1,24(t0)
  4044d0:	0810113e 	j	4044f8 <d2b+0xd0>
  4044d4:	ad050010 	sw	a1,16(t0)
  4044d8:	0c100f9e 	jal	403e78 <lo0bits>
  4044dc:	27a40010 	addiu	a0,sp,16
  4044e0:	8fa30010 	lw	v1,16(sp)
  4044e4:	24420020 	addiu	v0,v0,32
  4044e8:	24050001 	li	a1,1
  4044ec:	ad030014 	sw	v1,20(t0)
  4044f0:	24030001 	li	v1,1
  4044f4:	ad030010 	sw	v1,16(t0)
  4044f8:	51200007 	beqzl	t1,404518 <d2b+0xf0>
  4044fc:	2442fbce 	addiu	v0,v0,-1074
  404500:	2529fbcd 	addiu	t1,t1,-1075
  404504:	01224821 	addu	t1,t1,v0
  404508:	24030035 	li	v1,53
  40450c:	ae290000 	sw	t1,0(s1)
  404510:	0810114d 	j	404534 <d2b+0x10c>
  404514:	00621023 	subu	v0,v1,v0
  404518:	ae220000 	sw	v0,0(s1)
  40451c:	00051080 	sll	v0,a1,0x2
  404520:	01021021 	addu	v0,t0,v0
  404524:	0c100f81 	jal	403e04 <hi0bits>
  404528:	8c440010 	lw	a0,16(v0)
  40452c:	00052940 	sll	a1,a1,0x5
  404530:	00a21023 	subu	v0,a1,v0
  404534:	8fbf0024 	lw	ra,36(sp)
  404538:	ae020000 	sw	v0,0(s0)
  40453c:	8fb10020 	lw	s1,32(sp)
  404540:	8fb0001c 	lw	s0,28(sp)
  404544:	01001021 	move	v0,t0
  404548:	03e00008 	jr	ra
  40454c:	27bd0028 	addiu	sp,sp,40

00404550 <mult>:
  404550:	8c830010 	lw	v1,16(a0)
  404554:	8ca20010 	lw	v0,16(a1)
  404558:	27bdffd8 	addiu	sp,sp,-40
  40455c:	afb20018 	sw	s2,24(sp)
  404560:	0062102a 	slt	v0,v1,v0
  404564:	afb00010 	sw	s0,16(sp)
  404568:	afbf0024 	sw	ra,36(sp)
  40456c:	afb40020 	sw	s4,32(sp)
  404570:	afb3001c 	sw	s3,28(sp)
  404574:	afb10014 	sw	s1,20(sp)
  404578:	00808021 	move	s0,a0
  40457c:	10400003 	beqz	v0,40458c <mult+0x3c>
  404580:	00a09021 	move	s2,a1
  404584:	00a08021 	move	s0,a1
  404588:	00809021 	move	s2,a0
  40458c:	8e140010 	lw	s4,16(s0)
  404590:	8e530010 	lw	s3,16(s2)
  404594:	8e020008 	lw	v0,8(s0)
  404598:	8e040004 	lw	a0,4(s0)
  40459c:	02938821 	addu	s1,s4,s3
  4045a0:	0051102a 	slt	v0,v0,s1
  4045a4:	0c1010b0 	jal	4042c0 <Balloc>
  4045a8:	00822021 	addu	a0,a0,v0
  4045ac:	24430014 	addiu	v1,v0,20
  4045b0:	00113080 	sll	a2,s1,0x2
  4045b4:	00663021 	addu	a2,v1,a2
  4045b8:	00602021 	move	a0,v1
  4045bc:	0086282b 	sltu	a1,a0,a2
  4045c0:	50a00004 	beqzl	a1,4045d4 <mult+0x84>
  4045c4:	26100014 	addiu	s0,s0,20
  4045c8:	ac800000 	sw	zero,0(a0)
  4045cc:	0810116f 	j	4045bc <mult+0x6c>
  4045d0:	24840004 	addiu	a0,a0,4
  4045d4:	0014a080 	sll	s4,s4,0x2
  4045d8:	26450014 	addiu	a1,s2,20
  4045dc:	00139880 	sll	s3,s3,0x2
  4045e0:	0214a021 	addu	s4,s0,s4
  4045e4:	00b39821 	addu	s3,a1,s3
  4045e8:	00b3202b 	sltu	a0,a1,s3
  4045ec:	1080003e 	beqz	a0,4046e8 <mult+0x198>
  4045f0:	00000000 	nop
  4045f4:	94a90000 	lhu	t1,0(a1)
  4045f8:	5120001a 	beqzl	t1,404664 <mult+0x114>
  4045fc:	94a90002 	lhu	t1,2(a1)
  404600:	00602021 	move	a0,v1
  404604:	02003821 	move	a3,s0
  404608:	00004021 	move	t0,zero
  40460c:	8ceb0000 	lw	t3,0(a3)
  404610:	8c8c0000 	lw	t4,0(a0)
  404614:	24e70004 	addiu	a3,a3,4
  404618:	316dffff 	andi	t5,t3,0xffff
  40461c:	71a97002 	mul	t6,t5,t1
  404620:	318affff 	andi	t2,t4,0xffff
  404624:	000b5c02 	srl	t3,t3,0x10
  404628:	000c6402 	srl	t4,t4,0x10
  40462c:	24840004 	addiu	a0,a0,4
  404630:	01ca5021 	addu	t2,t6,t2
  404634:	01485021 	addu	t2,t2,t0
  404638:	71694002 	mul	t0,t3,t1
  40463c:	a48afffc 	sh	t2,-4(a0)
  404640:	010c5821 	addu	t3,t0,t4
  404644:	000a4402 	srl	t0,t2,0x10
  404648:	01685821 	addu	t3,t3,t0
  40464c:	00f4502b 	sltu	t2,a3,s4
  404650:	a48bfffe 	sh	t3,-2(a0)
  404654:	1540ffed 	bnez	t2,40460c <mult+0xbc>
  404658:	000b4402 	srl	t0,t3,0x10
  40465c:	ac880000 	sw	t0,0(a0)
  404660:	94a90002 	lhu	t1,2(a1)
  404664:	5120001a 	beqzl	t1,4046d0 <mult+0x180>
  404668:	24a50004 	addiu	a1,a1,4
  40466c:	8c670000 	lw	a3,0(v1)
  404670:	00602021 	move	a0,v1
  404674:	02004021 	move	t0,s0
  404678:	00005021 	move	t2,zero
  40467c:	8d0b0000 	lw	t3,0(t0)
  404680:	a4870000 	sh	a3,0(a0)
  404684:	948c0002 	lhu	t4,2(a0)
  404688:	316dffff 	andi	t5,t3,0xffff
  40468c:	71a97002 	mul	t6,t5,t1
  404690:	000b3c02 	srl	a3,t3,0x10
  404694:	24840004 	addiu	a0,a0,4
  404698:	25080004 	addiu	t0,t0,4
  40469c:	70e95802 	mul	t3,a3,t1
  4046a0:	01cc6021 	addu	t4,t6,t4
  4046a4:	018a5021 	addu	t2,t4,t2
  4046a8:	a48afffe 	sh	t2,-2(a0)
  4046ac:	948c0000 	lhu	t4,0(a0)
  4046b0:	000a5402 	srl	t2,t2,0x10
  4046b4:	016c3821 	addu	a3,t3,t4
  4046b8:	00ea3821 	addu	a3,a3,t2
  4046bc:	0114582b 	sltu	t3,t0,s4
  4046c0:	1560ffee 	bnez	t3,40467c <mult+0x12c>
  4046c4:	00075402 	srl	t2,a3,0x10
  4046c8:	ac870000 	sw	a3,0(a0)
  4046cc:	24a50004 	addiu	a1,a1,4
  4046d0:	0810117a 	j	4045e8 <mult+0x98>
  4046d4:	24630004 	addiu	v1,v1,4
  4046d8:	8cc30000 	lw	v1,0(a2)
  4046dc:	14600005 	bnez	v1,4046f4 <mult+0x1a4>
  4046e0:	8fbf0024 	lw	ra,36(sp)
  4046e4:	2631ffff 	addiu	s1,s1,-1
  4046e8:	5e20fffb 	bgtzl	s1,4046d8 <mult+0x188>
  4046ec:	24c6fffc 	addiu	a2,a2,-4
  4046f0:	8fbf0024 	lw	ra,36(sp)
  4046f4:	ac510010 	sw	s1,16(v0)
  4046f8:	8fb40020 	lw	s4,32(sp)
  4046fc:	8fb3001c 	lw	s3,28(sp)
  404700:	8fb20018 	lw	s2,24(sp)
  404704:	8fb10014 	lw	s1,20(sp)
  404708:	8fb00010 	lw	s0,16(sp)
  40470c:	03e00008 	jr	ra
  404710:	27bd0028 	addiu	sp,sp,40

00404714 <diff>:
  404714:	27bdffe0 	addiu	sp,sp,-32
  404718:	afb10014 	sw	s1,20(sp)
  40471c:	afb00010 	sw	s0,16(sp)
  404720:	afbf001c 	sw	ra,28(sp)
  404724:	afb20018 	sw	s2,24(sp)
  404728:	00808021 	move	s0,a0
  40472c:	0c100fcd 	jal	403f34 <cmp>
  404730:	00a08821 	move	s1,a1
  404734:	14400007 	bnez	v0,404754 <diff+0x40>
  404738:	00000000 	nop
  40473c:	0c1010b0 	jal	4042c0 <Balloc>
  404740:	00002021 	move	a0,zero
  404744:	24030001 	li	v1,1
  404748:	ac430010 	sw	v1,16(v0)
  40474c:	08101210 	j	404840 <diff+0x12c>
  404750:	ac400014 	sw	zero,20(v0)
  404754:	04410005 	bgez	v0,40476c <diff+0x58>
  404758:	00009021 	move	s2,zero
  40475c:	02001021 	move	v0,s0
  404760:	24120001 	li	s2,1
  404764:	02208021 	move	s0,s1
  404768:	00408821 	move	s1,v0
  40476c:	0c1010b0 	jal	4042c0 <Balloc>
  404770:	8e040004 	lw	a0,4(s0)
  404774:	8e050010 	lw	a1,16(s0)
  404778:	8e2c0010 	lw	t4,16(s1)
  40477c:	26040014 	addiu	a0,s0,20
  404780:	00055880 	sll	t3,a1,0x2
  404784:	26260014 	addiu	a2,s1,20
  404788:	000c6080 	sll	t4,t4,0x2
  40478c:	ac52000c 	sw	s2,12(v0)
  404790:	008b5821 	addu	t3,a0,t3
  404794:	00cc6021 	addu	t4,a2,t4
  404798:	24430014 	addiu	v1,v0,20
  40479c:	00003821 	move	a3,zero
  4047a0:	8c890000 	lw	t1,0(a0)
  4047a4:	8cca0000 	lw	t2,0(a2)
  4047a8:	24c60004 	addiu	a2,a2,4
  4047ac:	3128ffff 	andi	t0,t1,0xffff
  4047b0:	01073821 	addu	a3,t0,a3
  4047b4:	314dffff 	andi	t5,t2,0xffff
  4047b8:	00ed4023 	subu	t0,a3,t5
  4047bc:	00094c02 	srl	t1,t1,0x10
  4047c0:	000a5402 	srl	t2,t2,0x10
  4047c4:	00083c03 	sra	a3,t0,0x10
  4047c8:	012a4823 	subu	t1,t1,t2
  4047cc:	01274821 	addu	t1,t1,a3
  4047d0:	a4680000 	sh	t0,0(v1)
  4047d4:	00cc402b 	sltu	t0,a2,t4
  4047d8:	a4690002 	sh	t1,2(v1)
  4047dc:	24840004 	addiu	a0,a0,4
  4047e0:	00093c03 	sra	a3,t1,0x10
  4047e4:	1500ffee 	bnez	t0,4047a0 <diff+0x8c>
  4047e8:	24630004 	addiu	v1,v1,4
  4047ec:	008b302b 	sltu	a2,a0,t3
  4047f0:	50c0000e 	beqzl	a2,40482c <diff+0x118>
  4047f4:	2463fffc 	addiu	v1,v1,-4
  4047f8:	8c890000 	lw	t1,0(a0)
  4047fc:	24630004 	addiu	v1,v1,4
  404800:	24840004 	addiu	a0,a0,4
  404804:	3126ffff 	andi	a2,t1,0xffff
  404808:	00c73021 	addu	a2,a2,a3
  40480c:	00064403 	sra	t0,a2,0x10
  404810:	00094c02 	srl	t1,t1,0x10
  404814:	01094021 	addu	t0,t0,t1
  404818:	a468fffe 	sh	t0,-2(v1)
  40481c:	a466fffc 	sh	a2,-4(v1)
  404820:	081011fb 	j	4047ec <diff+0xd8>
  404824:	00083c03 	sra	a3,t0,0x10
  404828:	2463fffc 	addiu	v1,v1,-4
  40482c:	8c640000 	lw	a0,0(v1)
  404830:	54800003 	bnezl	a0,404840 <diff+0x12c>
  404834:	ac450010 	sw	a1,16(v0)
  404838:	0810120a 	j	404828 <diff+0x114>
  40483c:	24a5ffff 	addiu	a1,a1,-1
  404840:	8fbf001c 	lw	ra,28(sp)
  404844:	8fb20018 	lw	s2,24(sp)
  404848:	8fb10014 	lw	s1,20(sp)
  40484c:	8fb00010 	lw	s0,16(sp)
  404850:	03e00008 	jr	ra
  404854:	27bd0020 	addiu	sp,sp,32

00404858 <lshift>:
  404858:	27bdffd0 	addiu	sp,sp,-48
  40485c:	afb00018 	sw	s0,24(sp)
  404860:	00808021 	move	s0,a0
  404864:	afb30024 	sw	s3,36(sp)
  404868:	8e130010 	lw	s3,16(s0)
  40486c:	afb20020 	sw	s2,32(sp)
  404870:	8c840004 	lw	a0,4(a0)
  404874:	00059143 	sra	s2,a1,0x5
  404878:	8e020008 	lw	v0,8(s0)
  40487c:	02539821 	addu	s3,s2,s3
  404880:	afb40028 	sw	s4,40(sp)
  404884:	afb1001c 	sw	s1,28(sp)
  404888:	afbf002c 	sw	ra,44(sp)
  40488c:	00a0a021 	move	s4,a1
  404890:	26710001 	addiu	s1,s3,1
  404894:	0051182a 	slt	v1,v0,s1
  404898:	10600003 	beqz	v1,4048a8 <lshift+0x50>
  40489c:	00021040 	sll	v0,v0,0x1
  4048a0:	08101225 	j	404894 <lshift+0x3c>
  4048a4:	24840001 	addiu	a0,a0,1
  4048a8:	0c1010b0 	jal	4042c0 <Balloc>
  4048ac:	00000000 	nop
  4048b0:	24450014 	addiu	a1,v0,20
  4048b4:	00001821 	move	v1,zero
  4048b8:	0072202a 	slt	a0,v1,s2
  4048bc:	10800005 	beqz	a0,4048d4 <lshift+0x7c>
  4048c0:	00032080 	sll	a0,v1,0x2
  4048c4:	00a42021 	addu	a0,a1,a0
  4048c8:	ac800000 	sw	zero,0(a0)
  4048cc:	0810122e 	j	4048b8 <lshift+0x60>
  4048d0:	24630001 	addiu	v1,v1,1
  4048d4:	2a440000 	slti	a0,s2,0
  4048d8:	8e070010 	lw	a3,16(s0)
  4048dc:	0004900b 	movn	s2,zero,a0
  4048e0:	00122080 	sll	a0,s2,0x2
  4048e4:	00a42021 	addu	a0,a1,a0
  4048e8:	26030014 	addiu	v1,s0,20
  4048ec:	00073880 	sll	a3,a3,0x2
  4048f0:	3285001f 	andi	a1,s4,0x1f
  4048f4:	10a00014 	beqz	a1,404948 <lshift+0xf0>
  4048f8:	00673821 	addu	a3,v1,a3
  4048fc:	24090020 	li	t1,32
  404900:	01254823 	subu	t1,t1,a1
  404904:	00003021 	move	a2,zero
  404908:	8c6a0000 	lw	t2,0(v1)
  40490c:	24630004 	addiu	v1,v1,4
  404910:	24880004 	addiu	t0,a0,4
  404914:	00aa5004 	sllv	t2,t2,a1
  404918:	00ca3025 	or	a2,a2,t2
  40491c:	ac860000 	sw	a2,0(a0)
  404920:	8c66fffc 	lw	a2,-4(v1)
  404924:	0067502b 	sltu	t2,v1,a3
  404928:	11400003 	beqz	t2,404938 <lshift+0xe0>
  40492c:	01263006 	srlv	a2,a2,t1
  404930:	08101242 	j	404908 <lshift+0xb0>
  404934:	01002021 	move	a0,t0
  404938:	26730002 	addiu	s3,s3,2
  40493c:	ac860004 	sw	a2,4(a0)
  404940:	08101259 	j	404964 <lshift+0x10c>
  404944:	0266880b 	movn	s1,s3,a2
  404948:	24630004 	addiu	v1,v1,4
  40494c:	8c65fffc 	lw	a1,-4(v1)
  404950:	24840004 	addiu	a0,a0,4
  404954:	ac85fffc 	sw	a1,-4(a0)
  404958:	0067282b 	sltu	a1,v1,a3
  40495c:	14a0fffb 	bnez	a1,40494c <lshift+0xf4>
  404960:	24630004 	addiu	v1,v1,4
  404964:	2631ffff 	addiu	s1,s1,-1
  404968:	ac510010 	sw	s1,16(v0)
  40496c:	02002021 	move	a0,s0
  404970:	0c100f76 	jal	403dd8 <Bfree>
  404974:	afa20010 	sw	v0,16(sp)
  404978:	8fbf002c 	lw	ra,44(sp)
  40497c:	8fa20010 	lw	v0,16(sp)
  404980:	8fb40028 	lw	s4,40(sp)
  404984:	8fb30024 	lw	s3,36(sp)
  404988:	8fb20020 	lw	s2,32(sp)
  40498c:	8fb1001c 	lw	s1,28(sp)
  404990:	8fb00018 	lw	s0,24(sp)
  404994:	03e00008 	jr	ra
  404998:	27bd0030 	addiu	sp,sp,48

0040499c <pow5mult>:
  40499c:	27bdffe0 	addiu	sp,sp,-32
  4049a0:	30a20003 	andi	v0,a1,0x3
  4049a4:	afb20018 	sw	s2,24(sp)
  4049a8:	afb10014 	sw	s1,20(sp)
  4049ac:	afbf001c 	sw	ra,28(sp)
  4049b0:	afb00010 	sw	s0,16(sp)
  4049b4:	00808821 	move	s1,a0
  4049b8:	1040000a 	beqz	v0,4049e4 <pow5mult+0x48>
  4049bc:	00a09021 	move	s2,a1
  4049c0:	2442ffff 	addiu	v0,v0,-1
  4049c4:	3c030041 	lui	v1,0x41
  4049c8:	2463b6a8 	addiu	v1,v1,-18776
  4049cc:	00021080 	sll	v0,v0,0x2
  4049d0:	00431021 	addu	v0,v0,v1
  4049d4:	8c450000 	lw	a1,0(v0)
  4049d8:	0c1010cc 	jal	404330 <multadd>
  4049dc:	00003021 	move	a2,zero
  4049e0:	00408821 	move	s1,v0
  4049e4:	00129083 	sra	s2,s2,0x2
  4049e8:	12400024 	beqz	s2,404a7c <pow5mult+0xe0>
  4049ec:	8f908eac 	lw	s0,-29012(gp)
  4049f0:	16000013 	bnez	s0,404a40 <pow5mult+0xa4>
  4049f4:	32420001 	andi	v0,s2,0x1
  4049f8:	0c1010b0 	jal	4042c0 <Balloc>
  4049fc:	24040001 	li	a0,1
  404a00:	00408021 	move	s0,v0
  404a04:	24020271 	li	v0,625
  404a08:	ae020014 	sw	v0,20(s0)
  404a0c:	24020001 	li	v0,1
  404a10:	ae020010 	sw	v0,16(s0)
  404a14:	af908eac 	sw	s0,-29012(gp)
  404a18:	0810128f 	j	404a3c <pow5mult+0xa0>
  404a1c:	ae000000 	sw	zero,0(s0)
  404a20:	00129043 	sra	s2,s2,0x1
  404a24:	12400016 	beqz	s2,404a80 <pow5mult+0xe4>
  404a28:	8fbf001c 	lw	ra,28(sp)
  404a2c:	8e020000 	lw	v0,0(s0)
  404a30:	1040000d 	beqz	v0,404a68 <pow5mult+0xcc>
  404a34:	02002021 	move	a0,s0
  404a38:	00408021 	move	s0,v0
  404a3c:	32420001 	andi	v0,s2,0x1
  404a40:	5040fff8 	beqzl	v0,404a24 <pow5mult+0x88>
  404a44:	00129043 	sra	s2,s2,0x1
  404a48:	02202021 	move	a0,s1
  404a4c:	0c101154 	jal	404550 <mult>
  404a50:	02002821 	move	a1,s0
  404a54:	02202021 	move	a0,s1
  404a58:	0c100f76 	jal	403dd8 <Bfree>
  404a5c:	00402821 	move	a1,v0
  404a60:	08101288 	j	404a20 <pow5mult+0x84>
  404a64:	00a08821 	move	s1,a1
  404a68:	0c101154 	jal	404550 <mult>
  404a6c:	02002821 	move	a1,s0
  404a70:	ae020000 	sw	v0,0(s0)
  404a74:	0810128e 	j	404a38 <pow5mult+0x9c>
  404a78:	ac400000 	sw	zero,0(v0)
  404a7c:	8fbf001c 	lw	ra,28(sp)
  404a80:	02201021 	move	v0,s1
  404a84:	8fb20018 	lw	s2,24(sp)
  404a88:	8fb10014 	lw	s1,20(sp)
  404a8c:	8fb00010 	lw	s0,16(sp)
  404a90:	03e00008 	jr	ra
  404a94:	27bd0020 	addiu	sp,sp,32

00404a98 <strtod>:
  404a98:	27bdff60 	addiu	sp,sp,-160
  404a9c:	2403002b 	li	v1,43
  404aa0:	afb5008c 	sw	s5,140(sp)
  404aa4:	afb40088 	sw	s4,136(sp)
  404aa8:	afa500a4 	sw	a1,164(sp)
  404aac:	0080a021 	move	s4,a0
  404ab0:	0080a821 	move	s5,a0
  404ab4:	afbf009c 	sw	ra,156(sp)
  404ab8:	afbe0098 	sw	s8,152(sp)
  404abc:	afb70094 	sw	s7,148(sp)
  404ac0:	afb60090 	sw	s6,144(sp)
  404ac4:	afb30084 	sw	s3,132(sp)
  404ac8:	afb20080 	sw	s2,128(sp)
  404acc:	afb1007c 	sw	s1,124(sp)
  404ad0:	afb00078 	sw	s0,120(sp)
  404ad4:	afa00028 	sw	zero,40(sp)
  404ad8:	afa0002c 	sw	zero,44(sp)
  404adc:	2404002d 	li	a0,45
  404ae0:	24050020 	li	a1,32
  404ae4:	92a20000 	lbu	v0,0(s5)
  404ae8:	2c46000e 	sltiu	a2,v0,14
  404aec:	10c00007 	beqz	a2,404b0c <strtod+0x74>
  404af0:	2c460009 	sltiu	a2,v0,9
  404af4:	50c0fffb 	beqzl	a2,404ae4 <strtod+0x4c>
  404af8:	26b50001 	addiu	s5,s5,1
  404afc:	104003d3 	beqz	v0,405a4c <strtod+0xfb4>
  404b00:	afa00050 	sw	zero,80(sp)
  404b04:	081012d2 	j	404b48 <strtod+0xb0>
  404b08:	92a30000 	lbu	v1,0(s5)
  404b0c:	50430008 	beql	v0,v1,404b30 <strtod+0x98>
  404b10:	afa00050 	sw	zero,80(sp)
  404b14:	10440005 	beq	v0,a0,404b2c <strtod+0x94>
  404b18:	240a0001 	li	t2,1
  404b1c:	54450009 	bnel	v0,a1,404b44 <strtod+0xac>
  404b20:	afa00050 	sw	zero,80(sp)
  404b24:	081012b9 	j	404ae4 <strtod+0x4c>
  404b28:	26b50001 	addiu	s5,s5,1
  404b2c:	afaa0050 	sw	t2,80(sp)
  404b30:	92a20001 	lbu	v0,1(s5)
  404b34:	14400003 	bnez	v0,404b44 <strtod+0xac>
  404b38:	26b50001 	addiu	s5,s5,1
  404b3c:	08101694 	j	405a50 <strtod+0xfb8>
  404b40:	8faa00a4 	lw	t2,164(sp)
  404b44:	92a30000 	lbu	v1,0(s5)
  404b48:	24020030 	li	v0,48
  404b4c:	14620009 	bne	v1,v0,404b74 <strtod+0xdc>
  404b50:	00004021 	move	t0,zero
  404b54:	24030030 	li	v1,48
  404b58:	26b50001 	addiu	s5,s5,1
  404b5c:	92a20000 	lbu	v0,0(s5)
  404b60:	5043fffe 	beql	v0,v1,404b5c <strtod+0xc4>
  404b64:	26b50001 	addiu	s5,s5,1
  404b68:	504003b8 	beqzl	v0,405a4c <strtod+0xfb4>
  404b6c:	02a0a021 	move	s4,s5
  404b70:	24080001 	li	t0,1
  404b74:	02a01021 	move	v0,s5
  404b78:	0000b821 	move	s7,zero
  404b7c:	0000f021 	move	s8,zero
  404b80:	00009821 	move	s3,zero
  404b84:	2404000a 	li	a0,10
  404b88:	90430000 	lbu	v1,0(v0)
  404b8c:	28650030 	slti	a1,v1,48
  404b90:	14a00011 	bnez	a1,404bd8 <strtod+0x140>
  404b94:	2865003a 	slti	a1,v1,58
  404b98:	10a00053 	beqz	a1,404ce8 <strtod+0x250>
  404b9c:	2a650009 	slti	a1,s3,9
  404ba0:	10a00005 	beqz	a1,404bb8 <strtod+0x120>
  404ba4:	2a650010 	slti	a1,s3,16
  404ba8:	73c42802 	mul	a1,s8,a0
  404bac:	00a3f021 	addu	s8,a1,v1
  404bb0:	081012f3 	j	404bcc <strtod+0x134>
  404bb4:	27deffd0 	addiu	s8,s8,-48
  404bb8:	50a00005 	beqzl	a1,404bd0 <strtod+0x138>
  404bbc:	26730001 	addiu	s3,s3,1
  404bc0:	72e42802 	mul	a1,s7,a0
  404bc4:	00a3b821 	addu	s7,a1,v1
  404bc8:	26f7ffd0 	addiu	s7,s7,-48
  404bcc:	26730001 	addiu	s3,s3,1
  404bd0:	081012e2 	j	404b88 <strtod+0xf0>
  404bd4:	24420001 	addiu	v0,v0,1
  404bd8:	2405002e 	li	a1,46
  404bdc:	00402021 	move	a0,v0
  404be0:	14650041 	bne	v1,a1,404ce8 <strtod+0x250>
  404be4:	02609021 	move	s2,s3
  404be8:	24420001 	addiu	v0,v0,1
  404bec:	16600036 	bnez	s3,404cc8 <strtod+0x230>
  404bf0:	90830001 	lbu	v1,1(a0)
  404bf4:	00002821 	move	a1,zero
  404bf8:	24040030 	li	a0,48
  404bfc:	54640005 	bnel	v1,a0,404c14 <strtod+0x17c>
  404c00:	2464ffcf 	addiu	a0,v1,-49
  404c04:	24420001 	addiu	v0,v0,1
  404c08:	24a50001 	addiu	a1,a1,1
  404c0c:	081012ff 	j	404bfc <strtod+0x164>
  404c10:	90430000 	lbu	v1,0(v0)
  404c14:	2c840009 	sltiu	a0,a0,9
  404c18:	50800036 	beqzl	a0,404cf4 <strtod+0x25c>
  404c1c:	00009821 	move	s3,zero
  404c20:	0040a821 	move	s5,v0
  404c24:	00003021 	move	a2,zero
  404c28:	2463ffd0 	addiu	v1,v1,-48
  404c2c:	10600022 	beqz	v1,404cb8 <strtod+0x220>
  404c30:	24c40001 	addiu	a0,a2,1
  404c34:	00a42821 	addu	a1,a1,a0
  404c38:	26470001 	addiu	a3,s2,1
  404c3c:	2409000a 	li	t1,10
  404c40:	00f25023 	subu	t2,a3,s2
  404c44:	0144502a 	slt	t2,t2,a0
  404c48:	1140000a 	beqz	t2,404c74 <strtod+0x1dc>
  404c4c:	24eaffff 	addiu	t2,a3,-1
  404c50:	294a0009 	slti	t2,t2,9
  404c54:	11400003 	beqz	t2,404c64 <strtod+0x1cc>
  404c58:	72e95002 	mul	t2,s7,t1
  404c5c:	0810131b 	j	404c6c <strtod+0x1d4>
  404c60:	73c9f002 	mul	s8,s8,t1
  404c64:	28eb0011 	slti	t3,a3,17
  404c68:	014bb80b 	movn	s7,t2,t3
  404c6c:	08101310 	j	404c40 <strtod+0x1a8>
  404c70:	24e70001 	addiu	a3,a3,1
  404c74:	28c40000 	slti	a0,a2,0
  404c78:	0004300b 	movn	a2,zero,a0
  404c7c:	02463021 	addu	a2,s2,a2
  404c80:	24d20001 	addiu	s2,a2,1
  404c84:	28c60009 	slti	a2,a2,9
  404c88:	50c00006 	beqzl	a2,404ca4 <strtod+0x20c>
  404c8c:	2a460011 	slti	a2,s2,17
  404c90:	2404000a 	li	a0,10
  404c94:	73c43002 	mul	a2,s8,a0
  404c98:	00002021 	move	a0,zero
  404c9c:	0810132e 	j	404cb8 <strtod+0x220>
  404ca0:	00c3f021 	addu	s8,a2,v1
  404ca4:	10c00004 	beqz	a2,404cb8 <strtod+0x220>
  404ca8:	00002021 	move	a0,zero
  404cac:	2406000a 	li	a2,10
  404cb0:	72e63802 	mul	a3,s7,a2
  404cb4:	00e3b821 	addu	s7,a3,v1
  404cb8:	90430001 	lbu	v1,1(v0)
  404cbc:	00803021 	move	a2,a0
  404cc0:	08101334 	j	404cd0 <strtod+0x238>
  404cc4:	24420001 	addiu	v0,v0,1
  404cc8:	00003021 	move	a2,zero
  404ccc:	00002821 	move	a1,zero
  404cd0:	2464ffd0 	addiu	a0,v1,-48
  404cd4:	2c84000a 	sltiu	a0,a0,10
  404cd8:	5480ffd4 	bnezl	a0,404c2c <strtod+0x194>
  404cdc:	2463ffd0 	addiu	v1,v1,-48
  404ce0:	08101340 	j	404d00 <strtod+0x268>
  404ce4:	306300df 	andi	v1,v1,0xdf
  404ce8:	02609021 	move	s2,s3
  404cec:	0810133e 	j	404cf8 <strtod+0x260>
  404cf0:	00003021 	move	a2,zero
  404cf4:	00a03021 	move	a2,a1
  404cf8:	00002821 	move	a1,zero
  404cfc:	306300df 	andi	v1,v1,0xdf
  404d00:	24040045 	li	a0,69
  404d04:	14640033 	bne	v1,a0,404dd4 <strtod+0x33c>
  404d08:	00401821 	move	v1,v0
  404d0c:	02461825 	or	v1,s2,a2
  404d10:	00681825 	or	v1,v1,t0
  404d14:	1060034e 	beqz	v1,405a50 <strtod+0xfb8>
  404d18:	8faa00a4 	lw	t2,164(sp)
  404d1c:	90430001 	lbu	v1,1(v0)
  404d20:	2404002b 	li	a0,43
  404d24:	10640007 	beq	v1,a0,404d44 <strtod+0x2ac>
  404d28:	00002021 	move	a0,zero
  404d2c:	2404002d 	li	a0,45
  404d30:	50640004 	beql	v1,a0,404d44 <strtod+0x2ac>
  404d34:	24040001 	li	a0,1
  404d38:	24540001 	addiu	s4,v0,1
  404d3c:	08101353 	j	404d4c <strtod+0x2b4>
  404d40:	00002021 	move	a0,zero
  404d44:	90430002 	lbu	v1,2(v0)
  404d48:	24540002 	addiu	s4,v0,2
  404d4c:	2467ffd0 	addiu	a3,v1,-48
  404d50:	2ce7000a 	sltiu	a3,a3,10
  404d54:	50e00021 	beqzl	a3,404ddc <strtod+0x344>
  404d58:	0040a021 	move	s4,v0
  404d5c:	24070030 	li	a3,48
  404d60:	54670004 	bnel	v1,a3,404d74 <strtod+0x2dc>
  404d64:	2467ffcf 	addiu	a3,v1,-49
  404d68:	26940001 	addiu	s4,s4,1
  404d6c:	08101358 	j	404d60 <strtod+0x2c8>
  404d70:	92830000 	lbu	v1,0(s4)
  404d74:	2ce70009 	sltiu	a3,a3,9
  404d78:	02804821 	move	t1,s4
  404d7c:	10e00018 	beqz	a3,404de0 <strtod+0x348>
  404d80:	0000b021 	move	s6,zero
  404d84:	2463ffd0 	addiu	v1,v1,-48
  404d88:	240b000a 	li	t3,10
  404d8c:	26940001 	addiu	s4,s4,1
  404d90:	92870000 	lbu	a3,0(s4)
  404d94:	24eaffd0 	addiu	t2,a3,-48
  404d98:	2d4a000a 	sltiu	t2,t2,10
  404d9c:	11400004 	beqz	t2,404db0 <strtod+0x318>
  404da0:	706b5002 	mul	t2,v1,t3
  404da4:	01471821 	addu	v1,t2,a3
  404da8:	08101363 	j	404d8c <strtod+0x2f4>
  404dac:	2463ffd0 	addiu	v1,v1,-48
  404db0:	02893823 	subu	a3,s4,t1
  404db4:	28e70009 	slti	a3,a3,9
  404db8:	10e00003 	beqz	a3,404dc8 <strtod+0x330>
  404dbc:	24164e1f 	li	s6,19999
  404dc0:	28674e20 	slti	a3,v1,20000
  404dc4:	0067b00b 	movn	s6,v1,a3
  404dc8:	00161823 	negu	v1,s6
  404dcc:	08101378 	j	404de0 <strtod+0x348>
  404dd0:	0064b00b 	movn	s6,v1,a0
  404dd4:	02801021 	move	v0,s4
  404dd8:	0060a021 	move	s4,v1
  404ddc:	0000b021 	move	s6,zero
  404de0:	56400004 	bnezl	s2,404df4 <strtod+0x35c>
  404de4:	2a420011 	slti	v0,s2,17
  404de8:	00c83025 	or	a2,a2,t0
  404dec:	08101693 	j	405a4c <strtod+0xfb4>
  404df0:	0046a00a 	movz	s4,v0,a2
  404df4:	24100010 	li	s0,16
  404df8:	0242800b 	movn	s0,s2,v0
  404dfc:	03c02021 	move	a0,s8
  404e00:	0c102a69 	jal	40a9a4 <__floatunsidf>
  404e04:	02c5b023 	subu	s6,s6,a1
  404e08:	2a04000a 	slti	a0,s0,10
  404e0c:	0253980a 	movz	s3,s2,s3
  404e10:	afa20028 	sw	v0,40(sp)
  404e14:	14800018 	bnez	a0,404e78 <strtod+0x3e0>
  404e18:	afa3002c 	sw	v1,44(sp)
  404e1c:	2606fff7 	addiu	a2,s0,-9
  404e20:	3c040041 	lui	a0,0x41
  404e24:	2484b708 	addiu	a0,a0,-18680
  404e28:	000630c0 	sll	a2,a2,0x3
  404e2c:	00c43021 	addu	a2,a2,a0
  404e30:	8cc70004 	lw	a3,4(a2)
  404e34:	8cc60000 	lw	a2,0(a2)
  404e38:	00602821 	move	a1,v1
  404e3c:	0c102704 	jal	409c10 <__muldf3>
  404e40:	00402021 	move	a0,v0
  404e44:	02e02021 	move	a0,s7
  404e48:	afa20064 	sw	v0,100(sp)
  404e4c:	0c102a69 	jal	40a9a4 <__floatunsidf>
  404e50:	afa30068 	sw	v1,104(sp)
  404e54:	8fa60064 	lw	a2,100(sp)
  404e58:	8fa70068 	lw	a3,104(sp)
  404e5c:	00c02021 	move	a0,a2
  404e60:	00e02821 	move	a1,a3
  404e64:	00403021 	move	a2,v0
  404e68:	0c1022b4 	jal	408ad0 <__adddf3>
  404e6c:	00603821 	move	a3,v1
  404e70:	afa20028 	sw	v0,40(sp)
  404e74:	afa3002c 	sw	v1,44(sp)
  404e78:	2a420010 	slti	v0,s2,16
  404e7c:	50400039 	beqzl	v0,404f64 <strtod+0x4cc>
  404e80:	02508023 	subu	s0,s2,s0
  404e84:	12c002f2 	beqz	s6,405a50 <strtod+0xfb8>
  404e88:	8faa00a4 	lw	t2,164(sp)
  404e8c:	1ac00027 	blez	s6,404f2c <strtod+0x494>
  404e90:	2ac20017 	slti	v0,s6,23
  404e94:	1040000a 	beqz	v0,404ec0 <strtod+0x428>
  404e98:	24020025 	li	v0,37
  404e9c:	3c020041 	lui	v0,0x41
  404ea0:	0016b0c0 	sll	s6,s6,0x3
  404ea4:	2442b708 	addiu	v0,v0,-18680
  404ea8:	02c2b021 	addu	s6,s6,v0
  404eac:	8fa40028 	lw	a0,40(sp)
  404eb0:	8fa5002c 	lw	a1,44(sp)
  404eb4:	8ec60000 	lw	a2,0(s6)
  404eb8:	081013c6 	j	404f18 <strtod+0x480>
  404ebc:	8ec70004 	lw	a3,4(s6)
  404ec0:	00521023 	subu	v0,v0,s2
  404ec4:	0056102a 	slt	v0,v0,s6
  404ec8:	54400026 	bnezl	v0,404f64 <strtod+0x4cc>
  404ecc:	02508023 	subu	s0,s2,s0
  404ed0:	2402000f 	li	v0,15
  404ed4:	00529023 	subu	s2,v0,s2
  404ed8:	3c100041 	lui	s0,0x41
  404edc:	001210c0 	sll	v0,s2,0x3
  404ee0:	2610b708 	addiu	s0,s0,-18680
  404ee4:	00501021 	addu	v0,v0,s0
  404ee8:	8fa40028 	lw	a0,40(sp)
  404eec:	8fa5002c 	lw	a1,44(sp)
  404ef0:	8c460000 	lw	a2,0(v0)
  404ef4:	8c470004 	lw	a3,4(v0)
  404ef8:	02d29023 	subu	s2,s6,s2
  404efc:	001290c0 	sll	s2,s2,0x3
  404f00:	0c102704 	jal	409c10 <__muldf3>
  404f04:	02508021 	addu	s0,s2,s0
  404f08:	8e060000 	lw	a2,0(s0)
  404f0c:	8e070004 	lw	a3,4(s0)
  404f10:	00402021 	move	a0,v0
  404f14:	00602821 	move	a1,v1
  404f18:	0c102704 	jal	409c10 <__muldf3>
  404f1c:	00000000 	nop
  404f20:	afa20028 	sw	v0,40(sp)
  404f24:	08101693 	j	405a4c <strtod+0xfb4>
  404f28:	afa3002c 	sw	v1,44(sp)
  404f2c:	2ac2ffea 	slti	v0,s6,-22
  404f30:	5440000c 	bnezl	v0,404f64 <strtod+0x4cc>
  404f34:	02508023 	subu	s0,s2,s0
  404f38:	3c020041 	lui	v0,0x41
  404f3c:	0016b0c0 	sll	s6,s6,0x3
  404f40:	2442b708 	addiu	v0,v0,-18680
  404f44:	0056b023 	subu	s6,v0,s6
  404f48:	8fa40028 	lw	a0,40(sp)
  404f4c:	8fa5002c 	lw	a1,44(sp)
  404f50:	8ec60000 	lw	a2,0(s6)
  404f54:	0c1024ae 	jal	4092b8 <__divdf3>
  404f58:	8ec70004 	lw	a3,4(s6)
  404f5c:	081013c9 	j	404f24 <strtod+0x48c>
  404f60:	afa20028 	sw	v0,40(sp)
  404f64:	02d08021 	addu	s0,s6,s0
  404f68:	1a000057 	blez	s0,4050c8 <strtod+0x630>
  404f6c:	3202000f 	andi	v0,s0,0xf
  404f70:	5040000d 	beqzl	v0,404fa8 <strtod+0x510>
  404f74:	2402fff0 	li	v0,-16
  404f78:	3c030041 	lui	v1,0x41
  404f7c:	2463b708 	addiu	v1,v1,-18680
  404f80:	000210c0 	sll	v0,v0,0x3
  404f84:	00431021 	addu	v0,v0,v1
  404f88:	8fa40028 	lw	a0,40(sp)
  404f8c:	8fa5002c 	lw	a1,44(sp)
  404f90:	8c460000 	lw	a2,0(v0)
  404f94:	0c102704 	jal	409c10 <__muldf3>
  404f98:	8c470004 	lw	a3,4(v0)
  404f9c:	afa20028 	sw	v0,40(sp)
  404fa0:	afa3002c 	sw	v1,44(sp)
  404fa4:	2402fff0 	li	v0,-16
  404fa8:	02028024 	and	s0,s0,v0
  404fac:	120000a9 	beqz	s0,405254 <strtod+0x7bc>
  404fb0:	26430008 	addiu	v1,s2,8
  404fb4:	2a020135 	slti	v0,s0,309
  404fb8:	54400006 	bnezl	v0,404fd4 <strtod+0x53c>
  404fbc:	00108103 	sra	s0,s0,0x4
  404fc0:	24020022 	li	v0,34
  404fc4:	af828ee8 	sw	v0,-28952(gp)
  404fc8:	8f838044 	lw	v1,-32700(gp)
  404fcc:	081013c8 	j	404f20 <strtod+0x488>
  404fd0:	8f828040 	lw	v0,-32704(gp)
  404fd4:	1200009f 	beqz	s0,405254 <strtod+0x7bc>
  404fd8:	26430008 	addiu	v1,s2,8
  404fdc:	3c110041 	lui	s1,0x41
  404fe0:	8fa20028 	lw	v0,40(sp)
  404fe4:	8fa3002c 	lw	v1,44(sp)
  404fe8:	2631b6e0 	addiu	s1,s1,-18720
  404fec:	0000b821 	move	s7,zero
  404ff0:	02204021 	move	t0,s1
  404ff4:	24090001 	li	t1,1
  404ff8:	12090010 	beq	s0,t1,40503c <strtod+0x5a4>
  404ffc:	32040001 	andi	a0,s0,0x1
  405000:	5080000b 	beqzl	a0,405030 <strtod+0x598>
  405004:	26f70001 	addiu	s7,s7,1
  405008:	8e260000 	lw	a2,0(s1)
  40500c:	8e270004 	lw	a3,4(s1)
  405010:	00402021 	move	a0,v0
  405014:	00602821 	move	a1,v1
  405018:	afa80068 	sw	t0,104(sp)
  40501c:	0c102704 	jal	409c10 <__muldf3>
  405020:	afa9006c 	sw	t1,108(sp)
  405024:	8fa9006c 	lw	t1,108(sp)
  405028:	8fa80068 	lw	t0,104(sp)
  40502c:	26f70001 	addiu	s7,s7,1
  405030:	00108043 	sra	s0,s0,0x1
  405034:	081013fe 	j	404ff8 <strtod+0x560>
  405038:	26310008 	addiu	s1,s1,8
  40503c:	afa3002c 	sw	v1,44(sp)
  405040:	8fa3002c 	lw	v1,44(sp)
  405044:	afa20028 	sw	v0,40(sp)
  405048:	3c02fcb0 	lui	v0,0xfcb0
  40504c:	00621021 	addu	v0,v1,v0
  405050:	0017b8c0 	sll	s7,s7,0x3
  405054:	01174021 	addu	t0,t0,s7
  405058:	afa2002c 	sw	v0,44(sp)
  40505c:	8fa40028 	lw	a0,40(sp)
  405060:	8fa5002c 	lw	a1,44(sp)
  405064:	8d060000 	lw	a2,0(t0)
  405068:	0c102704 	jal	409c10 <__muldf3>
  40506c:	8d070004 	lw	a3,4(t0)
  405070:	afa3002c 	sw	v1,44(sp)
  405074:	afa20028 	sw	v0,40(sp)
  405078:	8fa2002c 	lw	v0,44(sp)
  40507c:	3c037ff0 	lui	v1,0x7ff0
  405080:	3c057ca0 	lui	a1,0x7ca0
  405084:	00432024 	and	a0,v0,v1
  405088:	24a50001 	addiu	a1,a1,1
  40508c:	0085282b 	sltu	a1,a0,a1
  405090:	50a0ffcc 	beqzl	a1,404fc4 <strtod+0x52c>
  405094:	24020022 	li	v0,34
  405098:	3c057c90 	lui	a1,0x7c90
  40509c:	24a50001 	addiu	a1,a1,1
  4050a0:	0085202b 	sltu	a0,a0,a1
  4050a4:	54800005 	bnezl	a0,4050bc <strtod+0x624>
  4050a8:	3c030350 	lui	v1,0x350
  4050ac:	2463ffff 	addiu	v1,v1,-1
  4050b0:	afa3002c 	sw	v1,44(sp)
  4050b4:	08101493 	j	40524c <strtod+0x7b4>
  4050b8:	2402ffff 	li	v0,-1
  4050bc:	00431021 	addu	v0,v0,v1
  4050c0:	08101494 	j	405250 <strtod+0x7b8>
  4050c4:	afa2002c 	sw	v0,44(sp)
  4050c8:	12000062 	beqz	s0,405254 <strtod+0x7bc>
  4050cc:	26430008 	addiu	v1,s2,8
  4050d0:	00108023 	negu	s0,s0
  4050d4:	3202000f 	andi	v0,s0,0xf
  4050d8:	5040000d 	beqzl	v0,405110 <strtod+0x678>
  4050dc:	2402fff0 	li	v0,-16
  4050e0:	3c030041 	lui	v1,0x41
  4050e4:	2463b708 	addiu	v1,v1,-18680
  4050e8:	000210c0 	sll	v0,v0,0x3
  4050ec:	00431021 	addu	v0,v0,v1
  4050f0:	8fa40028 	lw	a0,40(sp)
  4050f4:	8fa5002c 	lw	a1,44(sp)
  4050f8:	8c460000 	lw	a2,0(v0)
  4050fc:	0c1024ae 	jal	4092b8 <__divdf3>
  405100:	8c470004 	lw	a3,4(v0)
  405104:	afa20028 	sw	v0,40(sp)
  405108:	afa3002c 	sw	v1,44(sp)
  40510c:	2402fff0 	li	v0,-16
  405110:	02028024 	and	s0,s0,v0
  405114:	1200004f 	beqz	s0,405254 <strtod+0x7bc>
  405118:	26430008 	addiu	v1,s2,8
  40511c:	3c110041 	lui	s1,0x41
  405120:	8fa80028 	lw	t0,40(sp)
  405124:	8fa9002c 	lw	t1,44(sp)
  405128:	2631b6b8 	addiu	s1,s1,-18760
  40512c:	00108103 	sra	s0,s0,0x4
  405130:	0000b821 	move	s7,zero
  405134:	02205021 	move	t2,s1
  405138:	2a020002 	slti	v0,s0,2
  40513c:	14400010 	bnez	v0,405180 <strtod+0x6e8>
  405140:	32020001 	andi	v0,s0,0x1
  405144:	5040000b 	beqzl	v0,405174 <strtod+0x6dc>
  405148:	26f70001 	addiu	s7,s7,1
  40514c:	8e260000 	lw	a2,0(s1)
  405150:	8e270004 	lw	a3,4(s1)
  405154:	01002021 	move	a0,t0
  405158:	01202821 	move	a1,t1
  40515c:	0c102704 	jal	409c10 <__muldf3>
  405160:	afaa0070 	sw	t2,112(sp)
  405164:	8faa0070 	lw	t2,112(sp)
  405168:	00404021 	move	t0,v0
  40516c:	00604821 	move	t1,v1
  405170:	26f70001 	addiu	s7,s7,1
  405174:	00108043 	sra	s0,s0,0x1
  405178:	0810144e 	j	405138 <strtod+0x6a0>
  40517c:	26310008 	addiu	s1,s1,8
  405180:	0017b8c0 	sll	s7,s7,0x3
  405184:	01575021 	addu	t2,t2,s7
  405188:	8d500000 	lw	s0,0(t2)
  40518c:	8d510004 	lw	s1,4(t2)
  405190:	01002021 	move	a0,t0
  405194:	01202821 	move	a1,t1
  405198:	02003021 	move	a2,s0
  40519c:	02203821 	move	a3,s1
  4051a0:	afa80020 	sw	t0,32(sp)
  4051a4:	afa90024 	sw	t1,36(sp)
  4051a8:	afa80068 	sw	t0,104(sp)
  4051ac:	0c102704 	jal	409c10 <__muldf3>
  4051b0:	afa9006c 	sw	t1,108(sp)
  4051b4:	00402021 	move	a0,v0
  4051b8:	00602821 	move	a1,v1
  4051bc:	00003021 	move	a2,zero
  4051c0:	00003821 	move	a3,zero
  4051c4:	afa20070 	sw	v0,112(sp)
  4051c8:	0c10265a 	jal	409968 <__eqdf2>
  4051cc:	afa30064 	sw	v1,100(sp)
  4051d0:	8fa80068 	lw	t0,104(sp)
  4051d4:	8fa9006c 	lw	t1,108(sp)
  4051d8:	8faa0070 	lw	t2,112(sp)
  4051dc:	10400004 	beqz	v0,4051f0 <strtod+0x758>
  4051e0:	8fab0064 	lw	t3,100(sp)
  4051e4:	afaa0028 	sw	t2,40(sp)
  4051e8:	08101494 	j	405250 <strtod+0x7b8>
  4051ec:	afab002c 	sw	t3,44(sp)
  4051f0:	01002021 	move	a0,t0
  4051f4:	01202821 	move	a1,t1
  4051f8:	01003021 	move	a2,t0
  4051fc:	0c1022b4 	jal	408ad0 <__adddf3>
  405200:	01203821 	move	a3,t1
  405204:	00402021 	move	a0,v0
  405208:	00602821 	move	a1,v1
  40520c:	02003021 	move	a2,s0
  405210:	0c102704 	jal	409c10 <__muldf3>
  405214:	02203821 	move	a3,s1
  405218:	00402021 	move	a0,v0
  40521c:	00602821 	move	a1,v1
  405220:	00003021 	move	a2,zero
  405224:	0c10265a 	jal	409968 <__eqdf2>
  405228:	00003821 	move	a3,zero
  40522c:	54400006 	bnezl	v0,405248 <strtod+0x7b0>
  405230:	afa0002c 	sw	zero,44(sp)
  405234:	24020022 	li	v0,34
  405238:	afa00028 	sw	zero,40(sp)
  40523c:	afa0002c 	sw	zero,44(sp)
  405240:	08101693 	j	405a4c <strtod+0xfb4>
  405244:	af828ee8 	sw	v0,-28952(gp)
  405248:	24020001 	li	v0,1
  40524c:	afa20028 	sw	v0,40(sp)
  405250:	26430008 	addiu	v1,s2,8
  405254:	24020009 	li	v0,9
  405258:	0062001a 	div	zero,v1,v0
  40525c:	004001f4 	teq	v0,zero,0x7
  405260:	00002021 	move	a0,zero
  405264:	24020001 	li	v0,1
  405268:	00001812 	mflo	v1
  40526c:	0043282a 	slt	a1,v0,v1
  405270:	10a00003 	beqz	a1,405280 <strtod+0x7e8>
  405274:	00021040 	sll	v0,v0,0x1
  405278:	0810149b 	j	40526c <strtod+0x7d4>
  40527c:	24840001 	addiu	a0,a0,1
  405280:	0c1010b0 	jal	4042c0 <Balloc>
  405284:	00000000 	nop
  405288:	0040b821 	move	s7,v0
  40528c:	ac5e0014 	sw	s8,20(v0)
  405290:	24020001 	li	v0,1
  405294:	aee20010 	sw	v0,16(s7)
  405298:	2a62000a 	slti	v0,s3,10
  40529c:	54400010 	bnezl	v0,4052e0 <strtod+0x848>
  4052a0:	26b5000a 	addiu	s5,s5,10
  4052a4:	26b10009 	addiu	s1,s5,9
  4052a8:	02208021 	move	s0,s1
  4052ac:	02b3a821 	addu	s5,s5,s3
  4052b0:	26100001 	addiu	s0,s0,1
  4052b4:	9206ffff 	lbu	a2,-1(s0)
  4052b8:	02e02021 	move	a0,s7
  4052bc:	2405000a 	li	a1,10
  4052c0:	0c1010cc 	jal	404330 <multadd>
  4052c4:	24c6ffd0 	addiu	a2,a2,-48
  4052c8:	1615fff9 	bne	s0,s5,4052b0 <strtod+0x818>
  4052cc:	0040b821 	move	s7,v0
  4052d0:	0233a821 	addu	s5,s1,s3
  4052d4:	26b5fff8 	addiu	s5,s5,-8
  4052d8:	081014ba 	j	4052e8 <strtod+0x850>
  4052dc:	02b3a823 	subu	s5,s5,s3
  4052e0:	081014b6 	j	4052d8 <strtod+0x840>
  4052e4:	24130009 	li	s3,9
  4052e8:	0272102a 	slt	v0,s3,s2
  4052ec:	10400009 	beqz	v0,405314 <strtod+0x87c>
  4052f0:	02b31021 	addu	v0,s5,s3
  4052f4:	90460000 	lbu	a2,0(v0)
  4052f8:	02e02021 	move	a0,s7
  4052fc:	2405000a 	li	a1,10
  405300:	0c1010cc 	jal	404330 <multadd>
  405304:	24c6ffd0 	addiu	a2,a2,-48
  405308:	0040b821 	move	s7,v0
  40530c:	081014ba 	j	4052e8 <strtod+0x850>
  405310:	26730001 	addiu	s3,s3,1
  405314:	8f8a8030 	lw	t2,-32720(gp)
  405318:	00161023 	negu	v0,s6
  40531c:	2ac30000 	slti	v1,s6,0
  405320:	0003100a 	movz	v0,zero,v1
  405324:	afaa005c 	sw	t2,92(sp)
  405328:	8f8a8034 	lw	t2,-32716(gp)
  40532c:	afa2004c 	sw	v0,76(sp)
  405330:	0016102a 	slt	v0,zero,s6
  405334:	0002b00a 	movz	s6,zero,v0
  405338:	afb60054 	sw	s6,84(sp)
  40533c:	afaa0060 	sw	t2,96(sp)
  405340:	0c1010b0 	jal	4042c0 <Balloc>
  405344:	8ee40004 	lw	a0,4(s7)
  405348:	8ee60010 	lw	a2,16(s7)
  40534c:	2444000c 	addiu	a0,v0,12
  405350:	26e5000c 	addiu	a1,s7,12
  405354:	24c60002 	addiu	a2,a2,2
  405358:	00063080 	sll	a2,a2,0x2
  40535c:	0c102214 	jal	408850 <memcpy>
  405360:	afa20044 	sw	v0,68(sp)
  405364:	8fb00028 	lw	s0,40(sp)
  405368:	8fb1002c 	lw	s1,44(sp)
  40536c:	27a6003c 	addiu	a2,sp,60
  405370:	02002021 	move	a0,s0
  405374:	02202821 	move	a1,s1
  405378:	0c10110a 	jal	404428 <d2b>
  40537c:	27a70038 	addiu	a3,sp,56
  405380:	24040001 	li	a0,1
  405384:	0c1010b0 	jal	4042c0 <Balloc>
  405388:	afa20040 	sw	v0,64(sp)
  40538c:	0040a821 	move	s5,v0
  405390:	24020001 	li	v0,1
  405394:	aea20014 	sw	v0,20(s5)
  405398:	aea20010 	sw	v0,16(s5)
  40539c:	8fa2003c 	lw	v0,60(sp)
  4053a0:	04400004 	bltz	v0,4053b4 <strtod+0x91c>
  4053a4:	8faa004c 	lw	t2,76(sp)
  4053a8:	8fb30054 	lw	s3,84(sp)
  4053ac:	081014f0 	j	4053c0 <strtod+0x928>
  4053b0:	01429021 	addu	s2,t2,v0
  4053b4:	8faa0054 	lw	t2,84(sp)
  4053b8:	8fb2004c 	lw	s2,76(sp)
  4053bc:	01429823 	subu	s3,t2,v0
  4053c0:	8fa30038 	lw	v1,56(sp)
  4053c4:	00432021 	addu	a0,v0,v1
  4053c8:	2884fc03 	slti	a0,a0,-1021
  4053cc:	14800003 	bnez	a0,4053dc <strtod+0x944>
  4053d0:	24420433 	addiu	v0,v0,1075
  4053d4:	24020036 	li	v0,54
  4053d8:	00431023 	subu	v0,v0,v1
  4053dc:	0242b021 	addu	s6,s2,v0
  4053e0:	02629821 	addu	s3,s3,v0
  4053e4:	0276102a 	slt	v0,s3,s6
  4053e8:	02601821 	move	v1,s3
  4053ec:	02c2180a 	movz	v1,s6,v0
  4053f0:	00601021 	move	v0,v1
  4053f4:	0243182a 	slt	v1,s2,v1
  4053f8:	0243100b 	movn	v0,s2,v1
  4053fc:	18400004 	blez	v0,405410 <strtod+0x978>
  405400:	8faa004c 	lw	t2,76(sp)
  405404:	02c2b023 	subu	s6,s6,v0
  405408:	02629823 	subu	s3,s3,v0
  40540c:	02429023 	subu	s2,s2,v0
  405410:	1140000b 	beqz	t2,405440 <strtod+0x9a8>
  405414:	01402821 	move	a1,t2
  405418:	0c101267 	jal	40499c <pow5mult>
  40541c:	02a02021 	move	a0,s5
  405420:	8fa50040 	lw	a1,64(sp)
  405424:	00402021 	move	a0,v0
  405428:	0c101154 	jal	404550 <mult>
  40542c:	0040a821 	move	s5,v0
  405430:	8fa40040 	lw	a0,64(sp)
  405434:	0c100f76 	jal	403dd8 <Bfree>
  405438:	00402821 	move	a1,v0
  40543c:	afa50040 	sw	a1,64(sp)
  405440:	1ac00004 	blez	s6,405454 <strtod+0x9bc>
  405444:	8fa40040 	lw	a0,64(sp)
  405448:	0c101216 	jal	404858 <lshift>
  40544c:	02c02821 	move	a1,s6
  405450:	afa20040 	sw	v0,64(sp)
  405454:	8faa0054 	lw	t2,84(sp)
  405458:	11400004 	beqz	t2,40546c <strtod+0x9d4>
  40545c:	8fa40044 	lw	a0,68(sp)
  405460:	0c101267 	jal	40499c <pow5mult>
  405464:	01402821 	move	a1,t2
  405468:	afa20044 	sw	v0,68(sp)
  40546c:	1a600004 	blez	s3,405480 <strtod+0x9e8>
  405470:	8fa40044 	lw	a0,68(sp)
  405474:	0c101216 	jal	404858 <lshift>
  405478:	02602821 	move	a1,s3
  40547c:	afa20044 	sw	v0,68(sp)
  405480:	1a400004 	blez	s2,405494 <strtod+0x9fc>
  405484:	02a02021 	move	a0,s5
  405488:	0c101216 	jal	404858 <lshift>
  40548c:	02402821 	move	a1,s2
  405490:	0040a821 	move	s5,v0
  405494:	8fa40040 	lw	a0,64(sp)
  405498:	0c1011c5 	jal	404714 <diff>
  40549c:	8fa50044 	lw	a1,68(sp)
  4054a0:	8c4a000c 	lw	t2,12(v0)
  4054a4:	00402021 	move	a0,v0
  4054a8:	ac40000c 	sw	zero,12(v0)
  4054ac:	02a02821 	move	a1,s5
  4054b0:	0040b021 	move	s6,v0
  4054b4:	0c100fcd 	jal	403f34 <cmp>
  4054b8:	afaa0048 	sw	t2,72(sp)
  4054bc:	04410013 	bgez	v0,40550c <strtod+0xa74>
  4054c0:	8faa0048 	lw	t2,72(sp)
  4054c4:	15400155 	bnez	t2,405a1c <strtod+0xf84>
  4054c8:	8fa20028 	lw	v0,40(sp)
  4054cc:	14400153 	bnez	v0,405a1c <strtod+0xf84>
  4054d0:	8fa2002c 	lw	v0,44(sp)
  4054d4:	7c429800 	ext	v0,v0,0x0,0x14
  4054d8:	14400150 	bnez	v0,405a1c <strtod+0xf84>
  4054dc:	00000000 	nop
  4054e0:	02c02021 	move	a0,s6
  4054e4:	0c101216 	jal	404858 <lshift>
  4054e8:	24050001 	li	a1,1
  4054ec:	00402021 	move	a0,v0
  4054f0:	02a02821 	move	a1,s5
  4054f4:	0c100fcd 	jal	403f34 <cmp>
  4054f8:	0040b021 	move	s6,v0
  4054fc:	1c40001e 	bgtz	v0,405578 <strtod+0xae0>
  405500:	8fa2002c 	lw	v0,44(sp)
  405504:	08101687 	j	405a1c <strtod+0xf84>
  405508:	00000000 	nop
  40550c:	14400047 	bnez	v0,40562c <strtod+0xb94>
  405510:	02c02021 	move	a0,s6
  405514:	8faa0048 	lw	t2,72(sp)
  405518:	8fa3002c 	lw	v1,44(sp)
  40551c:	11400010 	beqz	t2,405560 <strtod+0xac8>
  405520:	8fa20028 	lw	v0,40(sp)
  405524:	3c04000f 	lui	a0,0xf
  405528:	7c659800 	ext	a1,v1,0x0,0x14
  40552c:	3484ffff 	ori	a0,a0,0xffff
  405530:	54a4001c 	bnel	a1,a0,4055a4 <strtod+0xb0c>
  405534:	30420001 	andi	v0,v0,0x1
  405538:	2404ffff 	li	a0,-1
  40553c:	14440019 	bne	v0,a0,4055a4 <strtod+0xb0c>
  405540:	30420001 	andi	v0,v0,0x1
  405544:	3c027ff0 	lui	v0,0x7ff0
  405548:	00621824 	and	v1,v1,v0
  40554c:	3c020010 	lui	v0,0x10
  405550:	00621821 	addu	v1,v1,v0
  405554:	afa3002c 	sw	v1,44(sp)
  405558:	08101687 	j	405a1c <strtod+0xf84>
  40555c:	afa00028 	sw	zero,40(sp)
  405560:	7c639800 	ext	v1,v1,0x0,0x14
  405564:	5460000f 	bnezl	v1,4055a4 <strtod+0xb0c>
  405568:	30420001 	andi	v0,v0,0x1
  40556c:	1440000d 	bnez	v0,4055a4 <strtod+0xb0c>
  405570:	30420001 	andi	v0,v0,0x1
  405574:	8fa2002c 	lw	v0,44(sp)
  405578:	3c037ff0 	lui	v1,0x7ff0
  40557c:	00621024 	and	v0,v1,v0
  405580:	3c03fff0 	lui	v1,0xfff0
  405584:	00431021 	addu	v0,v0,v1
  405588:	3c03000f 	lui	v1,0xf
  40558c:	3463ffff 	ori	v1,v1,0xffff
  405590:	00431025 	or	v0,v0,v1
  405594:	afa2002c 	sw	v0,44(sp)
  405598:	2402ffff 	li	v0,-1
  40559c:	08101687 	j	405a1c <strtod+0xf84>
  4055a0:	afa20028 	sw	v0,40(sp)
  4055a4:	1040011d 	beqz	v0,405a1c <strtod+0xf84>
  4055a8:	00000000 	nop
  4055ac:	8faa0048 	lw	t2,72(sp)
  4055b0:	02002021 	move	a0,s0
  4055b4:	1140000b 	beqz	t2,4055e4 <strtod+0xb4c>
  4055b8:	02202821 	move	a1,s1
  4055bc:	0c100fe6 	jal	403f98 <ulp>
  4055c0:	00000000 	nop
  4055c4:	00403021 	move	a2,v0
  4055c8:	02002021 	move	a0,s0
  4055cc:	02202821 	move	a1,s1
  4055d0:	0c1022b4 	jal	408ad0 <__adddf3>
  4055d4:	00603821 	move	a3,v1
  4055d8:	afa20028 	sw	v0,40(sp)
  4055dc:	08101687 	j	405a1c <strtod+0xf84>
  4055e0:	afa3002c 	sw	v1,44(sp)
  4055e4:	0c100fe6 	jal	403f98 <ulp>
  4055e8:	00000000 	nop
  4055ec:	00403021 	move	a2,v0
  4055f0:	02002021 	move	a0,s0
  4055f4:	02202821 	move	a1,s1
  4055f8:	0c10281e 	jal	40a078 <__subdf3>
  4055fc:	00603821 	move	a3,v1
  405600:	00402021 	move	a0,v0
  405604:	00602821 	move	a1,v1
  405608:	00003021 	move	a2,zero
  40560c:	00003821 	move	a3,zero
  405610:	afa20028 	sw	v0,40(sp)
  405614:	0c10265a 	jal	409968 <__eqdf2>
  405618:	afa3002c 	sw	v1,44(sp)
  40561c:	1040ff06 	beqz	v0,405238 <strtod+0x7a0>
  405620:	24020022 	li	v0,34
  405624:	08101687 	j	405a1c <strtod+0xf84>
  405628:	00000000 	nop
  40562c:	0c101004 	jal	404010 <b2d>
  405630:	27a50034 	addiu	a1,sp,52
  405634:	02a02021 	move	a0,s5
  405638:	27a50030 	addiu	a1,sp,48
  40563c:	afa20018 	sw	v0,24(sp)
  405640:	0c101004 	jal	404010 <b2d>
  405644:	afa3001c 	sw	v1,28(sp)
  405648:	afa20010 	sw	v0,16(sp)
  40564c:	afa30014 	sw	v1,20(sp)
  405650:	8fa20030 	lw	v0,48(sp)
  405654:	8fa30034 	lw	v1,52(sp)
  405658:	8ec40010 	lw	a0,16(s6)
  40565c:	00621023 	subu	v0,v1,v0
  405660:	8ea30010 	lw	v1,16(s5)
  405664:	00831823 	subu	v1,a0,v1
  405668:	00031940 	sll	v1,v1,0x5
  40566c:	00431021 	addu	v0,v0,v1
  405670:	18400005 	blez	v0,405688 <strtod+0xbf0>
  405674:	8fa3001c 	lw	v1,28(sp)
  405678:	00021500 	sll	v0,v0,0x14
  40567c:	00621021 	addu	v0,v1,v0
  405680:	081015a6 	j	405698 <strtod+0xc00>
  405684:	afa2001c 	sw	v0,28(sp)
  405688:	8fa30014 	lw	v1,20(sp)
  40568c:	00021500 	sll	v0,v0,0x14
  405690:	00621023 	subu	v0,v1,v0
  405694:	afa20014 	sw	v0,20(sp)
  405698:	8fa40018 	lw	a0,24(sp)
  40569c:	8fa5001c 	lw	a1,28(sp)
  4056a0:	8fa60010 	lw	a2,16(sp)
  4056a4:	0c1024ae 	jal	4092b8 <__divdf3>
  4056a8:	8fa70014 	lw	a3,20(sp)
  4056ac:	8f868048 	lw	a2,-32696(gp)
  4056b0:	8f87804c 	lw	a3,-32692(gp)
  4056b4:	00402021 	move	a0,v0
  4056b8:	00602821 	move	a1,v1
  4056bc:	00409021 	move	s2,v0
  4056c0:	0c1026c1 	jal	409b04 <__ledf2>
  4056c4:	00609821 	move	s3,v1
  4056c8:	1c400025 	bgtz	v0,405760 <strtod+0xcc8>
  4056cc:	8fbe002c 	lw	s8,44(sp)
  4056d0:	8faa0048 	lw	t2,72(sp)
  4056d4:	15400030 	bnez	t2,405798 <strtod+0xd00>
  4056d8:	00004821 	move	t1,zero
  4056dc:	8fa20028 	lw	v0,40(sp)
  4056e0:	14400006 	bnez	v0,4056fc <strtod+0xc64>
  4056e4:	24030001 	li	v1,1
  4056e8:	7fc29800 	ext	v0,s8,0x0,0x14
  4056ec:	1440002d 	bnez	v0,4057a4 <strtod+0xd0c>
  4056f0:	3c08bff0 	lui	t0,0xbff0
  4056f4:	081015c5 	j	405714 <strtod+0xc7c>
  4056f8:	8f868038 	lw	a2,-32712(gp)
  4056fc:	14430028 	bne	v0,v1,4057a0 <strtod+0xd08>
  405700:	00004821 	move	t1,zero
  405704:	17c00027 	bnez	s8,4057a4 <strtod+0xd0c>
  405708:	3c08bff0 	lui	t0,0xbff0
  40570c:	0810148e 	j	405238 <strtod+0x7a0>
  405710:	24020022 	li	v0,34
  405714:	8f87803c 	lw	a3,-32708(gp)
  405718:	02402021 	move	a0,s2
  40571c:	0c1026c1 	jal	409b04 <__ledf2>
  405720:	02602821 	move	a1,s3
  405724:	04420009 	bltzl	v0,40574c <strtod+0xcb4>
  405728:	00009821 	move	s3,zero
  40572c:	8fa6005c 	lw	a2,92(sp)
  405730:	8fa70060 	lw	a3,96(sp)
  405734:	02402021 	move	a0,s2
  405738:	0c102704 	jal	409c10 <__muldf3>
  40573c:	02602821 	move	a1,s3
  405740:	00409821 	move	s3,v0
  405744:	081015d4 	j	405750 <strtod+0xcb8>
  405748:	00609021 	move	s2,v1
  40574c:	3c123fe0 	lui	s2,0x3fe0
  405750:	3c088000 	lui	t0,0x8000
  405754:	02604821 	move	t1,s3
  405758:	081015eb 	j	4057ac <strtod+0xd14>
  40575c:	01124026 	xor	t0,t0,s2
  405760:	8f868030 	lw	a2,-32720(gp)
  405764:	8f878034 	lw	a3,-32716(gp)
  405768:	02402021 	move	a0,s2
  40576c:	0c102704 	jal	409c10 <__muldf3>
  405770:	02602821 	move	a1,s3
  405774:	8faa0048 	lw	t2,72(sp)
  405778:	00409821 	move	s3,v0
  40577c:	00609021 	move	s2,v1
  405780:	00404821 	move	t1,v0
  405784:	15400009 	bnez	t2,4057ac <strtod+0xd14>
  405788:	00604021 	move	t0,v1
  40578c:	3c088000 	lui	t0,0x8000
  405790:	081015eb 	j	4057ac <strtod+0xd14>
  405794:	01034026 	xor	t0,t0,v1
  405798:	081015e9 	j	4057a4 <strtod+0xd0c>
  40579c:	3c083ff0 	lui	t0,0x3ff0
  4057a0:	3c08bff0 	lui	t0,0xbff0
  4057a4:	00009821 	move	s3,zero
  4057a8:	3c123ff0 	lui	s2,0x3ff0
  4057ac:	3c0a7ff0 	lui	t2,0x7ff0
  4057b0:	03ca1024 	and	v0,s8,t2
  4057b4:	afa20058 	sw	v0,88(sp)
  4057b8:	8fa30058 	lw	v1,88(sp)
  4057bc:	3c027fe0 	lui	v0,0x7fe0
  4057c0:	54620030 	bnel	v1,v0,405884 <strtod+0xdec>
  4057c4:	8faa0058 	lw	t2,88(sp)
  4057c8:	3c02fcb0 	lui	v0,0xfcb0
  4057cc:	03c2f021 	addu	s8,s8,v0
  4057d0:	afbe002c 	sw	s8,44(sp)
  4057d4:	afb00020 	sw	s0,32(sp)
  4057d8:	afb10024 	sw	s1,36(sp)
  4057dc:	8fb00028 	lw	s0,40(sp)
  4057e0:	8fb1002c 	lw	s1,44(sp)
  4057e4:	02002021 	move	a0,s0
  4057e8:	0c100fe6 	jal	403f98 <ulp>
  4057ec:	02202821 	move	a1,s1
  4057f0:	01202021 	move	a0,t1
  4057f4:	01002821 	move	a1,t0
  4057f8:	00403021 	move	a2,v0
  4057fc:	00603821 	move	a3,v1
  405800:	0c102704 	jal	409c10 <__muldf3>
  405804:	afaa0070 	sw	t2,112(sp)
  405808:	00403021 	move	a2,v0
  40580c:	02002021 	move	a0,s0
  405810:	02202821 	move	a1,s1
  405814:	0c1022b4 	jal	408ad0 <__adddf3>
  405818:	00603821 	move	a3,v1
  40581c:	afa3002c 	sw	v1,44(sp)
  405820:	afa20028 	sw	v0,40(sp)
  405824:	8faa0070 	lw	t2,112(sp)
  405828:	8fa2002c 	lw	v0,44(sp)
  40582c:	3c037ca0 	lui	v1,0x7ca0
  405830:	004a2024 	and	a0,v0,t2
  405834:	0083182b 	sltu	v1,a0,v1
  405838:	1460000f 	bnez	v1,405878 <strtod+0xde0>
  40583c:	3c030350 	lui	v1,0x350
  405840:	8fa20024 	lw	v0,36(sp)
  405844:	254affff 	addiu	t2,t2,-1
  405848:	144a0006 	bne	v0,t2,405864 <strtod+0xdcc>
  40584c:	3c027fef 	lui	v0,0x7fef
  405850:	8fa30020 	lw	v1,32(sp)
  405854:	2402ffff 	li	v0,-1
  405858:	1062fdda 	beq	v1,v0,404fc4 <strtod+0x52c>
  40585c:	24020022 	li	v0,34
  405860:	3c027fef 	lui	v0,0x7fef
  405864:	3442ffff 	ori	v0,v0,0xffff
  405868:	afa2002c 	sw	v0,44(sp)
  40586c:	2402ffff 	li	v0,-1
  405870:	0810167d 	j	4059f4 <strtod+0xf5c>
  405874:	afa20028 	sw	v0,40(sp)
  405878:	00431021 	addu	v0,v0,v1
  40587c:	0810164f 	j	40593c <strtod+0xea4>
  405880:	afa2002c 	sw	v0,44(sp)
  405884:	3c020340 	lui	v0,0x340
  405888:	24420001 	addiu	v0,v0,1
  40588c:	0142102b 	sltu	v0,t2,v0
  405890:	1040001c 	beqz	v0,405904 <strtod+0xe6c>
  405894:	02002021 	move	a0,s0
  405898:	8f868038 	lw	a2,-32712(gp)
  40589c:	8f87803c 	lw	a3,-32708(gp)
  4058a0:	02602021 	move	a0,s3
  4058a4:	02402821 	move	a1,s2
  4058a8:	afa80068 	sw	t0,104(sp)
  4058ac:	0c10267a 	jal	4099e8 <__gedf2>
  4058b0:	afa9006c 	sw	t1,108(sp)
  4058b4:	8fa80068 	lw	t0,104(sp)
  4058b8:	04400011 	bltz	v0,405900 <strtod+0xe68>
  4058bc:	8fa9006c 	lw	t1,108(sp)
  4058c0:	8f868030 	lw	a2,-32720(gp)
  4058c4:	8f878034 	lw	a3,-32716(gp)
  4058c8:	02602021 	move	a0,s3
  4058cc:	0c1022b4 	jal	408ad0 <__adddf3>
  4058d0:	02402821 	move	a1,s2
  4058d4:	00402021 	move	a0,v0
  4058d8:	0c102a2e 	jal	40a8b8 <__fixdfsi>
  4058dc:	00602821 	move	a1,v1
  4058e0:	0c102a4c 	jal	40a930 <__floatsidf>
  4058e4:	00402021 	move	a0,v0
  4058e8:	8faa0048 	lw	t2,72(sp)
  4058ec:	00404821 	move	t1,v0
  4058f0:	15400003 	bnez	t2,405900 <strtod+0xe68>
  4058f4:	00604021 	move	t0,v1
  4058f8:	3c088000 	lui	t0,0x8000
  4058fc:	01034026 	xor	t0,t0,v1
  405900:	02002021 	move	a0,s0
  405904:	0c100fe6 	jal	403f98 <ulp>
  405908:	02202821 	move	a1,s1
  40590c:	01202021 	move	a0,t1
  405910:	01002821 	move	a1,t0
  405914:	00403021 	move	a2,v0
  405918:	0c102704 	jal	409c10 <__muldf3>
  40591c:	00603821 	move	a3,v1
  405920:	00403021 	move	a2,v0
  405924:	02002021 	move	a0,s0
  405928:	02202821 	move	a1,s1
  40592c:	0c1022b4 	jal	408ad0 <__adddf3>
  405930:	00603821 	move	a3,v1
  405934:	afa20028 	sw	v0,40(sp)
  405938:	afa3002c 	sw	v1,44(sp)
  40593c:	8fbe002c 	lw	s8,44(sp)
  405940:	8faa0058 	lw	t2,88(sp)
  405944:	3c027ff0 	lui	v0,0x7ff0
  405948:	03c21024 	and	v0,s8,v0
  40594c:	15420029 	bne	t2,v0,4059f4 <strtod+0xf5c>
  405950:	02402821 	move	a1,s2
  405954:	0c102a2e 	jal	40a8b8 <__fixdfsi>
  405958:	02602021 	move	a0,s3
  40595c:	0c102a4c 	jal	40a930 <__floatsidf>
  405960:	00402021 	move	a0,v0
  405964:	00403021 	move	a2,v0
  405968:	02602021 	move	a0,s3
  40596c:	02402821 	move	a1,s2
  405970:	0c10281e 	jal	40a078 <__subdf3>
  405974:	00603821 	move	a3,v1
  405978:	8faa0048 	lw	t2,72(sp)
  40597c:	00408021 	move	s0,v0
  405980:	15400007 	bnez	t2,4059a0 <strtod+0xf08>
  405984:	00608821 	move	s1,v1
  405988:	8fa20028 	lw	v0,40(sp)
  40598c:	14400005 	bnez	v0,4059a4 <strtod+0xf0c>
  405990:	8f868050 	lw	a2,-32688(gp)
  405994:	7fde9800 	ext	s8,s8,0x0,0x14
  405998:	13c00010 	beqz	s8,4059dc <strtod+0xf44>
  40599c:	8f868060 	lw	a2,-32672(gp)
  4059a0:	8f868050 	lw	a2,-32688(gp)
  4059a4:	8f878054 	lw	a3,-32684(gp)
  4059a8:	02002021 	move	a0,s0
  4059ac:	0c1026c1 	jal	409b04 <__ledf2>
  4059b0:	02202821 	move	a1,s1
  4059b4:	04400019 	bltz	v0,405a1c <strtod+0xf84>
  4059b8:	8f868058 	lw	a2,-32680(gp)
  4059bc:	8f87805c 	lw	a3,-32676(gp)
  4059c0:	02002021 	move	a0,s0
  4059c4:	0c10267a 	jal	4099e8 <__gedf2>
  4059c8:	02202821 	move	a1,s1
  4059cc:	18400009 	blez	v0,4059f4 <strtod+0xf5c>
  4059d0:	00000000 	nop
  4059d4:	08101687 	j	405a1c <strtod+0xf84>
  4059d8:	00000000 	nop
  4059dc:	8f878064 	lw	a3,-32668(gp)
  4059e0:	02002021 	move	a0,s0
  4059e4:	0c1026c1 	jal	409b04 <__ledf2>
  4059e8:	00602821 	move	a1,v1
  4059ec:	0440000b 	bltz	v0,405a1c <strtod+0xf84>
  4059f0:	00000000 	nop
  4059f4:	0c100f76 	jal	403dd8 <Bfree>
  4059f8:	8fa40040 	lw	a0,64(sp)
  4059fc:	0c100f76 	jal	403dd8 <Bfree>
  405a00:	8fa40044 	lw	a0,68(sp)
  405a04:	0c100f76 	jal	403dd8 <Bfree>
  405a08:	02a02021 	move	a0,s5
  405a0c:	0c100f76 	jal	403dd8 <Bfree>
  405a10:	02c02021 	move	a0,s6
  405a14:	081014d0 	j	405340 <strtod+0x8a8>
  405a18:	00000000 	nop
  405a1c:	0c100f76 	jal	403dd8 <Bfree>
  405a20:	8fa40040 	lw	a0,64(sp)
  405a24:	0c100f76 	jal	403dd8 <Bfree>
  405a28:	8fa40044 	lw	a0,68(sp)
  405a2c:	0c100f76 	jal	403dd8 <Bfree>
  405a30:	02a02021 	move	a0,s5
  405a34:	0c100f76 	jal	403dd8 <Bfree>
  405a38:	02e02021 	move	a0,s7
  405a3c:	0c100f76 	jal	403dd8 <Bfree>
  405a40:	02c02021 	move	a0,s6
  405a44:	08101694 	j	405a50 <strtod+0xfb8>
  405a48:	8faa00a4 	lw	t2,164(sp)
  405a4c:	8faa00a4 	lw	t2,164(sp)
  405a50:	55400001 	bnezl	t2,405a58 <strtod+0xfc0>
  405a54:	ad540000 	sw	s4,0(t2)
  405a58:	8faa0050 	lw	t2,80(sp)
  405a5c:	8fa30028 	lw	v1,40(sp)
  405a60:	11400003 	beqz	t2,405a70 <strtod+0xfd8>
  405a64:	8fa2002c 	lw	v0,44(sp)
  405a68:	3c048000 	lui	a0,0x8000
  405a6c:	00441026 	xor	v0,v0,a0
  405a70:	8fbf009c 	lw	ra,156(sp)
  405a74:	00402021 	move	a0,v0
  405a78:	8fbe0098 	lw	s8,152(sp)
  405a7c:	00601021 	move	v0,v1
  405a80:	8fb70094 	lw	s7,148(sp)
  405a84:	8fb60090 	lw	s6,144(sp)
  405a88:	8fb5008c 	lw	s5,140(sp)
  405a8c:	8fb40088 	lw	s4,136(sp)
  405a90:	8fb30084 	lw	s3,132(sp)
  405a94:	8fb20080 	lw	s2,128(sp)
  405a98:	8fb1007c 	lw	s1,124(sp)
  405a9c:	8fb00078 	lw	s0,120(sp)
  405aa0:	00801821 	move	v1,a0
  405aa4:	03e00008 	jr	ra
  405aa8:	27bd00a0 	addiu	sp,sp,160

00405aac <__dtoa>:
  405aac:	27bdff68 	addiu	sp,sp,-152
  405ab0:	afa40098 	sw	a0,152(sp)
  405ab4:	8f848ea8 	lw	a0,-29016(gp)
  405ab8:	afa5009c 	sw	a1,156(sp)
  405abc:	afbf0094 	sw	ra,148(sp)
  405ac0:	afbe0090 	sw	s8,144(sp)
  405ac4:	afb7008c 	sw	s7,140(sp)
  405ac8:	afb60088 	sw	s6,136(sp)
  405acc:	afb50084 	sw	s5,132(sp)
  405ad0:	afb40080 	sw	s4,128(sp)
  405ad4:	afb3007c 	sw	s3,124(sp)
  405ad8:	afb20078 	sw	s2,120(sp)
  405adc:	afb10074 	sw	s1,116(sp)
  405ae0:	afb00070 	sw	s0,112(sp)
  405ae4:	afa600a0 	sw	a2,160(sp)
  405ae8:	afa700a4 	sw	a3,164(sp)
  405aec:	10800008 	beqz	a0,405b10 <__dtoa+0x64>
  405af0:	8fa500ac 	lw	a1,172(sp)
  405af4:	8f828ea4 	lw	v0,-29020(gp)
  405af8:	24030001 	li	v1,1
  405afc:	ac820004 	sw	v0,4(a0)
  405b00:	00431004 	sllv	v0,v1,v0
  405b04:	0c100f76 	jal	403dd8 <Bfree>
  405b08:	ac820008 	sw	v0,8(a0)
  405b0c:	af808ea8 	sw	zero,-29016(gp)
  405b10:	8fa2009c 	lw	v0,156(sp)
  405b14:	04430005 	bgezl	v0,405b2c <__dtoa+0x80>
  405b18:	aca00000 	sw	zero,0(a1)
  405b1c:	24030001 	li	v1,1
  405b20:	7c42f000 	ext	v0,v0,0x0,0x1f
  405b24:	aca30000 	sw	v1,0(a1)
  405b28:	afa2009c 	sw	v0,156(sp)
  405b2c:	8fb3009c 	lw	s3,156(sp)
  405b30:	3c027ff0 	lui	v0,0x7ff0
  405b34:	02621824 	and	v1,s3,v0
  405b38:	14620016 	bne	v1,v0,405b94 <__dtoa+0xe8>
  405b3c:	8fb00098 	lw	s0,152(sp)
  405b40:	8fa300a8 	lw	v1,168(sp)
  405b44:	2402270f 	li	v0,9999
  405b48:	ac620000 	sw	v0,0(v1)
  405b4c:	8fa20098 	lw	v0,152(sp)
  405b50:	54400005 	bnezl	v0,405b68 <__dtoa+0xbc>
  405b54:	3c020041 	lui	v0,0x41
  405b58:	7e739800 	ext	s3,s3,0x0,0x14
  405b5c:	52600004 	beqzl	s3,405b70 <__dtoa+0xc4>
  405b60:	3c020041 	lui	v0,0x41
  405b64:	3c020041 	lui	v0,0x41
  405b68:	081016dd 	j	405b74 <__dtoa+0xc8>
  405b6c:	2442b52c 	addiu	v0,v0,-19156
  405b70:	2442b69c 	addiu	v0,v0,-18788
  405b74:	8fa400b0 	lw	a0,176(sp)
  405b78:	10800475 	beqz	a0,406d50 <__dtoa+0x12a4>
  405b7c:	24440003 	addiu	a0,v0,3
  405b80:	90450003 	lbu	a1,3(v0)
  405b84:	24430008 	addiu	v1,v0,8
  405b88:	0085180a 	movz	v1,a0,a1
  405b8c:	081016f5 	j	405bd4 <__dtoa+0x128>
  405b90:	8fa400b0 	lw	a0,176(sp)
  405b94:	8fb1009c 	lw	s1,156(sp)
  405b98:	00003021 	move	a2,zero
  405b9c:	02002021 	move	a0,s0
  405ba0:	02202821 	move	a1,s1
  405ba4:	0c10265a 	jal	409968 <__eqdf2>
  405ba8:	00003821 	move	a3,zero
  405bac:	1440000b 	bnez	v0,405bdc <__dtoa+0x130>
  405bb0:	8fa300a8 	lw	v1,168(sp)
  405bb4:	8fa400b0 	lw	a0,176(sp)
  405bb8:	24020001 	li	v0,1
  405bbc:	ac620000 	sw	v0,0(v1)
  405bc0:	3c020041 	lui	v0,0x41
  405bc4:	10800462 	beqz	a0,406d50 <__dtoa+0x12a4>
  405bc8:	2442b530 	addiu	v0,v0,-19152
  405bcc:	3c030041 	lui	v1,0x41
  405bd0:	2463b531 	addiu	v1,v1,-19151
  405bd4:	08101b54 	j	406d50 <__dtoa+0x12a4>
  405bd8:	ac830000 	sw	v1,0(a0)
  405bdc:	02002021 	move	a0,s0
  405be0:	02202821 	move	a1,s1
  405be4:	27a60020 	addiu	a2,sp,32
  405be8:	0c10110a 	jal	404428 <d2b>
  405bec:	27a70024 	addiu	a3,sp,36
  405bf0:	7e775500 	ext	s7,s3,0x14,0xb
  405bf4:	0040a821 	move	s5,v0
  405bf8:	12e0000b 	beqz	s7,405c28 <__dtoa+0x17c>
  405bfc:	8fb20024 	lw	s2,36(sp)
  405c00:	afb1001c 	sw	s1,28(sp)
  405c04:	8fa2001c 	lw	v0,28(sp)
  405c08:	3c033ff0 	lui	v1,0x3ff0
  405c0c:	afb00018 	sw	s0,24(sp)
  405c10:	7c429800 	ext	v0,v0,0x0,0x14
  405c14:	00431025 	or	v0,v0,v1
  405c18:	afa2001c 	sw	v0,28(sp)
  405c1c:	26f7fc01 	addiu	s7,s7,-1023
  405c20:	08101723 	j	405c8c <__dtoa+0x1e0>
  405c24:	afa00058 	sw	zero,88(sp)
  405c28:	8fb70020 	lw	s7,32(sp)
  405c2c:	0257b821 	addu	s7,s2,s7
  405c30:	2ae3fbef 	slti	v1,s7,-1041
  405c34:	14600008 	bnez	v1,405c58 <__dtoa+0x1ac>
  405c38:	8fa20098 	lw	v0,152(sp)
  405c3c:	26e40412 	addiu	a0,s7,1042
  405c40:	00821006 	srlv	v0,v0,a0
  405c44:	2404fc0e 	li	a0,-1010
  405c48:	00972023 	subu	a0,a0,s7
  405c4c:	00939804 	sllv	s3,s3,a0
  405c50:	08101719 	j	405c64 <__dtoa+0x1b8>
  405c54:	00532025 	or	a0,v0,s3
  405c58:	2404fbee 	li	a0,-1042
  405c5c:	00972023 	subu	a0,a0,s7
  405c60:	00822004 	sllv	a0,v0,a0
  405c64:	0c102a69 	jal	40a9a4 <__floatunsidf>
  405c68:	26f7ffff 	addiu	s7,s7,-1
  405c6c:	afa3001c 	sw	v1,28(sp)
  405c70:	8fa3001c 	lw	v1,28(sp)
  405c74:	afa20018 	sw	v0,24(sp)
  405c78:	3c02fe10 	lui	v0,0xfe10
  405c7c:	00621021 	addu	v0,v1,v0
  405c80:	afa2001c 	sw	v0,28(sp)
  405c84:	24020001 	li	v0,1
  405c88:	afa20058 	sw	v0,88(sp)
  405c8c:	8fa40018 	lw	a0,24(sp)
  405c90:	8fa5001c 	lw	a1,28(sp)
  405c94:	8f868068 	lw	a2,-32664(gp)
  405c98:	0c10281e 	jal	40a078 <__subdf3>
  405c9c:	8f87806c 	lw	a3,-32660(gp)
  405ca0:	8f868070 	lw	a2,-32656(gp)
  405ca4:	8f878074 	lw	a3,-32652(gp)
  405ca8:	00402021 	move	a0,v0
  405cac:	0c102704 	jal	409c10 <__muldf3>
  405cb0:	00602821 	move	a1,v1
  405cb4:	8f868078 	lw	a2,-32648(gp)
  405cb8:	8f87807c 	lw	a3,-32644(gp)
  405cbc:	00602821 	move	a1,v1
  405cc0:	0c1022b4 	jal	408ad0 <__adddf3>
  405cc4:	00402021 	move	a0,v0
  405cc8:	02e02021 	move	a0,s7
  405ccc:	00408021 	move	s0,v0
  405cd0:	0c102a4c 	jal	40a930 <__floatsidf>
  405cd4:	00608821 	move	s1,v1
  405cd8:	8f868080 	lw	a2,-32640(gp)
  405cdc:	8f878084 	lw	a3,-32636(gp)
  405ce0:	00402021 	move	a0,v0
  405ce4:	0c102704 	jal	409c10 <__muldf3>
  405ce8:	00602821 	move	a1,v1
  405cec:	00403021 	move	a2,v0
  405cf0:	02002021 	move	a0,s0
  405cf4:	02202821 	move	a1,s1
  405cf8:	0c1022b4 	jal	408ad0 <__adddf3>
  405cfc:	00603821 	move	a3,v1
  405d00:	00408021 	move	s0,v0
  405d04:	00608821 	move	s1,v1
  405d08:	00402021 	move	a0,v0
  405d0c:	0c102a2e 	jal	40a8b8 <__fixdfsi>
  405d10:	00602821 	move	a1,v1
  405d14:	02002021 	move	a0,s0
  405d18:	02202821 	move	a1,s1
  405d1c:	00003021 	move	a2,zero
  405d20:	00003821 	move	a3,zero
  405d24:	0c1026c1 	jal	409b04 <__ledf2>
  405d28:	0040a021 	move	s4,v0
  405d2c:	0441000b 	bgez	v0,405d5c <__dtoa+0x2b0>
  405d30:	24030001 	li	v1,1
  405d34:	0c102a4c 	jal	40a930 <__floatsidf>
  405d38:	02802021 	move	a0,s4
  405d3c:	00403021 	move	a2,v0
  405d40:	02002021 	move	a0,s0
  405d44:	02202821 	move	a1,s1
  405d48:	0c10265a 	jal	409968 <__eqdf2>
  405d4c:	00603821 	move	a3,v1
  405d50:	0002102b 	sltu	v0,zero,v0
  405d54:	0282a023 	subu	s4,s4,v0
  405d58:	24030001 	li	v1,1
  405d5c:	2e820017 	sltiu	v0,s4,23
  405d60:	1040000d 	beqz	v0,405d98 <__dtoa+0x2ec>
  405d64:	afa30048 	sw	v1,72(sp)
  405d68:	3c030041 	lui	v1,0x41
  405d6c:	001410c0 	sll	v0,s4,0x3
  405d70:	2463b708 	addiu	v1,v1,-18680
  405d74:	00431021 	addu	v0,v0,v1
  405d78:	8fa40098 	lw	a0,152(sp)
  405d7c:	8fa5009c 	lw	a1,156(sp)
  405d80:	8c460000 	lw	a2,0(v0)
  405d84:	0c1026c1 	jal	409b04 <__ledf2>
  405d88:	8c470004 	lw	a3,4(v0)
  405d8c:	04420001 	bltzl	v0,405d94 <__dtoa+0x2e8>
  405d90:	2694ffff 	addiu	s4,s4,-1
  405d94:	afa00048 	sw	zero,72(sp)
  405d98:	0257b823 	subu	s7,s2,s7
  405d9c:	26f7ffff 	addiu	s7,s7,-1
  405da0:	06e10004 	bgez	s7,405db4 <__dtoa+0x308>
  405da4:	afa00028 	sw	zero,40(sp)
  405da8:	0017b823 	negu	s7,s7
  405dac:	afb70028 	sw	s7,40(sp)
  405db0:	0000b821 	move	s7,zero
  405db4:	06800005 	bltz	s4,405dcc <__dtoa+0x320>
  405db8:	8fa40028 	lw	a0,40(sp)
  405dbc:	02f4b821 	addu	s7,s7,s4
  405dc0:	afb40044 	sw	s4,68(sp)
  405dc4:	08101778 	j	405de0 <__dtoa+0x334>
  405dc8:	afa00030 	sw	zero,48(sp)
  405dcc:	00141023 	negu	v0,s4
  405dd0:	afa20030 	sw	v0,48(sp)
  405dd4:	00942023 	subu	a0,a0,s4
  405dd8:	afa40028 	sw	a0,40(sp)
  405ddc:	afa00044 	sw	zero,68(sp)
  405de0:	8fa300a0 	lw	v1,160(sp)
  405de4:	2c62000a 	sltiu	v0,v1,10
  405de8:	1040002b 	beqz	v0,405e98 <__dtoa+0x3ec>
  405dec:	24020001 	li	v0,1
  405df0:	28620006 	slti	v0,v1,6
  405df4:	14400004 	bnez	v0,405e08 <__dtoa+0x35c>
  405df8:	24100001 	li	s0,1
  405dfc:	2463fffc 	addiu	v1,v1,-4
  405e00:	afa300a0 	sw	v1,160(sp)
  405e04:	00008021 	move	s0,zero
  405e08:	8fa400a0 	lw	a0,160(sp)
  405e0c:	24020003 	li	v0,3
  405e10:	50820019 	beql	a0,v0,405e78 <__dtoa+0x3cc>
  405e14:	afa00034 	sw	zero,52(sp)
  405e18:	28820004 	slti	v0,a0,4
  405e1c:	10400006 	beqz	v0,405e38 <__dtoa+0x38c>
  405e20:	8fa300a0 	lw	v1,160(sp)
  405e24:	24020002 	li	v0,2
  405e28:	1082000d 	beq	a0,v0,405e60 <__dtoa+0x3b4>
  405e2c:	afa00034 	sw	zero,52(sp)
  405e30:	081017ac 	j	405eb0 <__dtoa+0x404>
  405e34:	24040001 	li	a0,1
  405e38:	24020004 	li	v0,4
  405e3c:	10620006 	beq	v1,v0,405e58 <__dtoa+0x3ac>
  405e40:	24040001 	li	a0,1
  405e44:	24020005 	li	v0,5
  405e48:	1062000b 	beq	v1,v0,405e78 <__dtoa+0x3cc>
  405e4c:	afa40034 	sw	a0,52(sp)
  405e50:	081017ae 	j	405eb8 <__dtoa+0x40c>
  405e54:	2402ffff 	li	v0,-1
  405e58:	24020001 	li	v0,1
  405e5c:	afa20034 	sw	v0,52(sp)
  405e60:	8fa300a4 	lw	v1,164(sp)
  405e64:	18600019 	blez	v1,405ecc <__dtoa+0x420>
  405e68:	0060b021 	move	s6,v1
  405e6c:	afa30038 	sw	v1,56(sp)
  405e70:	081017b9 	j	405ee4 <__dtoa+0x438>
  405e74:	00601021 	move	v0,v1
  405e78:	8fa400a4 	lw	a0,164(sp)
  405e7c:	24020001 	li	v0,1
  405e80:	00942021 	addu	a0,a0,s4
  405e84:	24960001 	addiu	s6,a0,1
  405e88:	0016182a 	slt	v1,zero,s6
  405e8c:	afa40038 	sw	a0,56(sp)
  405e90:	081017b9 	j	405ee4 <__dtoa+0x438>
  405e94:	02c3100b 	movn	v0,s6,v1
  405e98:	2403ffff 	li	v1,-1
  405e9c:	24100001 	li	s0,1
  405ea0:	afa000a0 	sw	zero,160(sp)
  405ea4:	afa20034 	sw	v0,52(sp)
  405ea8:	081017af 	j	405ebc <__dtoa+0x410>
  405eac:	afa30038 	sw	v1,56(sp)
  405eb0:	2402ffff 	li	v0,-1
  405eb4:	afa40034 	sw	a0,52(sp)
  405eb8:	afa20038 	sw	v0,56(sp)
  405ebc:	2416ffff 	li	s6,-1
  405ec0:	24020012 	li	v0,18
  405ec4:	081017b9 	j	405ee4 <__dtoa+0x438>
  405ec8:	afa000a4 	sw	zero,164(sp)
  405ecc:	24030001 	li	v1,1
  405ed0:	24040001 	li	a0,1
  405ed4:	afa30038 	sw	v1,56(sp)
  405ed8:	24160001 	li	s6,1
  405edc:	24020001 	li	v0,1
  405ee0:	afa400a4 	sw	a0,164(sp)
  405ee4:	00002821 	move	a1,zero
  405ee8:	24030004 	li	v1,4
  405eec:	24660014 	addiu	a2,v1,20
  405ef0:	00c2302b 	sltu	a2,a2,v0
  405ef4:	00a02021 	move	a0,a1
  405ef8:	10c00003 	beqz	a2,405f08 <__dtoa+0x45c>
  405efc:	24a50001 	addiu	a1,a1,1
  405f00:	081017bb 	j	405eec <__dtoa+0x440>
  405f04:	00031840 	sll	v1,v1,0x1
  405f08:	0c1010b0 	jal	4042c0 <Balloc>
  405f0c:	af848ea4 	sw	a0,-29020(gp)
  405f10:	afa2002c 	sw	v0,44(sp)
  405f14:	af828ea8 	sw	v0,-29016(gp)
  405f18:	2ec2000f 	sltiu	v0,s6,15
  405f1c:	1040014d 	beqz	v0,406454 <__dtoa+0x9a8>
  405f20:	8fa20020 	lw	v0,32(sp)
  405f24:	1200014b 	beqz	s0,406454 <__dtoa+0x9a8>
  405f28:	8fa3009c 	lw	v1,156(sp)
  405f2c:	8fa20098 	lw	v0,152(sp)
  405f30:	afa20050 	sw	v0,80(sp)
  405f34:	afa30054 	sw	v1,84(sp)
  405f38:	afa20018 	sw	v0,24(sp)
  405f3c:	1a80002d 	blez	s4,405ff4 <__dtoa+0x548>
  405f40:	afa3001c 	sw	v1,28(sp)
  405f44:	3283000f 	andi	v1,s4,0xf
  405f48:	3c020041 	lui	v0,0x41
  405f4c:	000318c0 	sll	v1,v1,0x3
  405f50:	2442b708 	addiu	v0,v0,-18680
  405f54:	00621021 	addu	v0,v1,v0
  405f58:	00149903 	sra	s3,s4,0x4
  405f5c:	8c500000 	lw	s0,0(v0)
  405f60:	8c510004 	lw	s1,4(v0)
  405f64:	32620010 	andi	v0,s3,0x10
  405f68:	1040000a 	beqz	v0,405f94 <__dtoa+0x4e8>
  405f6c:	24120002 	li	s2,2
  405f70:	8fa40050 	lw	a0,80(sp)
  405f74:	8fa50054 	lw	a1,84(sp)
  405f78:	8f868088 	lw	a2,-32632(gp)
  405f7c:	8f87808c 	lw	a3,-32628(gp)
  405f80:	3273000f 	andi	s3,s3,0xf
  405f84:	0c1024ae 	jal	4092b8 <__divdf3>
  405f88:	24120003 	li	s2,3
  405f8c:	afa20098 	sw	v0,152(sp)
  405f90:	afa3009c 	sw	v1,156(sp)
  405f94:	3c1e0041 	lui	s8,0x41
  405f98:	27deb6e0 	addiu	s8,s8,-18720
  405f9c:	1260000e 	beqz	s3,405fd8 <__dtoa+0x52c>
  405fa0:	32620001 	andi	v0,s3,0x1
  405fa4:	5040000a 	beqzl	v0,405fd0 <__dtoa+0x524>
  405fa8:	00139843 	sra	s3,s3,0x1
  405fac:	8fc60000 	lw	a2,0(s8)
  405fb0:	8fc70004 	lw	a3,4(s8)
  405fb4:	02002021 	move	a0,s0
  405fb8:	0c102704 	jal	409c10 <__muldf3>
  405fbc:	02202821 	move	a1,s1
  405fc0:	26520001 	addiu	s2,s2,1
  405fc4:	00408021 	move	s0,v0
  405fc8:	00608821 	move	s1,v1
  405fcc:	00139843 	sra	s3,s3,0x1
  405fd0:	081017e7 	j	405f9c <__dtoa+0x4f0>
  405fd4:	27de0008 	addiu	s8,s8,8
  405fd8:	8fa40098 	lw	a0,152(sp)
  405fdc:	8fa5009c 	lw	a1,156(sp)
  405fe0:	02003021 	move	a2,s0
  405fe4:	0c1024ae 	jal	4092b8 <__divdf3>
  405fe8:	02203821 	move	a3,s1
  405fec:	0810181b 	j	40606c <__dtoa+0x5c0>
  405ff0:	afa20098 	sw	v0,152(sp)
  405ff4:	00148023 	negu	s0,s4
  405ff8:	1200001d 	beqz	s0,406070 <__dtoa+0x5c4>
  405ffc:	24120002 	li	s2,2
  406000:	3203000f 	andi	v1,s0,0xf
  406004:	3c020041 	lui	v0,0x41
  406008:	000318c0 	sll	v1,v1,0x3
  40600c:	2442b708 	addiu	v0,v0,-18680
  406010:	00621021 	addu	v0,v1,v0
  406014:	8fa40050 	lw	a0,80(sp)
  406018:	8fa50054 	lw	a1,84(sp)
  40601c:	8c460000 	lw	a2,0(v0)
  406020:	8c470004 	lw	a3,4(v0)
  406024:	3c110041 	lui	s1,0x41
  406028:	0c102704 	jal	409c10 <__muldf3>
  40602c:	00108103 	sra	s0,s0,0x4
  406030:	2631b6e0 	addiu	s1,s1,-18720
  406034:	1200000c 	beqz	s0,406068 <__dtoa+0x5bc>
  406038:	32040001 	andi	a0,s0,0x1
  40603c:	50800008 	beqzl	a0,406060 <__dtoa+0x5b4>
  406040:	00108043 	sra	s0,s0,0x1
  406044:	8e260000 	lw	a2,0(s1)
  406048:	8e270004 	lw	a3,4(s1)
  40604c:	00402021 	move	a0,v0
  406050:	00602821 	move	a1,v1
  406054:	0c102704 	jal	409c10 <__muldf3>
  406058:	26520001 	addiu	s2,s2,1
  40605c:	00108043 	sra	s0,s0,0x1
  406060:	0810180d 	j	406034 <__dtoa+0x588>
  406064:	26310008 	addiu	s1,s1,8
  406068:	afa20098 	sw	v0,152(sp)
  40606c:	afa3009c 	sw	v1,156(sp)
  406070:	8fa30048 	lw	v1,72(sp)
  406074:	5060001a 	beqzl	v1,4060e0 <__dtoa+0x634>
  406078:	afb4003c 	sw	s4,60(sp)
  40607c:	8fb00098 	lw	s0,152(sp)
  406080:	8fb1009c 	lw	s1,156(sp)
  406084:	8f868038 	lw	a2,-32712(gp)
  406088:	8f87803c 	lw	a3,-32708(gp)
  40608c:	02002021 	move	a0,s0
  406090:	0c1026c1 	jal	409b04 <__ledf2>
  406094:	02202821 	move	a1,s1
  406098:	04430011 	bgezl	v0,4060e0 <__dtoa+0x634>
  40609c:	afb4003c 	sw	s4,60(sp)
  4060a0:	12c00011 	beqz	s6,4060e8 <__dtoa+0x63c>
  4060a4:	8fa40038 	lw	a0,56(sp)
  4060a8:	188000e5 	blez	a0,406440 <__dtoa+0x994>
  4060ac:	8f868090 	lw	a2,-32624(gp)
  4060b0:	8f878094 	lw	a3,-32620(gp)
  4060b4:	2682ffff 	addiu	v0,s4,-1
  4060b8:	02002021 	move	a0,s0
  4060bc:	02202821 	move	a1,s1
  4060c0:	0c102704 	jal	409c10 <__muldf3>
  4060c4:	afa2003c 	sw	v0,60(sp)
  4060c8:	afa3009c 	sw	v1,156(sp)
  4060cc:	8fa30038 	lw	v1,56(sp)
  4060d0:	afa20098 	sw	v0,152(sp)
  4060d4:	26520001 	addiu	s2,s2,1
  4060d8:	0810183c 	j	4060f0 <__dtoa+0x644>
  4060dc:	afa30040 	sw	v1,64(sp)
  4060e0:	0810183c 	j	4060f0 <__dtoa+0x644>
  4060e4:	afb60040 	sw	s6,64(sp)
  4060e8:	afb4003c 	sw	s4,60(sp)
  4060ec:	afa00040 	sw	zero,64(sp)
  4060f0:	8fb10098 	lw	s1,152(sp)
  4060f4:	8fb0009c 	lw	s0,156(sp)
  4060f8:	0c102a4c 	jal	40a930 <__floatsidf>
  4060fc:	02402021 	move	a0,s2
  406100:	00402021 	move	a0,v0
  406104:	00602821 	move	a1,v1
  406108:	02203021 	move	a2,s1
  40610c:	0c102704 	jal	409c10 <__muldf3>
  406110:	02003821 	move	a3,s0
  406114:	8f868098 	lw	a2,-32616(gp)
  406118:	8f87809c 	lw	a3,-32612(gp)
  40611c:	00402021 	move	a0,v0
  406120:	0c1022b4 	jal	408ad0 <__adddf3>
  406124:	00602821 	move	a1,v1
  406128:	afa30014 	sw	v1,20(sp)
  40612c:	8fb20014 	lw	s2,20(sp)
  406130:	8fa40040 	lw	a0,64(sp)
  406134:	afa20010 	sw	v0,16(sp)
  406138:	3c02fcc0 	lui	v0,0xfcc0
  40613c:	02429021 	addu	s2,s2,v0
  406140:	1480001d 	bnez	a0,4061b8 <__dtoa+0x70c>
  406144:	afb20014 	sw	s2,20(sp)
  406148:	8f8680a0 	lw	a2,-32608(gp)
  40614c:	8f8780a4 	lw	a3,-32604(gp)
  406150:	02202021 	move	a0,s1
  406154:	0c10281e 	jal	40a078 <__subdf3>
  406158:	02002821 	move	a1,s0
  40615c:	8fb30010 	lw	s3,16(sp)
  406160:	00402021 	move	a0,v0
  406164:	00602821 	move	a1,v1
  406168:	02603021 	move	a2,s3
  40616c:	02403821 	move	a3,s2
  406170:	00408021 	move	s0,v0
  406174:	00608821 	move	s1,v1
  406178:	afa20098 	sw	v0,152(sp)
  40617c:	0c10267a 	jal	4099e8 <__gedf2>
  406180:	afa3009c 	sw	v1,156(sp)
  406184:	5c400204 	bgtzl	v0,406998 <__dtoa+0xeec>
  406188:	8fb4003c 	lw	s4,60(sp)
  40618c:	3c028000 	lui	v0,0x8000
  406190:	00521026 	xor	v0,v0,s2
  406194:	02002021 	move	a0,s0
  406198:	02202821 	move	a1,s1
  40619c:	02603021 	move	a2,s3
  4061a0:	0c1026c1 	jal	409b04 <__ledf2>
  4061a4:	00403821 	move	a3,v0
  4061a8:	044001f6 	bltz	v0,406984 <__dtoa+0xed8>
  4061ac:	00008821 	move	s1,zero
  4061b0:	08101911 	j	406444 <__dtoa+0x998>
  4061b4:	8fa20050 	lw	v0,80(sp)
  4061b8:	8fa40040 	lw	a0,64(sp)
  4061bc:	3c020041 	lui	v0,0x41
  4061c0:	2442b708 	addiu	v0,v0,-18680
  4061c4:	2483ffff 	addiu	v1,a0,-1
  4061c8:	8fa40034 	lw	a0,52(sp)
  4061cc:	000318c0 	sll	v1,v1,0x3
  4061d0:	10800050 	beqz	a0,406314 <__dtoa+0x868>
  4061d4:	00431021 	addu	v0,v0,v1
  4061d8:	8f848030 	lw	a0,-32720(gp)
  4061dc:	8f858034 	lw	a1,-32716(gp)
  4061e0:	8c460000 	lw	a2,0(v0)
  4061e4:	0c1024ae 	jal	4092b8 <__divdf3>
  4061e8:	8c470004 	lw	a3,4(v0)
  4061ec:	8fa60010 	lw	a2,16(sp)
  4061f0:	8fa70014 	lw	a3,20(sp)
  4061f4:	00402021 	move	a0,v0
  4061f8:	0c10281e 	jal	40a078 <__subdf3>
  4061fc:	00602821 	move	a1,v1
  406200:	00409821 	move	s3,v0
  406204:	00609021 	move	s2,v1
  406208:	8f828090 	lw	v0,-32624(gp)
  40620c:	8f838094 	lw	v1,-32620(gp)
  406210:	8fbe002c 	lw	s8,44(sp)
  406214:	afa2005c 	sw	v0,92(sp)
  406218:	afa30060 	sw	v1,96(sp)
  40621c:	02002821 	move	a1,s0
  406220:	0c102a2e 	jal	40a8b8 <__fixdfsi>
  406224:	02202021 	move	a0,s1
  406228:	00402021 	move	a0,v0
  40622c:	0c102a4c 	jal	40a930 <__floatsidf>
  406230:	afa20068 	sw	v0,104(sp)
  406234:	00403021 	move	a2,v0
  406238:	02202021 	move	a0,s1
  40623c:	02002821 	move	a1,s0
  406240:	0c10281e 	jal	40a078 <__subdf3>
  406244:	00603821 	move	a3,v1
  406248:	8fa80068 	lw	t0,104(sp)
  40624c:	27de0001 	addiu	s8,s8,1
  406250:	00402021 	move	a0,v0
  406254:	25080030 	addiu	t0,t0,48
  406258:	a3c8ffff 	sb	t0,-1(s8)
  40625c:	00602821 	move	a1,v1
  406260:	02603021 	move	a2,s3
  406264:	02403821 	move	a3,s2
  406268:	00408021 	move	s0,v0
  40626c:	0c1026c1 	jal	409b04 <__ledf2>
  406270:	00608821 	move	s1,v1
  406274:	04410006 	bgez	v0,406290 <__dtoa+0x7e4>
  406278:	8f848038 	lw	a0,-32712(gp)
  40627c:	afb00098 	sw	s0,152(sp)
  406280:	afb1009c 	sw	s1,156(sp)
  406284:	afb30010 	sw	s3,16(sp)
  406288:	08101b42 	j	406d08 <__dtoa+0x125c>
  40628c:	afb20014 	sw	s2,20(sp)
  406290:	8f85803c 	lw	a1,-32708(gp)
  406294:	02003021 	move	a2,s0
  406298:	0c10281e 	jal	40a078 <__subdf3>
  40629c:	02203821 	move	a3,s1
  4062a0:	00402021 	move	a0,v0
  4062a4:	00602821 	move	a1,v1
  4062a8:	02603021 	move	a2,s3
  4062ac:	0c1026c1 	jal	409b04 <__ledf2>
  4062b0:	02403821 	move	a3,s2
  4062b4:	044000c3 	bltz	v0,4065c4 <__dtoa+0xb18>
  4062b8:	8fa4002c 	lw	a0,44(sp)
  4062bc:	8fa30040 	lw	v1,64(sp)
  4062c0:	03c41023 	subu	v0,s8,a0
  4062c4:	0043102a 	slt	v0,v0,v1
  4062c8:	14400004 	bnez	v0,4062dc <__dtoa+0x830>
  4062cc:	8f868090 	lw	a2,-32624(gp)
  4062d0:	afb30010 	sw	s3,16(sp)
  4062d4:	08101910 	j	406440 <__dtoa+0x994>
  4062d8:	afb20014 	sw	s2,20(sp)
  4062dc:	8f878094 	lw	a3,-32620(gp)
  4062e0:	02602021 	move	a0,s3
  4062e4:	0c102704 	jal	409c10 <__muldf3>
  4062e8:	02402821 	move	a1,s2
  4062ec:	8fa6005c 	lw	a2,92(sp)
  4062f0:	8fa70060 	lw	a3,96(sp)
  4062f4:	02002021 	move	a0,s0
  4062f8:	02202821 	move	a1,s1
  4062fc:	00409821 	move	s3,v0
  406300:	0c102704 	jal	409c10 <__muldf3>
  406304:	00609021 	move	s2,v1
  406308:	00408821 	move	s1,v0
  40630c:	08101887 	j	40621c <__dtoa+0x770>
  406310:	00608021 	move	s0,v1
  406314:	8fa40010 	lw	a0,16(sp)
  406318:	8fa50014 	lw	a1,20(sp)
  40631c:	8c460000 	lw	a2,0(v0)
  406320:	0c102704 	jal	409c10 <__muldf3>
  406324:	8c470004 	lw	a3,4(v0)
  406328:	00409021 	move	s2,v0
  40632c:	8fa4002c 	lw	a0,44(sp)
  406330:	afa20010 	sw	v0,16(sp)
  406334:	8fa20040 	lw	v0,64(sp)
  406338:	00609821 	move	s3,v1
  40633c:	afa30014 	sw	v1,20(sp)
  406340:	0082f021 	addu	s8,a0,v0
  406344:	00804021 	move	t0,a0
  406348:	02002821 	move	a1,s0
  40634c:	02202021 	move	a0,s1
  406350:	0c102a2e 	jal	40a8b8 <__fixdfsi>
  406354:	afa80068 	sw	t0,104(sp)
  406358:	00402021 	move	a0,v0
  40635c:	0c102a4c 	jal	40a930 <__floatsidf>
  406360:	afa20064 	sw	v0,100(sp)
  406364:	00403021 	move	a2,v0
  406368:	02202021 	move	a0,s1
  40636c:	02002821 	move	a1,s0
  406370:	0c10281e 	jal	40a078 <__subdf3>
  406374:	00603821 	move	a3,v1
  406378:	8fa80068 	lw	t0,104(sp)
  40637c:	8fa90064 	lw	t1,100(sp)
  406380:	00408021 	move	s0,v0
  406384:	25080001 	addiu	t0,t0,1
  406388:	25290030 	addiu	t1,t1,48
  40638c:	00608821 	move	s1,v1
  406390:	151e0021 	bne	t0,s8,406418 <__dtoa+0x96c>
  406394:	a109ffff 	sb	t1,-1(t0)
  406398:	8f868030 	lw	a2,-32720(gp)
  40639c:	8f878034 	lw	a3,-32716(gp)
  4063a0:	02402021 	move	a0,s2
  4063a4:	02602821 	move	a1,s3
  4063a8:	afa20098 	sw	v0,152(sp)
  4063ac:	0c1022b4 	jal	408ad0 <__adddf3>
  4063b0:	afa3009c 	sw	v1,156(sp)
  4063b4:	00403021 	move	a2,v0
  4063b8:	02002021 	move	a0,s0
  4063bc:	02202821 	move	a1,s1
  4063c0:	0c10267a 	jal	4099e8 <__gedf2>
  4063c4:	00603821 	move	a3,v1
  4063c8:	5c400083 	bgtzl	v0,4065d8 <__dtoa+0xb2c>
  4063cc:	8fb4003c 	lw	s4,60(sp)
  4063d0:	8f848030 	lw	a0,-32720(gp)
  4063d4:	8f858034 	lw	a1,-32716(gp)
  4063d8:	02403021 	move	a2,s2
  4063dc:	0c10281e 	jal	40a078 <__subdf3>
  4063e0:	02603821 	move	a3,s3
  4063e4:	00403021 	move	a2,v0
  4063e8:	02002021 	move	a0,s0
  4063ec:	02202821 	move	a1,s1
  4063f0:	0c1026c1 	jal	409b04 <__ledf2>
  4063f4:	00603821 	move	a3,v1
  4063f8:	04430012 	bgezl	v0,406444 <__dtoa+0x998>
  4063fc:	8fa20050 	lw	v0,80(sp)
  406400:	24030030 	li	v1,48
  406404:	93c4ffff 	lbu	a0,-1(s8)
  406408:	1483023f 	bne	a0,v1,406d08 <__dtoa+0x125c>
  40640c:	27c2ffff 	addiu	v0,s8,-1
  406410:	08101901 	j	406404 <__dtoa+0x958>
  406414:	0040f021 	move	s8,v0
  406418:	8f868090 	lw	a2,-32624(gp)
  40641c:	8f878094 	lw	a3,-32620(gp)
  406420:	00402021 	move	a0,v0
  406424:	00602821 	move	a1,v1
  406428:	0c102704 	jal	409c10 <__muldf3>
  40642c:	afa80068 	sw	t0,104(sp)
  406430:	00408821 	move	s1,v0
  406434:	00608021 	move	s0,v1
  406438:	081018d2 	j	406348 <__dtoa+0x89c>
  40643c:	8fa80068 	lw	t0,104(sp)
  406440:	8fa20050 	lw	v0,80(sp)
  406444:	8fa30054 	lw	v1,84(sp)
  406448:	afa20098 	sw	v0,152(sp)
  40644c:	afa3009c 	sw	v1,156(sp)
  406450:	8fa20020 	lw	v0,32(sp)
  406454:	04400080 	bltz	v0,406658 <__dtoa+0xbac>
  406458:	2a83000f 	slti	v1,s4,15
  40645c:	1060007f 	beqz	v1,40665c <__dtoa+0xbb0>
  406460:	8fa300a0 	lw	v1,160(sp)
  406464:	3c030041 	lui	v1,0x41
  406468:	2463b708 	addiu	v1,v1,-18680
  40646c:	001410c0 	sll	v0,s4,0x3
  406470:	00431021 	addu	v0,v0,v1
  406474:	8fa300a4 	lw	v1,164(sp)
  406478:	8c500000 	lw	s0,0(v0)
  40647c:	04610011 	bgez	v1,4064c4 <__dtoa+0xa18>
  406480:	8c510004 	lw	s1,4(v0)
  406484:	1ec00010 	bgtz	s6,4064c8 <__dtoa+0xa1c>
  406488:	8fa90098 	lw	t1,152(sp)
  40648c:	16c0013c 	bnez	s6,406980 <__dtoa+0xed4>
  406490:	8f8680a0 	lw	a2,-32608(gp)
  406494:	8f8780a4 	lw	a3,-32604(gp)
  406498:	02002021 	move	a0,s0
  40649c:	0c102704 	jal	409c10 <__muldf3>
  4064a0:	02202821 	move	a1,s1
  4064a4:	8fa40098 	lw	a0,152(sp)
  4064a8:	8fa5009c 	lw	a1,156(sp)
  4064ac:	00403021 	move	a2,v0
  4064b0:	0c1026c1 	jal	409b04 <__ledf2>
  4064b4:	00603821 	move	a3,v1
  4064b8:	00008821 	move	s1,zero
  4064bc:	08101a5c 	j	406970 <__dtoa+0xec4>
  4064c0:	00008021 	move	s0,zero
  4064c4:	8fa90098 	lw	t1,152(sp)
  4064c8:	8fa8009c 	lw	t0,156(sp)
  4064cc:	8fbe002c 	lw	s8,44(sp)
  4064d0:	8f928090 	lw	s2,-32624(gp)
  4064d4:	8f938094 	lw	s3,-32620(gp)
  4064d8:	01202021 	move	a0,t1
  4064dc:	01002821 	move	a1,t0
  4064e0:	02003021 	move	a2,s0
  4064e4:	02203821 	move	a3,s1
  4064e8:	afa80068 	sw	t0,104(sp)
  4064ec:	0c1024ae 	jal	4092b8 <__divdf3>
  4064f0:	afa90064 	sw	t1,100(sp)
  4064f4:	00602821 	move	a1,v1
  4064f8:	0c102a2e 	jal	40a8b8 <__fixdfsi>
  4064fc:	00402021 	move	a0,v0
  406500:	00402021 	move	a0,v0
  406504:	0c102a4c 	jal	40a930 <__floatsidf>
  406508:	0040b821 	move	s7,v0
  40650c:	00402021 	move	a0,v0
  406510:	00602821 	move	a1,v1
  406514:	02003021 	move	a2,s0
  406518:	0c102704 	jal	409c10 <__muldf3>
  40651c:	02203821 	move	a3,s1
  406520:	8fa90064 	lw	t1,100(sp)
  406524:	8fa80068 	lw	t0,104(sp)
  406528:	00403021 	move	a2,v0
  40652c:	01202021 	move	a0,t1
  406530:	01002821 	move	a1,t0
  406534:	0c10281e 	jal	40a078 <__subdf3>
  406538:	00603821 	move	a3,v1
  40653c:	00602821 	move	a1,v1
  406540:	8fa3002c 	lw	v1,44(sp)
  406544:	27de0001 	addiu	s8,s8,1
  406548:	00402021 	move	a0,v0
  40654c:	26e20030 	addiu	v0,s7,48
  406550:	a3c2ffff 	sb	v0,-1(s8)
  406554:	03c31023 	subu	v0,s8,v1
  406558:	1456002e 	bne	v0,s6,406614 <__dtoa+0xb68>
  40655c:	02403021 	move	a2,s2
  406560:	00803021 	move	a2,a0
  406564:	0c1022b4 	jal	408ad0 <__adddf3>
  406568:	00a03821 	move	a3,a1
  40656c:	00402021 	move	a0,v0
  406570:	00602821 	move	a1,v1
  406574:	02003021 	move	a2,s0
  406578:	02203821 	move	a3,s1
  40657c:	00409021 	move	s2,v0
  406580:	00609821 	move	s3,v1
  406584:	afa20098 	sw	v0,152(sp)
  406588:	0c10267a 	jal	4099e8 <__gedf2>
  40658c:	afa3009c 	sw	v1,156(sp)
  406590:	1c400012 	bgtz	v0,4065dc <__dtoa+0xb30>
  406594:	24030039 	li	v1,57
  406598:	02402021 	move	a0,s2
  40659c:	02602821 	move	a1,s3
  4065a0:	02003021 	move	a2,s0
  4065a4:	0c10265a 	jal	409968 <__eqdf2>
  4065a8:	02203821 	move	a3,s1
  4065ac:	144001d7 	bnez	v0,406d0c <__dtoa+0x1260>
  4065b0:	32f70001 	andi	s7,s7,0x1
  4065b4:	16e00009 	bnez	s7,4065dc <__dtoa+0xb30>
  4065b8:	24030039 	li	v1,57
  4065bc:	08101b43 	j	406d0c <__dtoa+0x1260>
  4065c0:	00000000 	nop
  4065c4:	afb00098 	sw	s0,152(sp)
  4065c8:	afb1009c 	sw	s1,156(sp)
  4065cc:	afb30010 	sw	s3,16(sp)
  4065d0:	afb20014 	sw	s2,20(sp)
  4065d4:	8fb4003c 	lw	s4,60(sp)
  4065d8:	24030039 	li	v1,57
  4065dc:	93c4ffff 	lbu	a0,-1(s8)
  4065e0:	14830008 	bne	a0,v1,406604 <__dtoa+0xb58>
  4065e4:	27c2ffff 	addiu	v0,s8,-1
  4065e8:	8fa4002c 	lw	a0,44(sp)
  4065ec:	50440003 	beql	v0,a0,4065fc <__dtoa+0xb50>
  4065f0:	24030030 	li	v1,48
  4065f4:	08101977 	j	4065dc <__dtoa+0xb30>
  4065f8:	0040f021 	move	s8,v0
  4065fc:	26940001 	addiu	s4,s4,1
  406600:	a0830000 	sb	v1,0(a0)
  406604:	90430000 	lbu	v1,0(v0)
  406608:	24630001 	addiu	v1,v1,1
  40660c:	08101b43 	j	406d0c <__dtoa+0x1260>
  406610:	a0430000 	sb	v1,0(v0)
  406614:	0c102704 	jal	409c10 <__muldf3>
  406618:	02603821 	move	a3,s3
  40661c:	00602821 	move	a1,v1
  406620:	00402021 	move	a0,v0
  406624:	00003021 	move	a2,zero
  406628:	00003821 	move	a3,zero
  40662c:	afa30064 	sw	v1,100(sp)
  406630:	0c10265a 	jal	409968 <__eqdf2>
  406634:	0040b821 	move	s7,v0
  406638:	14400004 	bnez	v0,40664c <__dtoa+0xba0>
  40663c:	8fa30064 	lw	v1,100(sp)
  406640:	afb70098 	sw	s7,152(sp)
  406644:	08101b43 	j	406d0c <__dtoa+0x1260>
  406648:	afa3009c 	sw	v1,156(sp)
  40664c:	02e04821 	move	t1,s7
  406650:	08101936 	j	4064d8 <__dtoa+0xa2c>
  406654:	00604021 	move	t0,v1
  406658:	8fa300a0 	lw	v1,160(sp)
  40665c:	8fa40034 	lw	a0,52(sp)
  406660:	1080002a 	beqz	a0,40670c <__dtoa+0xc60>
  406664:	28730002 	slti	s3,v1,2
  406668:	1260000a 	beqz	s3,406694 <__dtoa+0xbe8>
  40666c:	8fa40030 	lw	a0,48(sp)
  406670:	8fa30058 	lw	v1,88(sp)
  406674:	14600004 	bnez	v1,406688 <__dtoa+0xbdc>
  406678:	24420433 	addiu	v0,v0,1075
  40667c:	8fa20024 	lw	v0,36(sp)
  406680:	24030036 	li	v1,54
  406684:	00621023 	subu	v0,v1,v0
  406688:	8fb10030 	lw	s1,48(sp)
  40668c:	081019b8 	j	4066e0 <__dtoa+0xc34>
  406690:	8fb20028 	lw	s2,40(sp)
  406694:	26d1ffff 	addiu	s1,s6,-1
  406698:	0091102a 	slt	v0,a0,s1
  40669c:	14400003 	bnez	v0,4066ac <__dtoa+0xc00>
  4066a0:	8fa30030 	lw	v1,48(sp)
  4066a4:	081019b1 	j	4066c4 <__dtoa+0xc18>
  4066a8:	00918823 	subu	s1,a0,s1
  4066ac:	8fa40044 	lw	a0,68(sp)
  4066b0:	afb10030 	sw	s1,48(sp)
  4066b4:	02231023 	subu	v0,s1,v1
  4066b8:	00822021 	addu	a0,a0,v0
  4066bc:	afa40044 	sw	a0,68(sp)
  4066c0:	00008821 	move	s1,zero
  4066c4:	06c30005 	bgezl	s6,4066dc <__dtoa+0xc30>
  4066c8:	8fb20028 	lw	s2,40(sp)
  4066cc:	8fa20028 	lw	v0,40(sp)
  4066d0:	00569023 	subu	s2,v0,s6
  4066d4:	081019b8 	j	4066e0 <__dtoa+0xc34>
  4066d8:	00001021 	move	v0,zero
  4066dc:	02c01021 	move	v0,s6
  4066e0:	8fa30028 	lw	v1,40(sp)
  4066e4:	24040001 	li	a0,1
  4066e8:	02e2b821 	addu	s7,s7,v0
  4066ec:	00621821 	addu	v1,v1,v0
  4066f0:	0c1010b0 	jal	4042c0 <Balloc>
  4066f4:	afa30028 	sw	v1,40(sp)
  4066f8:	00408021 	move	s0,v0
  4066fc:	24020001 	li	v0,1
  406700:	ae020014 	sw	v0,20(s0)
  406704:	081019c6 	j	406718 <__dtoa+0xc6c>
  406708:	ae020010 	sw	v0,16(s0)
  40670c:	8fb10030 	lw	s1,48(sp)
  406710:	8fb20028 	lw	s2,40(sp)
  406714:	00008021 	move	s0,zero
  406718:	1240000b 	beqz	s2,406748 <__dtoa+0xc9c>
  40671c:	8fa40030 	lw	a0,48(sp)
  406720:	1ae00009 	blez	s7,406748 <__dtoa+0xc9c>
  406724:	8fa30028 	lw	v1,40(sp)
  406728:	0257102a 	slt	v0,s2,s7
  40672c:	02402021 	move	a0,s2
  406730:	02e2200a 	movz	a0,s7,v0
  406734:	00641823 	subu	v1,v1,a0
  406738:	afa30028 	sw	v1,40(sp)
  40673c:	02449023 	subu	s2,s2,a0
  406740:	02e4b823 	subu	s7,s7,a0
  406744:	8fa40030 	lw	a0,48(sp)
  406748:	1880001a 	blez	a0,4067b4 <__dtoa+0xd08>
  40674c:	8fa20034 	lw	v0,52(sp)
  406750:	10400014 	beqz	v0,4067a4 <__dtoa+0xcf8>
  406754:	8fa50030 	lw	a1,48(sp)
  406758:	1a20000d 	blez	s1,406790 <__dtoa+0xce4>
  40675c:	8fa30030 	lw	v1,48(sp)
  406760:	02002021 	move	a0,s0
  406764:	0c101267 	jal	40499c <pow5mult>
  406768:	02202821 	move	a1,s1
  40676c:	00402021 	move	a0,v0
  406770:	02a02821 	move	a1,s5
  406774:	0c101154 	jal	404550 <mult>
  406778:	00408021 	move	s0,v0
  40677c:	02a02021 	move	a0,s5
  406780:	0c100f76 	jal	403dd8 <Bfree>
  406784:	00402821 	move	a1,v0
  406788:	00a0a821 	move	s5,a1
  40678c:	8fa30030 	lw	v1,48(sp)
  406790:	00712823 	subu	a1,v1,s1
  406794:	10a00007 	beqz	a1,4067b4 <__dtoa+0xd08>
  406798:	02a02021 	move	a0,s5
  40679c:	081019ea 	j	4067a8 <__dtoa+0xcfc>
  4067a0:	00000000 	nop
  4067a4:	02a02021 	move	a0,s5
  4067a8:	0c101267 	jal	40499c <pow5mult>
  4067ac:	00000000 	nop
  4067b0:	0040a821 	move	s5,v0
  4067b4:	0c1010b0 	jal	4042c0 <Balloc>
  4067b8:	24040001 	li	a0,1
  4067bc:	8fa40044 	lw	a0,68(sp)
  4067c0:	00408821 	move	s1,v0
  4067c4:	24020001 	li	v0,1
  4067c8:	ae220014 	sw	v0,20(s1)
  4067cc:	18800005 	blez	a0,4067e4 <__dtoa+0xd38>
  4067d0:	ae220010 	sw	v0,16(s1)
  4067d4:	8fa50044 	lw	a1,68(sp)
  4067d8:	0c101267 	jal	40499c <pow5mult>
  4067dc:	02202021 	move	a0,s1
  4067e0:	00408821 	move	s1,v0
  4067e4:	52600012 	beqzl	s3,406830 <__dtoa+0xd84>
  4067e8:	8fa40044 	lw	a0,68(sp)
  4067ec:	8fa20098 	lw	v0,152(sp)
  4067f0:	1440000e 	bnez	v0,40682c <__dtoa+0xd80>
  4067f4:	afa0004c 	sw	zero,76(sp)
  4067f8:	8fa2009c 	lw	v0,156(sp)
  4067fc:	7c439800 	ext	v1,v0,0x0,0x14
  406800:	1460000b 	bnez	v1,406830 <__dtoa+0xd84>
  406804:	8fa40044 	lw	a0,68(sp)
  406808:	3c037ff0 	lui	v1,0x7ff0
  40680c:	00431024 	and	v0,v0,v1
  406810:	10400007 	beqz	v0,406830 <__dtoa+0xd84>
  406814:	24030001 	li	v1,1
  406818:	8fa20028 	lw	v0,40(sp)
  40681c:	26f70001 	addiu	s7,s7,1
  406820:	24420001 	addiu	v0,v0,1
  406824:	afa20028 	sw	v0,40(sp)
  406828:	afa3004c 	sw	v1,76(sp)
  40682c:	8fa40044 	lw	a0,68(sp)
  406830:	10800009 	beqz	a0,406858 <__dtoa+0xdac>
  406834:	24020001 	li	v0,1
  406838:	8e220010 	lw	v0,16(s1)
  40683c:	24420003 	addiu	v0,v0,3
  406840:	00021080 	sll	v0,v0,0x2
  406844:	02221021 	addu	v0,s1,v0
  406848:	0c100f81 	jal	403e04 <hi0bits>
  40684c:	8c440004 	lw	a0,4(v0)
  406850:	24030020 	li	v1,32
  406854:	00621023 	subu	v0,v1,v0
  406858:	00571021 	addu	v0,v0,s7
  40685c:	3042001f 	andi	v0,v0,0x1f
  406860:	10400010 	beqz	v0,4068a4 <__dtoa+0xdf8>
  406864:	8fa40028 	lw	a0,40(sp)
  406868:	24030020 	li	v1,32
  40686c:	00621823 	subu	v1,v1,v0
  406870:	28640005 	slti	a0,v1,5
  406874:	54800007 	bnezl	a0,406894 <__dtoa+0xde8>
  406878:	24020004 	li	v0,4
  40687c:	2403001c 	li	v1,28
  406880:	00621023 	subu	v0,v1,v0
  406884:	8fa30028 	lw	v1,40(sp)
  406888:	00621821 	addu	v1,v1,v0
  40688c:	08101a2c 	j	4068b0 <__dtoa+0xe04>
  406890:	afa30028 	sw	v1,40(sp)
  406894:	10620009 	beq	v1,v0,4068bc <__dtoa+0xe10>
  406898:	8fa20028 	lw	v0,40(sp)
  40689c:	00601021 	move	v0,v1
  4068a0:	8fa40028 	lw	a0,40(sp)
  4068a4:	2442001c 	addiu	v0,v0,28
  4068a8:	00822021 	addu	a0,a0,v0
  4068ac:	afa40028 	sw	a0,40(sp)
  4068b0:	02429021 	addu	s2,s2,v0
  4068b4:	02e2b821 	addu	s7,s7,v0
  4068b8:	8fa20028 	lw	v0,40(sp)
  4068bc:	18400004 	blez	v0,4068d0 <__dtoa+0xe24>
  4068c0:	02a02021 	move	a0,s5
  4068c4:	0c101216 	jal	404858 <lshift>
  4068c8:	00402821 	move	a1,v0
  4068cc:	0040a821 	move	s5,v0
  4068d0:	1ae00004 	blez	s7,4068e4 <__dtoa+0xe38>
  4068d4:	02202021 	move	a0,s1
  4068d8:	0c101216 	jal	404858 <lshift>
  4068dc:	02e02821 	move	a1,s7
  4068e0:	00408821 	move	s1,v0
  4068e4:	8fa30048 	lw	v1,72(sp)
  4068e8:	10600012 	beqz	v1,406934 <__dtoa+0xe88>
  4068ec:	02a02021 	move	a0,s5
  4068f0:	0c100fcd 	jal	403f34 <cmp>
  4068f4:	02202821 	move	a1,s1
  4068f8:	0441000e 	bgez	v0,406934 <__dtoa+0xe88>
  4068fc:	02a02021 	move	a0,s5
  406900:	2405000a 	li	a1,10
  406904:	0c1010cc 	jal	404330 <multadd>
  406908:	00003021 	move	a2,zero
  40690c:	8fa40034 	lw	a0,52(sp)
  406910:	2694ffff 	addiu	s4,s4,-1
  406914:	0040a821 	move	s5,v0
  406918:	10800006 	beqz	a0,406934 <__dtoa+0xe88>
  40691c:	8fb60038 	lw	s6,56(sp)
  406920:	02002021 	move	a0,s0
  406924:	2405000a 	li	a1,10
  406928:	0c1010cc 	jal	404330 <multadd>
  40692c:	00003021 	move	a2,zero
  406930:	00408021 	move	s0,v0
  406934:	1ec00023 	bgtz	s6,4069c4 <__dtoa+0xf18>
  406938:	8fa40034 	lw	a0,52(sp)
  40693c:	8fa300a0 	lw	v1,160(sp)
  406940:	28620003 	slti	v0,v1,3
  406944:	1440001f 	bnez	v0,4069c4 <__dtoa+0xf18>
  406948:	00000000 	nop
  40694c:	16c0000e 	bnez	s6,406988 <__dtoa+0xedc>
  406950:	24050005 	li	a1,5
  406954:	02202021 	move	a0,s1
  406958:	0c1010cc 	jal	404330 <multadd>
  40695c:	00003021 	move	a2,zero
  406960:	00402821 	move	a1,v0
  406964:	02a02021 	move	a0,s5
  406968:	0c100fcd 	jal	403f34 <cmp>
  40696c:	00408821 	move	s1,v0
  406970:	1c40000c 	bgtz	v0,4069a4 <__dtoa+0xef8>
  406974:	8fa2002c 	lw	v0,44(sp)
  406978:	08101a63 	j	40698c <__dtoa+0xee0>
  40697c:	8fa400a4 	lw	a0,164(sp)
  406980:	00008821 	move	s1,zero
  406984:	00008021 	move	s0,zero
  406988:	8fa400a4 	lw	a0,164(sp)
  40698c:	8fbe002c 	lw	s8,44(sp)
  406990:	08101a6e 	j	4069b8 <__dtoa+0xf0c>
  406994:	0004a027 	nor	s4,zero,a0
  406998:	00008821 	move	s1,zero
  40699c:	00008021 	move	s0,zero
  4069a0:	8fa2002c 	lw	v0,44(sp)
  4069a4:	8fa3002c 	lw	v1,44(sp)
  4069a8:	26940001 	addiu	s4,s4,1
  4069ac:	245e0001 	addiu	s8,v0,1
  4069b0:	24020031 	li	v0,49
  4069b4:	a0620000 	sb	v0,0(v1)
  4069b8:	02009021 	move	s2,s0
  4069bc:	08101b34 	j	406cd0 <__dtoa+0x1224>
  4069c0:	00008021 	move	s0,zero
  4069c4:	50800088 	beqzl	a0,406be8 <__dtoa+0x113c>
  4069c8:	8fb2002c 	lw	s2,44(sp)
  4069cc:	1a400004 	blez	s2,4069e0 <__dtoa+0xf34>
  4069d0:	02002021 	move	a0,s0
  4069d4:	0c101216 	jal	404858 <lshift>
  4069d8:	02402821 	move	a1,s2
  4069dc:	00408021 	move	s0,v0
  4069e0:	8fa2004c 	lw	v0,76(sp)
  4069e4:	1040000e 	beqz	v0,406a20 <__dtoa+0xf74>
  4069e8:	02009021 	move	s2,s0
  4069ec:	0c1010b0 	jal	4042c0 <Balloc>
  4069f0:	8e040004 	lw	a0,4(s0)
  4069f4:	8e060010 	lw	a2,16(s0)
  4069f8:	00409021 	move	s2,v0
  4069fc:	2444000c 	addiu	a0,v0,12
  406a00:	24c60002 	addiu	a2,a2,2
  406a04:	2605000c 	addiu	a1,s0,12
  406a08:	0c102214 	jal	408850 <memcpy>
  406a0c:	00063080 	sll	a2,a2,0x2
  406a10:	02402021 	move	a0,s2
  406a14:	0c101216 	jal	404858 <lshift>
  406a18:	24050001 	li	a1,1
  406a1c:	00409021 	move	s2,v0
  406a20:	8fa3002c 	lw	v1,44(sp)
  406a24:	0076b021 	addu	s6,v1,s6
  406a28:	24730001 	addiu	s3,v1,1
  406a2c:	afb60030 	sw	s6,48(sp)
  406a30:	02a02021 	move	a0,s5
  406a34:	0c101042 	jal	404108 <quorem>
  406a38:	02202821 	move	a1,s1
  406a3c:	02a02021 	move	a0,s5
  406a40:	02002821 	move	a1,s0
  406a44:	afa20028 	sw	v0,40(sp)
  406a48:	0c100fcd 	jal	403f34 <cmp>
  406a4c:	24570030 	addiu	s7,v0,48
  406a50:	02202021 	move	a0,s1
  406a54:	02402821 	move	a1,s2
  406a58:	0c1011c5 	jal	404714 <diff>
  406a5c:	0040f021 	move	s8,v0
  406a60:	00404021 	move	t0,v0
  406a64:	8c42000c 	lw	v0,12(v0)
  406a68:	14400006 	bnez	v0,406a84 <__dtoa+0xfd8>
  406a6c:	2676ffff 	addiu	s6,s3,-1
  406a70:	02a02021 	move	a0,s5
  406a74:	0c100fcd 	jal	403f34 <cmp>
  406a78:	01002821 	move	a1,t0
  406a7c:	08101aa2 	j	406a88 <__dtoa+0xfdc>
  406a80:	00403821 	move	a3,v0
  406a84:	24070001 	li	a3,1
  406a88:	0c100f76 	jal	403dd8 <Bfree>
  406a8c:	01002021 	move	a0,t0
  406a90:	8fa400a0 	lw	a0,160(sp)
  406a94:	00e41025 	or	v0,a3,a0
  406a98:	1440000a 	bnez	v0,406ac4 <__dtoa+0x1018>
  406a9c:	8fa20098 	lw	v0,152(sp)
  406aa0:	30420001 	andi	v0,v0,0x1
  406aa4:	14400007 	bnez	v0,406ac4 <__dtoa+0x1018>
  406aa8:	24020039 	li	v0,57
  406aac:	12e2002c 	beq	s7,v0,406b60 <__dtoa+0x10b4>
  406ab0:	8fa30028 	lw	v1,40(sp)
  406ab4:	001ef02a 	slt	s8,zero,s8
  406ab8:	24620031 	addiu	v0,v1,49
  406abc:	08101ad0 	j	406b40 <__dtoa+0x1094>
  406ac0:	005eb80b 	movn	s7,v0,s8
  406ac4:	07c10005 	bgez	s8,406adc <__dtoa+0x1030>
  406ac8:	8fa400a0 	lw	a0,160(sp)
  406acc:	5ce0000b 	bgtzl	a3,406afc <__dtoa+0x1050>
  406ad0:	02a02021 	move	a0,s5
  406ad4:	08101ad1 	j	406b44 <__dtoa+0x1098>
  406ad8:	26de0001 	addiu	s8,s6,1
  406adc:	03c4f025 	or	s8,s8,a0
  406ae0:	17c0001a 	bnez	s8,406b4c <__dtoa+0x10a0>
  406ae4:	8fa20098 	lw	v0,152(sp)
  406ae8:	30420001 	andi	v0,v0,0x1
  406aec:	14400017 	bnez	v0,406b4c <__dtoa+0x10a0>
  406af0:	00000000 	nop
  406af4:	08101ab3 	j	406acc <__dtoa+0x1020>
  406af8:	00000000 	nop
  406afc:	0c101216 	jal	404858 <lshift>
  406b00:	24050001 	li	a1,1
  406b04:	00402021 	move	a0,v0
  406b08:	02202821 	move	a1,s1
  406b0c:	0c100fcd 	jal	403f34 <cmp>
  406b10:	0040a821 	move	s5,v0
  406b14:	5c400007 	bgtzl	v0,406b34 <__dtoa+0x1088>
  406b18:	24020039 	li	v0,57
  406b1c:	14400009 	bnez	v0,406b44 <__dtoa+0x1098>
  406b20:	26de0001 	addiu	s8,s6,1
  406b24:	32e20001 	andi	v0,s7,0x1
  406b28:	50400069 	beqzl	v0,406cd0 <__dtoa+0x1224>
  406b2c:	a2d70000 	sb	s7,0(s6)
  406b30:	24020039 	li	v0,57
  406b34:	12e2000a 	beq	s7,v0,406b60 <__dtoa+0x10b4>
  406b38:	8fa30028 	lw	v1,40(sp)
  406b3c:	24770031 	addiu	s7,v1,49
  406b40:	26de0001 	addiu	s8,s6,1
  406b44:	08101b34 	j	406cd0 <__dtoa+0x1224>
  406b48:	a2d70000 	sb	s7,0(s6)
  406b4c:	18e0000b 	blez	a3,406b7c <__dtoa+0x10d0>
  406b50:	8fa30030 	lw	v1,48(sp)
  406b54:	24020039 	li	v0,57
  406b58:	16e20005 	bne	s7,v0,406b70 <__dtoa+0x10c4>
  406b5c:	26e30001 	addiu	v1,s7,1
  406b60:	24020039 	li	v0,57
  406b64:	26de0001 	addiu	s8,s6,1
  406b68:	08101b1f 	j	406c7c <__dtoa+0x11d0>
  406b6c:	a2c20000 	sb	v0,0(s6)
  406b70:	26de0001 	addiu	s8,s6,1
  406b74:	08101b34 	j	406cd0 <__dtoa+0x1224>
  406b78:	a2c30000 	sb	v1,0(s6)
  406b7c:	0260f021 	move	s8,s3
  406b80:	12630030 	beq	s3,v1,406c44 <__dtoa+0x1198>
  406b84:	a277ffff 	sb	s7,-1(s3)
  406b88:	02a02021 	move	a0,s5
  406b8c:	2405000a 	li	a1,10
  406b90:	0c1010cc 	jal	404330 <multadd>
  406b94:	00003021 	move	a2,zero
  406b98:	0040a821 	move	s5,v0
  406b9c:	02002021 	move	a0,s0
  406ba0:	2405000a 	li	a1,10
  406ba4:	16120006 	bne	s0,s2,406bc0 <__dtoa+0x1114>
  406ba8:	00003021 	move	a2,zero
  406bac:	0c1010cc 	jal	404330 <multadd>
  406bb0:	26730001 	addiu	s3,s3,1
  406bb4:	00408021 	move	s0,v0
  406bb8:	08101af8 	j	406be0 <__dtoa+0x1134>
  406bbc:	00409021 	move	s2,v0
  406bc0:	0c1010cc 	jal	404330 <multadd>
  406bc4:	26730001 	addiu	s3,s3,1
  406bc8:	02402021 	move	a0,s2
  406bcc:	2405000a 	li	a1,10
  406bd0:	00003021 	move	a2,zero
  406bd4:	0c1010cc 	jal	404330 <multadd>
  406bd8:	00408021 	move	s0,v0
  406bdc:	00409021 	move	s2,v0
  406be0:	08101a8d 	j	406a34 <__dtoa+0xf88>
  406be4:	02a02021 	move	a0,s5
  406be8:	02a02021 	move	a0,s5
  406bec:	0c101042 	jal	404108 <quorem>
  406bf0:	02202821 	move	a1,s1
  406bf4:	8fa4002c 	lw	a0,44(sp)
  406bf8:	26520001 	addiu	s2,s2,1
  406bfc:	24570030 	addiu	s7,v0,48
  406c00:	02441023 	subu	v0,s2,a0
  406c04:	0056102a 	slt	v0,v0,s6
  406c08:	14400008 	bnez	v0,406c2c <__dtoa+0x1180>
  406c0c:	a257ffff 	sb	s7,-1(s2)
  406c10:	241e0001 	li	s8,1
